

Microchip Technology PIC18 LITE Macro Assembler V1.43 build -156212558 
                                                                                               Fri Oct  5 20:38:03 2018

Microchip Technology Omniscient Code Generator v1.43 (Free mode) build 201707250354
     1                           	processor	18F85J94
     2                           	fnconf	rparam,??,?,0
     3                           	opt	pw 120
     4                           	opt	lm
     5                           	psect	idataCOMRAM,global,class=CODE,delta=1,noexec
     6                           	psect	idataBANK0,global,class=CODE,delta=1,noexec
     7                           	psect	cinit,global,reloc=2,class=CODE,delta=1
     8                           	psect	bssCOMRAM,global,class=COMRAM,space=1,delta=1,noexec
     9                           	psect	dataCOMRAM,global,class=COMRAM,space=1,delta=1,noexec
    10                           	psect	bssBANK0,global,class=BANK0,space=1,delta=1,lowdata,noexec
    11                           	psect	dataBANK0,global,class=BANK0,space=1,delta=1,lowdata,noexec
    12                           	psect	cstackBANK1,global,class=BANK1,space=1,delta=1,noexec
    13                           	psect	cstackBANK0,global,class=BANK0,space=1,delta=1,noexec
    14                           	psect	cstackCOMRAM,global,class=COMRAM,space=1,delta=1,noexec
    15                           	psect	text0,global,reloc=2,class=CODE,delta=1
    16                           	psect	text1,global,reloc=2,class=CODE,delta=1
    17                           	psect	text2,global,reloc=2,class=CODE,delta=1
    18                           	psect	text3,global,reloc=2,class=CODE,delta=1
    19                           	psect	text4,global,reloc=2,class=CODE,delta=1
    20                           	psect	text5,global,reloc=2,class=CODE,delta=1
    21                           	psect	text6,global,reloc=2,class=CODE,delta=1
    22                           	psect	text7,global,reloc=2,class=CODE,delta=1
    23                           	psect	text8,global,reloc=2,class=CODE,delta=1
    24                           	psect	text9,global,reloc=2,class=CODE,delta=1
    25                           	psect	text10,global,reloc=2,class=CODE,delta=1
    26                           	psect	text11,global,reloc=2,class=CODE,delta=1
    27                           	psect	text12,global,reloc=2,class=CODE,delta=1
    28                           	psect	text13,global,reloc=2,class=CODE,delta=1
    29                           	psect	text14,global,reloc=2,class=CODE,delta=1
    30                           	psect	text15,global,reloc=2,class=CODE,delta=1
    31                           	psect	text16,global,reloc=2,class=CODE,delta=1
    32                           	psect	text17,global,reloc=2,class=CODE,delta=1
    33                           	psect	text18,global,reloc=2,class=CODE,delta=1
    34                           	psect	text19,global,reloc=2,class=CODE,delta=1
    35                           	psect	text20,global,reloc=2,class=CODE,delta=1
    36                           	psect	text21,global,reloc=2,class=CODE,delta=1
    37                           	psect	intcode,global,reloc=2,class=CODE,delta=1
    38                           	psect	text23,global,reloc=2,class=CODE,delta=1
    39                           	psect	text24,global,reloc=2,class=CODE,delta=1
    40                           	psect	text25,global,reloc=2,class=CODE,delta=1
    41                           	psect	text26,global,reloc=2,class=CODE,delta=1
    42                           	psect	text27,global,reloc=2,class=CODE,delta=1
    43                           	psect	text28,global,reloc=2,class=CODE,delta=1,group=1
    44                           	psect	text29,global,reloc=2,class=CODE,delta=1
    45                           	psect	text30,global,reloc=2,class=CODE,delta=1
    46                           	psect	text31,global,reloc=2,class=CODE,delta=1
    47                           	psect	text32,global,reloc=2,class=CODE,delta=1
    48                           	psect	text33,global,reloc=2,class=CODE,delta=1
    49                           	psect	intsave_regs,global,class=BIGRAM,space=1,delta=1,noexec
    50                           	psect	rparam,global,class=COMRAM,space=1,delta=1,noexec
    51                           	psect	temp,global,ovrld,common,class=COMRAM,space=1,delta=1
    52  0000                     
    53                           ; Version 1.43
    54                           ; Generated 25/07/2017 GMT
    55                           ; 
    56                           ; Copyright © 2017, Microchip Technology Inc. and its subsidiaries ("Microchip")
    57                           ; All rights reserved.
    58                           ; 
    59                           ; This software is developed by Microchip Technology Inc. and its subsidiaries ("Microch
      +                          ip").
    60                           ; 
    61                           ; Redistribution and use in source and binary forms, with or without modification, are
    62                           ; permitted provided that the following conditions are met:
    63                           ; 
    64                           ;     1. Redistributions of source code must retain the above copyright notice, this lis
      +                          t of
    65                           ;        conditions and the following disclaimer.
    66                           ; 
    67                           ;     2. Redistributions in binary form must reproduce the above copyright notice, this 
      +                          list
    68                           ;        of conditions and the following disclaimer in the documentation and/or other
    69                           ;        materials provided with the distribution.
    70                           ; 
    71                           ;     3. Microchip's name may not be used to endorse or promote products derived from th
      +                          is
    72                           ;        software without specific prior written permission.
    73                           ; 
    74                           ; THIS SOFTWARE IS PROVIDED BY MICROCHIP "AS IS" AND ANY EXPRESS OR IMPLIED WARRANTIES,
    75                           ; INCLUDING, BUT NOT LIMITED TO, THE IMPLIED WARRANTIES OF MERCHANTABILITY AND FITNESS F
      +                          OR
    76                           ; PURPOSE ARE DISCLAIMED.  IN NO EVENT SHALL MICROCHIP BE LIABLE FOR ANY DIRECT, INDIREC
      +                          T,
    77                           ; INCIDENTAL, SPECIAL, EXEMPLARY, OR CONSEQUENTIAL DAMAGES (INCLUDING BUT NOT LIMITED TO
    78                           ; PROCUREMENT OF SUBSTITUTE GOODS OR SERVICES; LOSS OF USE, DATA OR PROFITS; OR BUSINESS
    79                           ; INTERRUPTION) HOWSOEVER CAUSED AND ON ANY THEORY OF LIABILITY, WHETHER IN CONTRACT, ST
      +                          RICT
    80                           ; LIABILITY, OR TORT (INCLUDING NEGLIGENCE OR OTHERWISE) ARISING IN ANY WAY OUT OF THE U
      +                          SE OF
    81                           ; THIS SOFTWARE, EVEN IF ADVISED OF THE POSSIBILITY OF SUCH DAMAGE.
    82                           ; 
    83                           ; 
    84                           ; Code-generator required, PIC18F85J94 Definitions
    85                           ; 
    86                           ; SFR Addresses
    87  0000                     
    88                           	psect	idataCOMRAM
    89  00147A                     __pidataCOMRAM:
    90                           	opt stack 0
    91                           
    92                           ;initializer for _tapOnTime
    93  00147A  0005               	dw	5
    94                           
    95                           ;initializer for _swX
    96  00147C  0001               	dw	1
    97                           
    98                           	psect	idataBANK0
    99  0012F4                     __pidataBANK0:
   100                           	opt stack 0
   101                           
   102                           ;initializer for _paramAddress
   103  0012F4  00A1               	dw	161
   104  0012F6  00A3               	dw	163
   105  0012F8  00A5               	dw	165
   106  0012FA  00A7               	dw	167
   107  0012FC  00A9               	dw	169
   108  0012FE  00AB               	dw	171
   109  001300  00AD               	dw	173
   110  001302  00AF               	dw	175
   111  001304  00B1               	dw	177
   112  001306  00B3               	dw	179
   113  001308  00B5               	dw	181
   114  00130A  00B7               	dw	183
   115                           
   116                           ;initializer for _presetParams
   117  00130C  0000               	dw	0
   118  00130E  00FF               	dw	255
   119  001310  007F               	dw	127
   120  001312  007F               	dw	127
   121  001314  0000               	dw	0
   122  001316  0000               	dw	0
   123  001318  0000               	dw	0
   124  00131A  0000               	dw	0
   125  00131C  0000               	dw	0
   126  00131E  0000               	dw	0
   127  001320  0000               	dw	0
   128  001322  0000               	dw	0
   129                           
   130                           ;initializer for _currentTapTime
   131  001324  01F4               	dw	500
   132                           
   133                           ;initializer for _bypMode
   134  001326  0001               	dw	1
   135  0000                     _ADCBUF9	set	3672
   136  0000                     _ADCBUF8	set	3670
   137  0000                     _ADCBUF14	set	3682
   138  0000                     _ADCBUF6	set	3666
   139  0000                     _ADCBUF5	set	3664
   140  0000                     _ADCBUF4	set	3662
   141  0000                     _ADCBUF3	set	3660
   142  0000                     _ADCBUF2	set	3658
   143  0000                     _ADCBUF1	set	3656
   144  0000                     _MEMCONbits	set	3811
   145  0000                     _LCDSE7	set	3797
   146  0000                     _LCDSE6	set	3796
   147  0000                     _LCDSE5	set	3795
   148  0000                     _LCDSE4	set	3794
   149  0000                     _LCDSE3	set	3793
   150  0000                     _LCDSE2	set	3792
   151  0000                     _LCDSE1	set	3791
   152  0000                     _LCDSE0	set	3790
   153  0000                     _LCDCONbits	set	3801
   154  0000                     _RPINR22_23bits	set	3637
   155  0000                     _RPINR18_19bits	set	3635
   156  0000                     _RPINR24_25bits	set	3638
   157  0000                     _RPINR20_21bits	set	3636
   158  0000                     _ANCON3bits	set	3653
   159  0000                     _ANCON2bits	set	3654
   160  0000                     _ANCON1bits	set	3655
   161  0000                     _ADCHS0Lbits	set	3718
   162  0000                     _ADCON5Hbits	set	3721
   163  0000                     _ADCON3Lbits	set	3722
   164  0000                     _ADCON3Hbits	set	3723
   165  0000                     _ADCON2Hbits	set	3725
   166  0000                     _IOCPbits	set	3926
   167  0000                     _IOCNbits	set	3925
   168  0000                     _PADCFG1bits	set	3924
   169  0000                     _T5CONbits	set	3860
   170  0000                     _CM3CONbits	set	3895
   171  0000                     _CM2CONbits	set	3896
   172  0000                     _CM1CONbits	set	3923
   173  0000                     _SSP2BUF	set	3843
   174  0000                     _SSP2CON3bits	set	3897
   175  0000                     _SSP2CON2bits	set	3864
   176  0000                     _SSP2MSK	set	3863
   177  0000                     _SSP2ADD	set	3842
   178  0000                     _SSP2CON1bits	set	3865
   179  0000                     _CCPR4H	set	3858
   180  0000                     _CCPTMRS1bits	set	3893
   181  0000                     _CCP4CONbits	set	3856
   182  0000                     _CCPR4L	set	3857
   183  0000                     _T4CONbits	set	3844
   184  0000                     _ADCBUF0	set	4034
   185  0000                     _SSP1STATbits	set	4039
   186  0000                     _PIR1bits	set	3998
   187  0000                     _SSP1CON2bits	set	4037
   188  0000                     _IOCFbits	set	4049
   189  0000                     _PIE5bits	set	4023
   190  0000                     _PIE2bits	set	4000
   191  0000                     _PIE1bits	set	3997
   192  0000                     _INTCONbits	set	4082
   193  0000                     _TRISBbits	set	3987
   194  0000                     _TRISJbits	set	3994
   195  0000                     _TRISEbits	set	3990
   196  0000                     _T3CONbits	set	4017
   197  0000                     _UCONbits	set	3957
   198  0000                     _OSCCON	set	4051
   199  0000                     _TRISGbits	set	3992
   200  0000                     _TRISHbits	set	3993
   201  0000                     _TRISFbits	set	3991
   202  0000                     _TRISAbits	set	3986
   203  0000                     _ADCON1Lbits	set	4032
   204  0000                     _ADCON1Hbits	set	4033
   205  0000                     _TRISDbits	set	3989
   206  0000                     _SSP1BUF	set	4041
   207  0000                     _SSP1ADD	set	4040
   208  0000                     _SSP1CON1bits	set	4038
   209  0000                     _T2CON	set	4042
   210  0000                     _TRISCbits	set	3988
   211  0000                     _PR2	set	4043
   212  0000                     _OSCCONbits	set	4051
   213  0000                     _OSCCON2bits	set	3942
   214  0000                     _OSCCON3bits	set	3941
   215  0000                     _OSCCON4bits	set	3940
   216  0000                     _T1CONbits	set	4045
   217  0000                     _T0CONbits	set	4053
   218  0000                     _T2CONbits	set	4042
   219  0000                     _PIR2bits	set	4001
   220  0000                     _RD7	set	31775
   221  0000                     _RJ0	set	31808
   222  0000                     _RJ1	set	31809
   223  0000                     _RH4	set	31804
   224  0000                     _RH5	set	31805
   225  0000                     _RF3	set	31787
   226  0000                     _RC6	set	31766
   227  0000                     _RC0	set	31760
   228  0000                     _RC1	set	31761
   229  0000                     _RJ5	set	31813
   230  0000                     _RJ4	set	31812
   231  0000                     _RC7	set	31767
   232  0000                     _RG3	set	31795
   233  0000                     _RD1	set	31769
   234  0000                     _RE6	set	31782
   235  0000                     _RG2	set	31794
   236  0000                     _RG1	set	31793
   237  0000                     _RE3	set	31779
   238  0000                     _RD4	set	31772
   239  0000                     _IOCF7	set	32399
   240  0000                     _IOCF6	set	32398
   241  0000                     _IOCF5	set	32397
   242  0000                     _IOCF4	set	32396
   243  0000                     _IOCF3	set	32395
   244  0000                     _IOCF2	set	32394
   245  0000                     _IOCF1	set	32393
   246  0000                     _LATE0	set	31848
   247  0000                     _LATD2	set	31842
   248  0000                     _LATH1	set	31873
   249  0000                     _LATE1	set	31849
   250  0000                     _LATH2	set	31874
   251  0000                     _LATE4	set	31852
   252  0000                     _LATE5	set	31853
   253  0000                     _LATE7	set	31855
   254  0000                     _LATD0	set	31840
   255  0000                     _LATH0	set	31872
   256  0000                     _LATG4	set	31868
   257  0000                     _LATF6	set	31862
   258  0000                     _LATF5	set	31861
   259  0000                     _LATF2	set	31858
   260  0000                     _LATH7	set	31879
   261  0000                     _LATD3	set	31843
   262  0000                     _LATB5	set	31829
   263  0000                     _TMR2ON	set	32338
   264  0000                     _TMR0IF	set	32658
   265  0000                     _TMR2IF	set	31985
   266  0000                     _TMR4IF	set	32192
   267  0000                     _SSP2IF	set	32014
   268                           
   269                           ; #config settings
   270  0000                     
   271                           	psect	cinit
   272  0010C6                     __pcinit:
   273                           	opt stack 0
   274  0010C6                     start_initialization:
   275                           	opt stack 0
   276  0010C6                     __initialization:
   277                           	opt stack 0
   278                           
   279                           ; Initialize objects allocated to BANK0 (52 bytes)
   280                           ; load TBLPTR registers with __pidataBANK0
   281  0010C6  0EF4               	movlw	low __pidataBANK0
   282  0010C8  6EF6               	movwf	tblptrl,c
   283  0010CA  0E12               	movlw	high __pidataBANK0
   284  0010CC  6EF7               	movwf	tblptrh,c
   285  0010CE  0E00               	movlw	low (__pidataBANK0 shr (0+16))
   286  0010D0  6EF8               	movwf	tblptru,c
   287  0010D2  EE00  F0C6         	lfsr	0,__pdataBANK0
   288  0010D6  EE10 F034          	lfsr	1,52
   289  0010DA                     copy_data0:
   290  0010DA  0009               	tblrd		*+
   291  0010DC  CFF5 FFEE          	movff	tablat,postinc0
   292  0010E0  50E5               	movf	postdec1,w,c
   293  0010E2  50E1               	movf	fsr1l,w,c
   294  0010E4  E1FA               	bnz	copy_data0
   295                           
   296                           ; Initialize objects allocated to COMRAM (4 bytes)
   297                           ; load TBLPTR registers with __pidataCOMRAM
   298  0010E6  0E7A               	movlw	low __pidataCOMRAM
   299  0010E8  6EF6               	movwf	tblptrl,c
   300  0010EA  0E14               	movlw	high __pidataCOMRAM
   301  0010EC  6EF7               	movwf	tblptrh,c
   302  0010EE  0E00               	movlw	low (__pidataCOMRAM shr (0+16))
   303  0010F0  6EF8               	movwf	tblptru,c
   304  0010F2  EE00  F045         	lfsr	0,__pdataCOMRAM
   305  0010F6  EE10 F004          	lfsr	1,4
   306  0010FA                     copy_data1:
   307  0010FA  0009               	tblrd		*+
   308  0010FC  CFF5 FFEE          	movff	tablat,postinc0
   309  001100  50E5               	movf	postdec1,w,c
   310  001102  50E1               	movf	fsr1l,w,c
   311  001104  E1FA               	bnz	copy_data1
   312                           
   313                           ; Clear objects allocated to BANK0 (102 bytes)
   314  001106  EE00  F060         	lfsr	0,__pbssBANK0
   315  00110A  0E66               	movlw	102
   316  00110C                     clear_0:
   317  00110C  6AEE               	clrf	postinc0,c
   318  00110E  06E8               	decf	wreg,f,c
   319  001110  E1FD               	bnz	clear_0
   320                           
   321                           ; Clear objects allocated to COMRAM (38 bytes)
   322  001112  EE00  F001         	lfsr	0,__pbssCOMRAM
   323  001116  0E26               	movlw	38
   324  001118                     clear_1:
   325  001118  6AEE               	clrf	postinc0,c
   326  00111A  06E8               	decf	wreg,f,c
   327  00111C  E1FD               	bnz	clear_1
   328  00111E                     end_of_initialization:
   329                           	opt stack 0
   330  00111E                     __end_of__initialization:
   331                           	opt stack 0
   332  00111E  9049               	bcf	int$flags,0,c	;clear compiler interrupt flag (level 1)
   333  001120  9249               	bcf	int$flags,1,c	;clear compiler interrupt flag (level 2)
   334  001122  0100               	movlb	0
   335  001124  EF13  F004         	goto	_main	;jump to C main() function
   336                           tblptru	equ	0xFF8
   337                           tblptrh	equ	0xFF7
   338                           tblptrl	equ	0xFF6
   339                           tablat	equ	0xFF5
   340                           postinc0	equ	0xFEE
   341                           wreg	equ	0xFE8
   342                           postdec1	equ	0xFE5
   343                           fsr1l	equ	0xFE1
   344                           
   345                           	psect	bssCOMRAM
   346  000001                     __pbssCOMRAM:
   347                           	opt stack 0
   348  000001                     _tap:
   349                           	opt stack 0
   350  000001                     	ds	2
   351  000003                     _tapPrev:
   352                           	opt stack 0
   353  000003                     	ds	2
   354  000005                     _tapTimeCount:
   355                           	opt stack 0
   356  000005                     	ds	2
   357  000007                     _timeC:
   358                           	opt stack 0
   359  000007                     	ds	2
   360  000009                     _timeB:
   361                           	opt stack 0
   362  000009                     	ds	2
   363  00000B                     _timeA:
   364                           	opt stack 0
   365  00000B                     	ds	2
   366  00000D                     _shift:
   367                           	opt stack 0
   368  00000D                     	ds	2
   369  00000F                     _tapDispCount:
   370                           	opt stack 0
   371  00000F                     	ds	2
   372  000011                     _presetPend:
   373                           	opt stack 0
   374  000011                     	ds	2
   375  000013                     _targPreset:
   376                           	opt stack 0
   377  000013                     	ds	2
   378  000015                     _preset:
   379                           	opt stack 0
   380  000015                     	ds	2
   381  000017                     _bypass:
   382                           	opt stack 0
   383  000017                     	ds	2
   384  000019                     _switch4:
   385                           	opt stack 0
   386  000019                     	ds	2
   387  00001B                     _switch3:
   388                           	opt stack 0
   389  00001B                     	ds	2
   390  00001D                     _switch2:
   391                           	opt stack 0
   392  00001D                     	ds	2
   393  00001F                     _switch1:
   394                           	opt stack 0
   395  00001F                     	ds	2
   396  000021                     _intC:
   397                           	opt stack 0
   398  000021                     	ds	2
   399  000023                     _intB:
   400                           	opt stack 0
   401  000023                     	ds	2
   402  000025                     _intA:
   403                           	opt stack 0
   404  000025                     	ds	2
   405                           tblptru	equ	0xFF8
   406                           tblptrh	equ	0xFF7
   407                           tblptrl	equ	0xFF6
   408                           tablat	equ	0xFF5
   409                           postinc0	equ	0xFEE
   410                           wreg	equ	0xFE8
   411                           postdec1	equ	0xFE5
   412                           fsr1l	equ	0xFE1
   413                           
   414                           	psect	dataCOMRAM
   415  000045                     __pdataCOMRAM:
   416                           	opt stack 0
   417  000045                     _tapOnTime:
   418                           	opt stack 0
   419  000045                     	ds	2
   420  000047                     _swX:
   421                           	opt stack 0
   422  000047                     	ds	2
   423                           tblptru	equ	0xFF8
   424                           tblptrh	equ	0xFF7
   425                           tblptrl	equ	0xFF6
   426                           tablat	equ	0xFF5
   427                           postinc0	equ	0xFEE
   428                           wreg	equ	0xFE8
   429                           postdec1	equ	0xFE5
   430                           fsr1l	equ	0xFE1
   431                           
   432                           	psect	bssBANK0
   433  000060                     __pbssBANK0:
   434                           	opt stack 0
   435  000060                     _userParams:
   436                           	opt stack 0
   437  000060                     	ds	24
   438  000078                     _presetAdd:
   439                           	opt stack 0
   440  000078                     	ds	10
   441  000082                     _tapAccum:
   442                           	opt stack 0
   443  000082                     	ds	4
   444  000086                     _sync:
   445                           	opt stack 0
   446  000086                     	ds	2
   447  000088                     _setupComplete:
   448                           	opt stack 0
   449  000088                     	ds	2
   450  00008A                     _timeoutCount:
   451                           	opt stack 0
   452  00008A                     	ds	2
   453  00008C                     _newTempo:
   454                           	opt stack 0
   455  00008C                     	ds	2
   456  00008E                     _tapTime:
   457                           	opt stack 0
   458  00008E                     	ds	2
   459  000090                     _lvlC:
   460                           	opt stack 0
   461  000090                     	ds	2
   462  000092                     _fbkC:
   463                           	opt stack 0
   464  000092                     	ds	2
   465  000094                     _lvlB:
   466                           	opt stack 0
   467  000094                     	ds	2
   468  000096                     _fbkB:
   469                           	opt stack 0
   470  000096                     	ds	2
   471  000098                     _lvlA:
   472                           	opt stack 0
   473  000098                     	ds	2
   474  00009A                     _fbkA:
   475                           	opt stack 0
   476  00009A                     	ds	2
   477  00009C                     _dataPtr:
   478                           	opt stack 0
   479  00009C                     	ds	2
   480  00009E                     _dataTarget:
   481                           	opt stack 0
   482  00009E                     	ds	2
   483  0000A0                     _tapFlash:
   484                           	opt stack 0
   485  0000A0                     	ds	2
   486  0000A2                     _pFlash:
   487                           	opt stack 0
   488  0000A2                     	ds	2
   489  0000A4                     _pFlashCount:
   490                           	opt stack 0
   491  0000A4                     	ds	2
   492  0000A6                     _muxADC:
   493                           	opt stack 0
   494  0000A6                     	ds	2
   495  0000A8                     _fsw2:
   496                           	opt stack 0
   497  0000A8                     	ds	2
   498  0000AA                     _fsw1:
   499                           	opt stack 0
   500  0000AA                     	ds	2
   501  0000AC                     _switch5:
   502                           	opt stack 0
   503  0000AC                     	ds	2
   504  0000AE                     _parameter:
   505                           	opt stack 0
   506  0000AE                     	ds	24
   507                           tblptru	equ	0xFF8
   508                           tblptrh	equ	0xFF7
   509                           tblptrl	equ	0xFF6
   510                           tablat	equ	0xFF5
   511                           postinc0	equ	0xFEE
   512                           wreg	equ	0xFE8
   513                           postdec1	equ	0xFE5
   514                           fsr1l	equ	0xFE1
   515                           
   516                           	psect	dataBANK0
   517  0000C6                     __pdataBANK0:
   518                           	opt stack 0
   519  0000C6                     _paramAddress:
   520                           	opt stack 0
   521  0000C6                     	ds	24
   522  0000DE                     _presetParams:
   523                           	opt stack 0
   524  0000DE                     	ds	24
   525  0000F6                     _currentTapTime:
   526                           	opt stack 0
   527  0000F6                     	ds	2
   528  0000F8                     _bypMode:
   529                           	opt stack 0
   530  0000F8                     	ds	2
   531                           tblptru	equ	0xFF8
   532                           tblptrh	equ	0xFF7
   533                           tblptrl	equ	0xFF6
   534                           tablat	equ	0xFF5
   535                           postinc0	equ	0xFEE
   536                           wreg	equ	0xFE8
   537                           postdec1	equ	0xFE5
   538                           fsr1l	equ	0xFE1
   539                           
   540                           	psect	cstackBANK1
   541  000100                     __pcstackBANK1:
   542                           	opt stack 0
   543  000100                     ??_I2C1_Block_Read_EERPOM:
   544  000100                     ??_readControls:
   545                           
   546                           ; 1 bytes @ 0x0
   547  000100                     	ds	1
   548  000101                     I2C1_Block_Read_EERPOM@rdAddr:
   549                           	opt stack 0
   550                           
   551                           ; 1 bytes @ 0x1
   552  000101                     	ds	1
   553  000102                     I2C1_Block_Read_EERPOM@memValue:
   554                           	opt stack 0
   555                           
   556                           ; 1 bytes @ 0x2
   557  000102                     	ds	1
   558  000103                     I2C1_Block_Read_EERPOM@dummyWrite:
   559                           	opt stack 0
   560                           
   561                           ; 1 bytes @ 0x3
   562  000103                     	ds	1
   563  000104                     I2C1_Block_Read_EERPOM@n:
   564                           	opt stack 0
   565                           
   566                           ; 2 bytes @ 0x4
   567  000104                     	ds	2
   568  000106                     ??_main:
   569                           
   570                           ; 1 bytes @ 0x6
   571  000106                     	ds	3
   572  000109                     main@prevDry:
   573                           	opt stack 0
   574                           
   575                           ; 2 bytes @ 0x9
   576  000109                     	ds	2
   577  00010B                     main@diff:
   578                           	opt stack 0
   579                           
   580                           ; 2 bytes @ 0xB
   581  00010B                     	ds	2
   582  00010D                     main@dryLevel:
   583                           	opt stack 0
   584                           
   585                           ; 2 bytes @ 0xD
   586  00010D                     	ds	2
   587                           tblptru	equ	0xFF8
   588                           tblptrh	equ	0xFF7
   589                           tblptrl	equ	0xFF6
   590                           tablat	equ	0xFF5
   591                           postinc0	equ	0xFEE
   592                           wreg	equ	0xFE8
   593                           postdec1	equ	0xFE5
   594                           fsr1l	equ	0xFE1
   595                           
   596                           	psect	cstackBANK0
   597  0000FA                     __pcstackBANK0:
   598                           	opt stack 0
   599  0000FA                     ??_startupSequence:
   600  0000FA                     ?_ADC_Read:
   601                           	opt stack 0
   602  0000FA                     ?_absVal:
   603                           	opt stack 0
   604  0000FA                     I2C1_Write_DigiPot@value:
   605                           	opt stack 0
   606  0000FA                     absVal@val:
   607                           	opt stack 0
   608  0000FA                     ADC_Read@channel:
   609                           	opt stack 0
   610  0000FA                     I2C1_Block_Read_EERPOM@slot:
   611                           	opt stack 0
   612                           
   613                           ; 2 bytes @ 0x0
   614  0000FA                     	ds	1
   615  0000FB                     I2C1_Write_DigiPot@wrCommand:
   616                           	opt stack 0
   617                           
   618                           ; 1 bytes @ 0x1
   619  0000FB                     	ds	1
   620  0000FC                     ??_absVal:
   621  0000FC                     ADC_Read@value:
   622                           	opt stack 0
   623  0000FC                     I2C1_Block_Read_EERPOM@bytes:
   624                           	opt stack 0
   625                           
   626                           ; 2 bytes @ 0x2
   627  0000FC                     	ds	2
   628  0000FE                     I2C1_Block_Read_EERPOM@data:
   629                           	opt stack 0
   630                           
   631                           ; 2 bytes @ 0x4
   632  0000FE                     	ds	2
   633                           tblptru	equ	0xFF8
   634                           tblptrh	equ	0xFF7
   635                           tblptrl	equ	0xFF6
   636                           tablat	equ	0xFF5
   637                           postinc0	equ	0xFEE
   638                           wreg	equ	0xFE8
   639                           postdec1	equ	0xFE5
   640                           fsr1l	equ	0xFE1
   641                           
   642                           	psect	cstackCOMRAM
   643  000027                     __pcstackCOMRAM:
   644                           	opt stack 0
   645  000027                     ??_tapLED:
   646  000027                     ?___awdiv:
   647                           	opt stack 0
   648  000027                     ?i2_absVal:
   649                           	opt stack 0
   650  000027                     checkSwitches@flag:
   651                           	opt stack 0
   652  000027                     updatePresetLEDs@psNum:
   653                           	opt stack 0
   654  000027                     I2C1_Page_Write_EEPROM@slot:
   655                           	opt stack 0
   656  000027                     ___awdiv@dividend:
   657                           	opt stack 0
   658  000027                     i2absVal@val:
   659                           	opt stack 0
   660                           
   661                           ; 2 bytes @ 0x0
   662  000027                     	ds	2
   663  000029                     ??i2_absVal:
   664  000029                     I2C1_Page_Write_EEPROM@data:
   665                           	opt stack 0
   666  000029                     sendParam@n:
   667                           	opt stack 0
   668  000029                     ___awdiv@divisor:
   669                           	opt stack 0
   670                           
   671                           ; 2 bytes @ 0x2
   672  000029                     	ds	2
   673  00002B                     ___awdiv@counter:
   674                           	opt stack 0
   675  00002B                     I2C1_Page_Write_EEPROM@bytes:
   676                           	opt stack 0
   677                           
   678                           ; 2 bytes @ 0x4
   679  00002B                     	ds	1
   680  00002C                     ___awdiv@sign:
   681                           	opt stack 0
   682                           
   683                           ; 1 bytes @ 0x5
   684  00002C                     	ds	1
   685  00002D                     ??_I2C1_Page_Write_EEPROM:
   686  00002D                     ___awdiv@quotient:
   687                           	opt stack 0
   688                           
   689                           ; 2 bytes @ 0x6
   690  00002D                     	ds	1
   691  00002E                     I2C1_Page_Write_EEPROM@wrDevAddr:
   692                           	opt stack 0
   693                           
   694                           ; 1 bytes @ 0x7
   695  00002E                     	ds	1
   696  00002F                     ??_processTaps:
   697  00002F                     I2C1_Page_Write_EEPROM@memValue:
   698                           	opt stack 0
   699                           
   700                           ; 1 bytes @ 0x8
   701  00002F                     	ds	1
   702  000030                     I2C1_Page_Write_EEPROM@n:
   703                           	opt stack 0
   704                           
   705                           ; 2 bytes @ 0x9
   706  000030                     	ds	1
   707  000031                     processTaps@tapDiff:
   708                           	opt stack 0
   709                           
   710                           ; 2 bytes @ 0xA
   711  000031                     	ds	2
   712  000033                     ??_highPriorityISR:
   713                           
   714                           ; 1 bytes @ 0xC
   715  000033                     	ds	18
   716                           tblptru	equ	0xFF8
   717                           tblptrh	equ	0xFF7
   718                           tblptrl	equ	0xFF6
   719                           tablat	equ	0xFF5
   720                           postinc0	equ	0xFEE
   721                           wreg	equ	0xFE8
   722                           postdec1	equ	0xFE5
   723                           fsr1l	equ	0xFE1
   724                           
   725 ;;
   726 ;;Main: autosize = 0, tempsize = 3, incstack = 0, save=0
   727 ;;
   728 ;; *************** function _main *****************
   729 ;; Defined at:
   730 ;;		line 210 in file "main.c"
   731 ;; Parameters:    Size  Location     Type
   732 ;;		None
   733 ;; Auto vars:     Size  Location     Type
   734 ;;  dryLevel        2   13[BANK1 ] int 
   735 ;;  diff            2   11[BANK1 ] int 
   736 ;;  prevDry         2    9[BANK1 ] int 
   737 ;; Return value:  Size  Location     Type
   738 ;;                  1    wreg      void 
   739 ;; Registers used:
   740 ;;		wreg, fsr2l, fsr2h, status,2, status,0, cstack
   741 ;; Tracked objects:
   742 ;;		On entry : 0/0
   743 ;;		On exit  : 0/0
   744 ;;		Unchanged: 0/0
   745 ;; Data sizes:     COMRAM   BANK0   BANK1   BANK2   BANK3   BANK4   BANK5   BANK6   BANK7   BANK8   BANK9  BANK10  BANK1
      +1  BANK12  BANK13
   746 ;;      Params:         0       0       0       0       0       0       0       0       0       0       0       0       
      +0       0       0
   747 ;;      Locals:         0       0       6       0       0       0       0       0       0       0       0       0       
      +0       0       0
   748 ;;      Temps:          0       0       3       0       0       0       0       0       0       0       0       0       
      +0       0       0
   749 ;;      Totals:         0       0       9       0       0       0       0       0       0       0       0       0       
      +0       0       0
   750 ;;Total ram usage:        9 bytes
   751 ;; Hardware stack levels required when called:    6
   752 ;; This function calls:
   753 ;;		_ADC_Read
   754 ;;		_I2C1_Block_Read_EERPOM
   755 ;;		_I2C1_Write_DigiPot
   756 ;;		_absVal
   757 ;;		_readControls
   758 ;;		_systemInit
   759 ;; This function is called by:
   760 ;;		Startup code after reset
   761 ;; This function uses a non-reentrant model
   762 ;;
   763                           
   764                           	psect	text0
   765  000826                     __ptext0:
   766                           	opt stack 0
   767  000826                     _main:
   768                           	opt stack 25
   769                           
   770                           ;main.c: 213: int dryLevel = 0;
   771                           
   772                           ;incstack = 0
   773  000826  0E00               	movlw	0
   774  000828  0101               	movlb	1	; () banked
   775  00082A  6F0E               	movwf	(main@dryLevel+1)& (0+255),b
   776  00082C  0E00               	movlw	0
   777  00082E  6F0D               	movwf	main@dryLevel& (0+255),b
   778                           
   779                           ;main.c: 214: int prevDry = 0;
   780  000830  0E00               	movlw	0
   781  000832  0101               	movlb	1	; () banked
   782  000834  6F0A               	movwf	(main@prevDry+1)& (0+255),b
   783  000836  0E00               	movlw	0
   784  000838  6F09               	movwf	main@prevDry& (0+255),b
   785                           
   786                           ;main.c: 215: int diff = 0;
   787  00083A  0E00               	movlw	0
   788  00083C  0101               	movlb	1	; () banked
   789  00083E  6F0C               	movwf	(main@diff+1)& (0+255),b
   790  000840  0E00               	movlw	0
   791  000842  6F0B               	movwf	main@diff& (0+255),b
   792                           
   793                           ; BSR set to: 1
   794                           ;main.c: 217: systemInit();
   795  000844  EC14  F009         	call	_systemInit	;wreg free
   796                           
   797                           ;main.c: 219: T4CONbits.TMR4ON = 1;
   798  000848  010F               	movlb	15	; () banked
   799  00084A  8504               	bsf	4,2,b	;volatile
   800                           
   801                           ; BSR set to: 15
   802                           ;main.c: 221: I2C1_Write_DigiPot(0);
   803  00084C  0E00               	movlw	0
   804  00084E  EC59  F009         	call	_I2C1_Write_DigiPot
   805  000852                     l152:
   806                           
   807                           ;main.c: 224: {
   808                           ;main.c: 225: if (preset == 1)
   809  000852  0415               	decf	_preset,w,c
   810  000854  1016               	iorwf	_preset+1,w,c
   811  000856  A4D8               	btfss	status,2,c
   812  000858  D00D               	goto	l153
   813                           
   814                           ;main.c: 226: {
   815                           ;main.c: 227: parameter[0] = presetParams[0];
   816  00085A  C0DE  F0AE         	movff	_presetParams,_parameter
   817  00085E  C0DF  F0AF         	movff	_presetParams+1,_parameter+1
   818                           
   819                           ;main.c: 228: parameter[1] = presetParams[1];
   820  000862  C0E0  F0B0         	movff	_presetParams+2,_parameter+2
   821  000866  C0E1  F0B1         	movff	_presetParams+3,_parameter+3
   822                           
   823                           ;main.c: 229: parameter[2] = presetParams[2];
   824  00086A  C0E2  F0B2         	movff	_presetParams+4,_parameter+4
   825  00086E  C0E3  F0B3         	movff	_presetParams+5,_parameter+5
   826                           
   827                           ;main.c: 230: }
   828  000872  D069               	goto	l157
   829  000874                     l153:
   830                           
   831                           ;main.c: 231: else if (preset == 3)
   832  000874  0E03               	movlw	3
   833  000876  1815               	xorwf	_preset,w,c
   834  000878  1016               	iorwf	_preset+1,w,c
   835  00087A  A4D8               	btfss	status,2,c
   836  00087C  D013               	goto	l155
   837                           
   838                           ;main.c: 232: {
   839                           ;main.c: 233: I2C1_Block_Read_EERPOM(3, 12, parameter);
   840  00087E  0E00               	movlw	0
   841  000880  0100               	movlb	0	; () banked
   842  000882  6FFB               	movwf	(I2C1_Block_Read_EERPOM@slot+1)& (0+255),b
   843  000884  0E03               	movlw	3
   844  000886  6FFA               	movwf	I2C1_Block_Read_EERPOM@slot& (0+255),b
   845  000888  0E00               	movlw	0
   846  00088A  0100               	movlb	0	; () banked
   847  00088C  6FFD               	movwf	(I2C1_Block_Read_EERPOM@bytes+1)& (0+255),b
   848  00088E  0E0C               	movlw	12
   849  000890  6FFC               	movwf	I2C1_Block_Read_EERPOM@bytes& (0+255),b
   850  000892  0EAE               	movlw	low _parameter
   851  000894  0100               	movlb	0	; () banked
   852  000896  6FFE               	movwf	I2C1_Block_Read_EERPOM@data& (0+255),b
   853  000898  0E00               	movlw	high _parameter
   854  00089A  0100               	movlb	0	; () banked
   855  00089C  6FFF               	movwf	(I2C1_Block_Read_EERPOM@data+1)& (0+255),b
   856  00089E  ECC2  F005         	call	_I2C1_Block_Read_EERPOM	;wreg free
   857                           
   858                           ;main.c: 234: }
   859  0008A2  D051               	goto	l157
   860  0008A4                     l155:
   861                           
   862                           ;main.c: 235: else
   863                           ;main.c: 236: {
   864                           ;main.c: 237: readControls();
   865  0008A4  EC19  F003         	call	_readControls	;wreg free
   866                           
   867                           ;main.c: 238: dryLevel = ADC_Read(8);
   868  0008A8  0E00               	movlw	0
   869  0008AA  0100               	movlb	0	; () banked
   870  0008AC  6FFB               	movwf	(ADC_Read@channel+1)& (0+255),b
   871  0008AE  0E08               	movlw	8
   872  0008B0  6FFA               	movwf	ADC_Read@channel& (0+255),b
   873  0008B2  ECAF  F004         	call	_ADC_Read	;wreg free
   874  0008B6  C0FA  F10D         	movff	?_ADC_Read,main@dryLevel
   875  0008BA  C0FB  F10E         	movff	?_ADC_Read+1,main@dryLevel+1
   876                           
   877                           ;main.c: 239: dryLevel = dryLevel>>5;
   878  0008BE  C10D  F106         	movff	main@dryLevel,??_main
   879  0008C2  C10E  F107         	movff	main@dryLevel+1,??_main+1
   880  0008C6  0E05               	movlw	5
   881  0008C8  0101               	movlb	1	; () banked
   882  0008CA  6F08               	movwf	(??_main+2)& (0+255),b
   883  0008CC                     u3695:
   884  0008CC  0101               	movlb	1	; () banked
   885  0008CE  3507               	rlcf	(??_main+1)& (0+255),w,b
   886  0008D0  3307               	rrcf	(??_main+1)& (0+255),f,b
   887  0008D2  3306               	rrcf	??_main& (0+255),f,b
   888  0008D4  0101               	movlb	1	; () banked
   889  0008D6  2F08               	decfsz	(??_main+2)& (0+255),f,b
   890  0008D8  D7F9               	goto	u3695
   891  0008DA  C106  F10D         	movff	??_main,main@dryLevel
   892  0008DE  C107  F10E         	movff	??_main+1,main@dryLevel+1
   893                           
   894                           ; BSR set to: 1
   895                           ;main.c: 240: diff = dryLevel - prevDry;
   896  0008E2  C109  F106         	movff	main@prevDry,??_main
   897  0008E6  C10A  F107         	movff	main@prevDry+1,??_main+1
   898  0008EA  0101               	movlb	1	; () banked
   899  0008EC  1F06               	comf	??_main& (0+255),f,b
   900  0008EE  1F07               	comf	(??_main+1)& (0+255),f,b
   901  0008F0  4B06               	infsnz	??_main& (0+255),f,b
   902  0008F2  2B07               	incf	(??_main+1)& (0+255),f,b
   903  0008F4  0101               	movlb	1	; () banked
   904  0008F6  510D               	movf	main@dryLevel& (0+255),w,b
   905  0008F8  0101               	movlb	1	; () banked
   906  0008FA  2506               	addwf	??_main& (0+255),w,b
   907  0008FC  0101               	movlb	1	; () banked
   908  0008FE  6F0B               	movwf	main@diff& (0+255),b
   909  000900  0101               	movlb	1	; () banked
   910  000902  510E               	movf	(main@dryLevel+1)& (0+255),w,b
   911  000904  0101               	movlb	1	; () banked
   912  000906  2107               	addwfc	(??_main+1)& (0+255),w,b
   913  000908  0101               	movlb	1	; () banked
   914  00090A  6F0C               	movwf	(main@diff+1)& (0+255),b
   915                           
   916                           ;main.c: 241: diff = absVal(diff);
   917  00090C  C10B  F0FA         	movff	main@diff,absVal@val
   918  000910  C10C  F0FB         	movff	main@diff+1,absVal@val+1
   919  000914  ECAC  F009         	call	_absVal	;wreg free
   920  000918  C0FA  F10B         	movff	?_absVal,main@diff
   921  00091C  C0FB  F10C         	movff	?_absVal+1,main@diff+1
   922                           
   923                           ;main.c: 243: if (diff >= 2)
   924  000920  0101               	movlb	1	; () banked
   925  000922  BF0C               	btfsc	(main@diff+1)& (0+255),7,b
   926  000924  D010               	goto	l157
   927  000926  0101               	movlb	1	; () banked
   928  000928  510C               	movf	(main@diff+1)& (0+255),w,b
   929  00092A  E105               	bnz	u3700
   930  00092C  0E02               	movlw	2
   931  00092E  0101               	movlb	1	; () banked
   932  000930  5D0B               	subwf	main@diff& (0+255),w,b
   933  000932  A0D8               	btfss	status,0,c
   934  000934  D008               	goto	l157
   935  000936                     u3700:
   936                           
   937                           ; BSR set to: 1
   938                           ;main.c: 244: {
   939                           ;main.c: 245: I2C1_Write_DigiPot(dryLevel);
   940  000936  0101               	movlb	1	; () banked
   941  000938  510D               	movf	main@dryLevel& (0+255),w,b
   942  00093A  EC59  F009         	call	_I2C1_Write_DigiPot
   943                           
   944                           ;main.c: 246: prevDry = dryLevel;
   945  00093E  C10D  F109         	movff	main@dryLevel,main@prevDry
   946  000942  C10E  F10A         	movff	main@dryLevel+1,main@prevDry+1
   947  000946                     l157:
   948                           
   949                           ;main.c: 247: }
   950                           ;main.c: 248: }
   951                           ;main.c: 251: if (!setupComplete)
   952  000946  0100               	movlb	0	; () banked
   953  000948  5188               	movf	_setupComplete& (0+255),w,b
   954  00094A  0100               	movlb	0	; () banked
   955  00094C  1189               	iorwf	(_setupComplete+1)& (0+255),w,b
   956  00094E  A4D8               	btfss	status,2,c
   957  000950  D780               	goto	l152
   958                           
   959                           ; BSR set to: 0
   960                           ;main.c: 252: {
   961                           ;main.c: 253: setupComplete = 1;
   962  000952  0E00               	movlw	0
   963  000954  0100               	movlb	0	; () banked
   964  000956  6F89               	movwf	(_setupComplete+1)& (0+255),b
   965  000958  0E01               	movlw	1
   966  00095A  6F88               	movwf	_setupComplete& (0+255),b
   967                           
   968                           ; BSR set to: 0
   969                           
   970                           ; BSR set to: 0
   971  00095C  D77A               	goto	l152
   972  00095E                     __end_of_main:
   973                           	opt stack 0
   974                           tblptru	equ	0xFF8
   975                           tblptrh	equ	0xFF7
   976                           tblptrl	equ	0xFF6
   977                           tablat	equ	0xFF5
   978                           postinc0	equ	0xFEE
   979                           wreg	equ	0xFE8
   980                           postdec1	equ	0xFE5
   981                           fsr1l	equ	0xFE1
   982                           status	equ	0xFD8
   983                           
   984 ;; *************** function _systemInit *****************
   985 ;; Defined at:
   986 ;;		line 338 in file "systemConfig.c"
   987 ;; Parameters:    Size  Location     Type
   988 ;;		None
   989 ;; Auto vars:     Size  Location     Type
   990 ;;		None
   991 ;; Return value:  Size  Location     Type
   992 ;;                  1    wreg      void 
   993 ;; Registers used:
   994 ;;		wreg, status,2, status,0, cstack
   995 ;; Tracked objects:
   996 ;;		On entry : 0/0
   997 ;;		On exit  : 0/0
   998 ;;		Unchanged: 0/0
   999 ;; Data sizes:     COMRAM   BANK0   BANK1   BANK2   BANK3   BANK4   BANK5   BANK6   BANK7   BANK8   BANK9  BANK10  BANK1
      +1  BANK12  BANK13
  1000 ;;      Params:         0       0       0       0       0       0       0       0       0       0       0       0       
      +0       0       0
  1001 ;;      Locals:         0       0       0       0       0       0       0       0       0       0       0       0       
      +0       0       0
  1002 ;;      Temps:          0       0       0       0       0       0       0       0       0       0       0       0       
      +0       0       0
  1003 ;;      Totals:         0       0       0       0       0       0       0       0       0       0       0       0       
      +0       0       0
  1004 ;;Total ram usage:        0 bytes
  1005 ;; Hardware stack levels used:    1
  1006 ;; Hardware stack levels required when called:    5
  1007 ;; This function calls:
  1008 ;;		_bypassSetup
  1009 ;;		_clockSwitch
  1010 ;;		_defaultLED
  1011 ;;		_interfaceInit
  1012 ;;		_interruptInit
  1013 ;;		_killLEDs
  1014 ;;		_mapPeripheralPins
  1015 ;;		_setupADC
  1016 ;;		_setupI2C1
  1017 ;;		_setupI2C2
  1018 ;;		_setupTMR0
  1019 ;;		_setupTMR1
  1020 ;;		_setupTMR2
  1021 ;;		_setupTMR4
  1022 ;;		_startupSequence
  1023 ;; This function is called by:
  1024 ;;		_main
  1025 ;; This function uses a non-reentrant model
  1026 ;;
  1027                           
  1028                           	psect	text1
  1029  001228                     __ptext1:
  1030                           	opt stack 0
  1031  001228                     _systemInit:
  1032                           	opt stack 25
  1033                           
  1034                           ;systemConfig.c: 340: clockSwitch();
  1035                           
  1036                           ; BSR set to: 0
  1037                           ;incstack = 0
  1038  001228  ECD6  F009         	call	_clockSwitch	;wreg free
  1039                           
  1040                           ;systemConfig.c: 342: setupTMR0();
  1041  00122C  EC05  F00A         	call	_setupTMR0	;wreg free
  1042                           
  1043                           ;systemConfig.c: 343: setupTMR1();
  1044  001230  EC30  F00A         	call	_setupTMR1	;wreg free
  1045                           
  1046                           ;systemConfig.c: 344: setupTMR2();
  1047  001234  EC28  F00A         	call	_setupTMR2	;wreg free
  1048                           
  1049                           ;systemConfig.c: 345: setupTMR4();
  1050  001238  EC1D  F00A         	call	_setupTMR4	;wreg free
  1051                           
  1052                           ;systemConfig.c: 347: setupI2C1();
  1053  00123C  ECF8  F009         	call	_setupI2C1	;wreg free
  1054                           
  1055                           ;systemConfig.c: 348: setupI2C2();
  1056  001240  EC37  F009         	call	_setupI2C2	;wreg free
  1057                           
  1058                           ;systemConfig.c: 350: setupADC();
  1059  001244  EC1A  F007         	call	_setupADC	;wreg free
  1060                           
  1061                           ;systemConfig.c: 353: mapPeripheralPins();
  1062  001248  ECC2  F008         	call	_mapPeripheralPins	;wreg free
  1063                           
  1064                           ;systemConfig.c: 354: interfaceInit();
  1065  00124C  EC37  F006         	call	_interfaceInit	;wreg free
  1066                           
  1067                           ;systemConfig.c: 355: bypassSetup();
  1068  001250  EC37  F00A         	call	_bypassSetup	;wreg free
  1069                           
  1070                           ;systemConfig.c: 356: killLEDs();
  1071  001254  ECE8  F009         	call	_killLEDs	;wreg free
  1072                           
  1073                           ;systemConfig.c: 357: startupSequence();
  1074  001258  ECCE  F001         	call	_startupSequence	;wreg free
  1075                           
  1076                           ;systemConfig.c: 358: defaultLED();
  1077  00125C  EC11  F00A         	call	_defaultLED	;wreg free
  1078                           
  1079                           ;systemConfig.c: 359: killLEDs();
  1080  001260  ECE8  F009         	call	_killLEDs	;wreg free
  1081                           
  1082                           ;systemConfig.c: 360: bypassSetup();
  1083  001264  EC37  F00A         	call	_bypassSetup	;wreg free
  1084                           
  1085                           ;systemConfig.c: 361: interruptInit();
  1086  001268  EC94  F009         	call	_interruptInit	;wreg free
  1087  00126C  0012               	return		;funcret
  1088  00126E                     __end_of_systemInit:
  1089                           	opt stack 0
  1090                           tblptru	equ	0xFF8
  1091                           tblptrh	equ	0xFF7
  1092                           tblptrl	equ	0xFF6
  1093                           tablat	equ	0xFF5
  1094                           postinc0	equ	0xFEE
  1095                           wreg	equ	0xFE8
  1096                           postdec1	equ	0xFE5
  1097                           fsr1l	equ	0xFE1
  1098                           status	equ	0xFD8
  1099                           
  1100 ;; *************** function _startupSequence *****************
  1101 ;; Defined at:
  1102 ;;		line 450 in file "hardware.c"
  1103 ;; Parameters:    Size  Location     Type
  1104 ;;		None
  1105 ;; Auto vars:     Size  Location     Type
  1106 ;;		None
  1107 ;; Return value:  Size  Location     Type
  1108 ;;                  1    wreg      void 
  1109 ;; Registers used:
  1110 ;;		wreg
  1111 ;; Tracked objects:
  1112 ;;		On entry : 0/0
  1113 ;;		On exit  : 0/0
  1114 ;;		Unchanged: 0/0
  1115 ;; Data sizes:     COMRAM   BANK0   BANK1   BANK2   BANK3   BANK4   BANK5   BANK6   BANK7   BANK8   BANK9  BANK10  BANK1
      +1  BANK12  BANK13
  1116 ;;      Params:         0       0       0       0       0       0       0       0       0       0       0       0       
      +0       0       0
  1117 ;;      Locals:         0       0       0       0       0       0       0       0       0       0       0       0       
      +0       0       0
  1118 ;;      Temps:          0       2       0       0       0       0       0       0       0       0       0       0       
      +0       0       0
  1119 ;;      Totals:         0       2       0       0       0       0       0       0       0       0       0       0       
      +0       0       0
  1120 ;;Total ram usage:        2 bytes
  1121 ;; Hardware stack levels used:    1
  1122 ;; Hardware stack levels required when called:    4
  1123 ;; This function calls:
  1124 ;;		Nothing
  1125 ;; This function is called by:
  1126 ;;		_systemInit
  1127 ;; This function uses a non-reentrant model
  1128 ;;
  1129                           
  1130                           	psect	text2
  1131  00039C                     __ptext2:
  1132                           	opt stack 0
  1133  00039C                     _startupSequence:
  1134                           	opt stack 25
  1135                           
  1136                           ;hardware.c: 455: LATD0 = 1;
  1137                           
  1138                           ;incstack = 0
  1139  00039C  808C               	bsf	3980,0,c	;volatile
  1140                           
  1141                           ;hardware.c: 456: _delay((unsigned long)((75)*(32000000/4000.0)));
  1142  00039E  0E04               	movlw	4
  1143  0003A0  0100               	movlb	0	; () banked
  1144  0003A2  6FFB               	movwf	(??_startupSequence+1)& (0+255),b
  1145  0003A4  0E0C               	movlw	12
  1146  0003A6  0100               	movlb	0	; () banked
  1147  0003A8  6FFA               	movwf	??_startupSequence& (0+255),b
  1148  0003AA  0E33               	movlw	51
  1149  0003AC                     u3727:
  1150  0003AC  2EE8               	decfsz	wreg,f,c
  1151  0003AE  D7FE               	bra	u3727
  1152  0003B0  2FFA               	decfsz	??_startupSequence& (0+255),f,b
  1153  0003B2  D7FC               	bra	u3727
  1154  0003B4  2FFB               	decfsz	(??_startupSequence+1)& (0+255),f,b
  1155  0003B6  D7FA               	bra	u3727
  1156  0003B8  D000               	nop2	
  1157                           
  1158                           ;hardware.c: 457: LATE7 = 1;
  1159  0003BA  8E8D               	bsf	3981,7,c	;volatile
  1160                           
  1161                           ;hardware.c: 458: _delay((unsigned long)((75)*(32000000/4000.0)));
  1162  0003BC  0E04               	movlw	4
  1163  0003BE  0100               	movlb	0	; () banked
  1164  0003C0  6FFB               	movwf	(??_startupSequence+1)& (0+255),b
  1165  0003C2  0E0C               	movlw	12
  1166  0003C4  0100               	movlb	0	; () banked
  1167  0003C6  6FFA               	movwf	??_startupSequence& (0+255),b
  1168  0003C8  0E33               	movlw	51
  1169  0003CA                     u3737:
  1170  0003CA  2EE8               	decfsz	wreg,f,c
  1171  0003CC  D7FE               	bra	u3737
  1172  0003CE  2FFA               	decfsz	??_startupSequence& (0+255),f,b
  1173  0003D0  D7FC               	bra	u3737
  1174  0003D2  2FFB               	decfsz	(??_startupSequence+1)& (0+255),f,b
  1175  0003D4  D7FA               	bra	u3737
  1176  0003D6  D000               	nop2	
  1177                           
  1178                           ;hardware.c: 459: LATE5 = 1;
  1179  0003D8  8A8D               	bsf	3981,5,c	;volatile
  1180                           
  1181                           ;hardware.c: 460: _delay((unsigned long)((75)*(32000000/4000.0)));
  1182  0003DA  0E04               	movlw	4
  1183  0003DC  0100               	movlb	0	; () banked
  1184  0003DE  6FFB               	movwf	(??_startupSequence+1)& (0+255),b
  1185  0003E0  0E0C               	movlw	12
  1186  0003E2  0100               	movlb	0	; () banked
  1187  0003E4  6FFA               	movwf	??_startupSequence& (0+255),b
  1188  0003E6  0E33               	movlw	51
  1189  0003E8                     u3747:
  1190  0003E8  2EE8               	decfsz	wreg,f,c
  1191  0003EA  D7FE               	bra	u3747
  1192  0003EC  2FFA               	decfsz	??_startupSequence& (0+255),f,b
  1193  0003EE  D7FC               	bra	u3747
  1194  0003F0  2FFB               	decfsz	(??_startupSequence+1)& (0+255),f,b
  1195  0003F2  D7FA               	bra	u3747
  1196  0003F4  D000               	nop2	
  1197                           
  1198                           ;hardware.c: 461: LATE4 = 1;
  1199  0003F6  888D               	bsf	3981,4,c	;volatile
  1200                           
  1201                           ;hardware.c: 462: _delay((unsigned long)((75)*(32000000/4000.0)));
  1202  0003F8  0E04               	movlw	4
  1203  0003FA  0100               	movlb	0	; () banked
  1204  0003FC  6FFB               	movwf	(??_startupSequence+1)& (0+255),b
  1205  0003FE  0E0C               	movlw	12
  1206  000400  0100               	movlb	0	; () banked
  1207  000402  6FFA               	movwf	??_startupSequence& (0+255),b
  1208  000404  0E33               	movlw	51
  1209  000406                     u3757:
  1210  000406  2EE8               	decfsz	wreg,f,c
  1211  000408  D7FE               	bra	u3757
  1212  00040A  2FFA               	decfsz	??_startupSequence& (0+255),f,b
  1213  00040C  D7FC               	bra	u3757
  1214  00040E  2FFB               	decfsz	(??_startupSequence+1)& (0+255),f,b
  1215  000410  D7FA               	bra	u3757
  1216  000412  D000               	nop2	
  1217                           
  1218                           ;hardware.c: 463: LATH2 = 1;
  1219  000414  8490               	bsf	3984,2,c	;volatile
  1220                           
  1221                           ;hardware.c: 464: _delay((unsigned long)((75)*(32000000/4000.0)));
  1222  000416  0E04               	movlw	4
  1223  000418  0100               	movlb	0	; () banked
  1224  00041A  6FFB               	movwf	(??_startupSequence+1)& (0+255),b
  1225  00041C  0E0C               	movlw	12
  1226  00041E  0100               	movlb	0	; () banked
  1227  000420  6FFA               	movwf	??_startupSequence& (0+255),b
  1228  000422  0E33               	movlw	51
  1229  000424                     u3767:
  1230  000424  2EE8               	decfsz	wreg,f,c
  1231  000426  D7FE               	bra	u3767
  1232  000428  2FFA               	decfsz	??_startupSequence& (0+255),f,b
  1233  00042A  D7FC               	bra	u3767
  1234  00042C  2FFB               	decfsz	(??_startupSequence+1)& (0+255),f,b
  1235  00042E  D7FA               	bra	u3767
  1236  000430  D000               	nop2	
  1237                           
  1238                           ;hardware.c: 465: LATH2 = 0;
  1239  000432  9490               	bcf	3984,2,c	;volatile
  1240                           
  1241                           ;hardware.c: 466: _delay((unsigned long)((75)*(32000000/4000.0)));
  1242  000434  0E04               	movlw	4
  1243  000436  0100               	movlb	0	; () banked
  1244  000438  6FFB               	movwf	(??_startupSequence+1)& (0+255),b
  1245  00043A  0E0C               	movlw	12
  1246  00043C  0100               	movlb	0	; () banked
  1247  00043E  6FFA               	movwf	??_startupSequence& (0+255),b
  1248  000440  0E33               	movlw	51
  1249  000442                     u3777:
  1250  000442  2EE8               	decfsz	wreg,f,c
  1251  000444  D7FE               	bra	u3777
  1252  000446  2FFA               	decfsz	??_startupSequence& (0+255),f,b
  1253  000448  D7FC               	bra	u3777
  1254  00044A  2FFB               	decfsz	(??_startupSequence+1)& (0+255),f,b
  1255  00044C  D7FA               	bra	u3777
  1256  00044E  D000               	nop2	
  1257                           
  1258                           ;hardware.c: 467: LATE4 = 0;
  1259  000450  988D               	bcf	3981,4,c	;volatile
  1260                           
  1261                           ;hardware.c: 468: _delay((unsigned long)((75)*(32000000/4000.0)));
  1262  000452  0E04               	movlw	4
  1263  000454  0100               	movlb	0	; () banked
  1264  000456  6FFB               	movwf	(??_startupSequence+1)& (0+255),b
  1265  000458  0E0C               	movlw	12
  1266  00045A  0100               	movlb	0	; () banked
  1267  00045C  6FFA               	movwf	??_startupSequence& (0+255),b
  1268  00045E  0E33               	movlw	51
  1269  000460                     u3787:
  1270  000460  2EE8               	decfsz	wreg,f,c
  1271  000462  D7FE               	bra	u3787
  1272  000464  2FFA               	decfsz	??_startupSequence& (0+255),f,b
  1273  000466  D7FC               	bra	u3787
  1274  000468  2FFB               	decfsz	(??_startupSequence+1)& (0+255),f,b
  1275  00046A  D7FA               	bra	u3787
  1276  00046C  D000               	nop2	
  1277                           
  1278                           ;hardware.c: 469: LATE5 = 0;
  1279  00046E  9A8D               	bcf	3981,5,c	;volatile
  1280                           
  1281                           ;hardware.c: 470: _delay((unsigned long)((75)*(32000000/4000.0)));
  1282  000470  0E04               	movlw	4
  1283  000472  0100               	movlb	0	; () banked
  1284  000474  6FFB               	movwf	(??_startupSequence+1)& (0+255),b
  1285  000476  0E0C               	movlw	12
  1286  000478  0100               	movlb	0	; () banked
  1287  00047A  6FFA               	movwf	??_startupSequence& (0+255),b
  1288  00047C  0E33               	movlw	51
  1289  00047E                     u3797:
  1290  00047E  2EE8               	decfsz	wreg,f,c
  1291  000480  D7FE               	bra	u3797
  1292  000482  2FFA               	decfsz	??_startupSequence& (0+255),f,b
  1293  000484  D7FC               	bra	u3797
  1294  000486  2FFB               	decfsz	(??_startupSequence+1)& (0+255),f,b
  1295  000488  D7FA               	bra	u3797
  1296  00048A  D000               	nop2	
  1297                           
  1298                           ;hardware.c: 471: LATE7 = 0;
  1299  00048C  9E8D               	bcf	3981,7,c	;volatile
  1300                           
  1301                           ;hardware.c: 472: _delay((unsigned long)((75)*(32000000/4000.0)));
  1302  00048E  0E04               	movlw	4
  1303  000490  0100               	movlb	0	; () banked
  1304  000492  6FFB               	movwf	(??_startupSequence+1)& (0+255),b
  1305  000494  0E0C               	movlw	12
  1306  000496  0100               	movlb	0	; () banked
  1307  000498  6FFA               	movwf	??_startupSequence& (0+255),b
  1308  00049A  0E33               	movlw	51
  1309  00049C                     u3807:
  1310  00049C  2EE8               	decfsz	wreg,f,c
  1311  00049E  D7FE               	bra	u3807
  1312  0004A0  2FFA               	decfsz	??_startupSequence& (0+255),f,b
  1313  0004A2  D7FC               	bra	u3807
  1314  0004A4  2FFB               	decfsz	(??_startupSequence+1)& (0+255),f,b
  1315  0004A6  D7FA               	bra	u3807
  1316  0004A8  D000               	nop2	
  1317                           
  1318                           ;hardware.c: 473: LATD0 = 0;
  1319  0004AA  908C               	bcf	3980,0,c	;volatile
  1320                           
  1321                           ;hardware.c: 474: _delay((unsigned long)((75)*(32000000/4000.0)));
  1322  0004AC  0E04               	movlw	4
  1323  0004AE  0100               	movlb	0	; () banked
  1324  0004B0  6FFB               	movwf	(??_startupSequence+1)& (0+255),b
  1325  0004B2  0E0C               	movlw	12
  1326  0004B4  0100               	movlb	0	; () banked
  1327  0004B6  6FFA               	movwf	??_startupSequence& (0+255),b
  1328  0004B8  0E33               	movlw	51
  1329  0004BA                     u3817:
  1330  0004BA  2EE8               	decfsz	wreg,f,c
  1331  0004BC  D7FE               	bra	u3817
  1332  0004BE  2FFA               	decfsz	??_startupSequence& (0+255),f,b
  1333  0004C0  D7FC               	bra	u3817
  1334  0004C2  2FFB               	decfsz	(??_startupSequence+1)& (0+255),f,b
  1335  0004C4  D7FA               	bra	u3817
  1336  0004C6  D000               	nop2	
  1337                           
  1338                           ;hardware.c: 477: LATH7 = 1;
  1339  0004C8  8E90               	bsf	3984,7,c	;volatile
  1340                           
  1341                           ;hardware.c: 478: _delay((unsigned long)((75)*(32000000/4000.0)));
  1342  0004CA  0E04               	movlw	4
  1343  0004CC  0100               	movlb	0	; () banked
  1344  0004CE  6FFB               	movwf	(??_startupSequence+1)& (0+255),b
  1345  0004D0  0E0C               	movlw	12
  1346  0004D2  0100               	movlb	0	; () banked
  1347  0004D4  6FFA               	movwf	??_startupSequence& (0+255),b
  1348  0004D6  0E33               	movlw	51
  1349  0004D8                     u3827:
  1350  0004D8  2EE8               	decfsz	wreg,f,c
  1351  0004DA  D7FE               	bra	u3827
  1352  0004DC  2FFA               	decfsz	??_startupSequence& (0+255),f,b
  1353  0004DE  D7FC               	bra	u3827
  1354  0004E0  2FFB               	decfsz	(??_startupSequence+1)& (0+255),f,b
  1355  0004E2  D7FA               	bra	u3827
  1356  0004E4  D000               	nop2	
  1357                           
  1358                           ;hardware.c: 479: LATF2 = 1;
  1359  0004E6  848E               	bsf	3982,2,c	;volatile
  1360                           
  1361                           ;hardware.c: 480: _delay((unsigned long)((75)*(32000000/4000.0)));
  1362  0004E8  0E04               	movlw	4
  1363  0004EA  0100               	movlb	0	; () banked
  1364  0004EC  6FFB               	movwf	(??_startupSequence+1)& (0+255),b
  1365  0004EE  0E0C               	movlw	12
  1366  0004F0  0100               	movlb	0	; () banked
  1367  0004F2  6FFA               	movwf	??_startupSequence& (0+255),b
  1368  0004F4  0E33               	movlw	51
  1369  0004F6                     u3837:
  1370  0004F6  2EE8               	decfsz	wreg,f,c
  1371  0004F8  D7FE               	bra	u3837
  1372  0004FA  2FFA               	decfsz	??_startupSequence& (0+255),f,b
  1373  0004FC  D7FC               	bra	u3837
  1374  0004FE  2FFB               	decfsz	(??_startupSequence+1)& (0+255),f,b
  1375  000500  D7FA               	bra	u3837
  1376  000502  D000               	nop2	
  1377                           
  1378                           ;hardware.c: 481: LATF5 = 1;
  1379  000504  8A8E               	bsf	3982,5,c	;volatile
  1380                           
  1381                           ;hardware.c: 482: _delay((unsigned long)((75)*(32000000/4000.0)));
  1382  000506  0E04               	movlw	4
  1383  000508  0100               	movlb	0	; () banked
  1384  00050A  6FFB               	movwf	(??_startupSequence+1)& (0+255),b
  1385  00050C  0E0C               	movlw	12
  1386  00050E  0100               	movlb	0	; () banked
  1387  000510  6FFA               	movwf	??_startupSequence& (0+255),b
  1388  000512  0E33               	movlw	51
  1389  000514                     u3847:
  1390  000514  2EE8               	decfsz	wreg,f,c
  1391  000516  D7FE               	bra	u3847
  1392  000518  2FFA               	decfsz	??_startupSequence& (0+255),f,b
  1393  00051A  D7FC               	bra	u3847
  1394  00051C  2FFB               	decfsz	(??_startupSequence+1)& (0+255),f,b
  1395  00051E  D7FA               	bra	u3847
  1396  000520  D000               	nop2	
  1397                           
  1398                           ;hardware.c: 483: LATF6 = 1;
  1399  000522  8C8E               	bsf	3982,6,c	;volatile
  1400                           
  1401                           ;hardware.c: 484: _delay((unsigned long)((75)*(32000000/4000.0)));
  1402  000524  0E04               	movlw	4
  1403  000526  0100               	movlb	0	; () banked
  1404  000528  6FFB               	movwf	(??_startupSequence+1)& (0+255),b
  1405  00052A  0E0C               	movlw	12
  1406  00052C  0100               	movlb	0	; () banked
  1407  00052E  6FFA               	movwf	??_startupSequence& (0+255),b
  1408  000530  0E33               	movlw	51
  1409  000532                     u3857:
  1410  000532  2EE8               	decfsz	wreg,f,c
  1411  000534  D7FE               	bra	u3857
  1412  000536  2FFA               	decfsz	??_startupSequence& (0+255),f,b
  1413  000538  D7FC               	bra	u3857
  1414  00053A  2FFB               	decfsz	(??_startupSequence+1)& (0+255),f,b
  1415  00053C  D7FA               	bra	u3857
  1416  00053E  D000               	nop2	
  1417                           
  1418                           ;hardware.c: 485: LATG4 = 1;
  1419  000540  888F               	bsf	3983,4,c	;volatile
  1420                           
  1421                           ;hardware.c: 486: _delay((unsigned long)((75)*(32000000/4000.0)));
  1422  000542  0E04               	movlw	4
  1423  000544  0100               	movlb	0	; () banked
  1424  000546  6FFB               	movwf	(??_startupSequence+1)& (0+255),b
  1425  000548  0E0C               	movlw	12
  1426  00054A  0100               	movlb	0	; () banked
  1427  00054C  6FFA               	movwf	??_startupSequence& (0+255),b
  1428  00054E  0E33               	movlw	51
  1429  000550                     u3867:
  1430  000550  2EE8               	decfsz	wreg,f,c
  1431  000552  D7FE               	bra	u3867
  1432  000554  2FFA               	decfsz	??_startupSequence& (0+255),f,b
  1433  000556  D7FC               	bra	u3867
  1434  000558  2FFB               	decfsz	(??_startupSequence+1)& (0+255),f,b
  1435  00055A  D7FA               	bra	u3867
  1436  00055C  D000               	nop2	
  1437                           
  1438                           ;hardware.c: 487: LATH0 = 1;
  1439  00055E  8090               	bsf	3984,0,c	;volatile
  1440                           
  1441                           ;hardware.c: 488: _delay((unsigned long)((75)*(32000000/4000.0)));
  1442  000560  0E04               	movlw	4
  1443  000562  0100               	movlb	0	; () banked
  1444  000564  6FFB               	movwf	(??_startupSequence+1)& (0+255),b
  1445  000566  0E0C               	movlw	12
  1446  000568  0100               	movlb	0	; () banked
  1447  00056A  6FFA               	movwf	??_startupSequence& (0+255),b
  1448  00056C  0E33               	movlw	51
  1449  00056E                     u3877:
  1450  00056E  2EE8               	decfsz	wreg,f,c
  1451  000570  D7FE               	bra	u3877
  1452  000572  2FFA               	decfsz	??_startupSequence& (0+255),f,b
  1453  000574  D7FC               	bra	u3877
  1454  000576  2FFB               	decfsz	(??_startupSequence+1)& (0+255),f,b
  1455  000578  D7FA               	bra	u3877
  1456  00057A  D000               	nop2	
  1457                           
  1458                           ;hardware.c: 489: LATH7 = 0;
  1459  00057C  9E90               	bcf	3984,7,c	;volatile
  1460                           
  1461                           ;hardware.c: 490: _delay((unsigned long)((75)*(32000000/4000.0)));
  1462  00057E  0E04               	movlw	4
  1463  000580  0100               	movlb	0	; () banked
  1464  000582  6FFB               	movwf	(??_startupSequence+1)& (0+255),b
  1465  000584  0E0C               	movlw	12
  1466  000586  0100               	movlb	0	; () banked
  1467  000588  6FFA               	movwf	??_startupSequence& (0+255),b
  1468  00058A  0E33               	movlw	51
  1469  00058C                     u3887:
  1470  00058C  2EE8               	decfsz	wreg,f,c
  1471  00058E  D7FE               	bra	u3887
  1472  000590  2FFA               	decfsz	??_startupSequence& (0+255),f,b
  1473  000592  D7FC               	bra	u3887
  1474  000594  2FFB               	decfsz	(??_startupSequence+1)& (0+255),f,b
  1475  000596  D7FA               	bra	u3887
  1476  000598  D000               	nop2	
  1477                           
  1478                           ;hardware.c: 491: LATF2 = 0;
  1479  00059A  948E               	bcf	3982,2,c	;volatile
  1480                           
  1481                           ;hardware.c: 492: _delay((unsigned long)((75)*(32000000/4000.0)));
  1482  00059C  0E04               	movlw	4
  1483  00059E  0100               	movlb	0	; () banked
  1484  0005A0  6FFB               	movwf	(??_startupSequence+1)& (0+255),b
  1485  0005A2  0E0C               	movlw	12
  1486  0005A4  0100               	movlb	0	; () banked
  1487  0005A6  6FFA               	movwf	??_startupSequence& (0+255),b
  1488  0005A8  0E33               	movlw	51
  1489  0005AA                     u3897:
  1490  0005AA  2EE8               	decfsz	wreg,f,c
  1491  0005AC  D7FE               	bra	u3897
  1492  0005AE  2FFA               	decfsz	??_startupSequence& (0+255),f,b
  1493  0005B0  D7FC               	bra	u3897
  1494  0005B2  2FFB               	decfsz	(??_startupSequence+1)& (0+255),f,b
  1495  0005B4  D7FA               	bra	u3897
  1496  0005B6  D000               	nop2	
  1497                           
  1498                           ;hardware.c: 493: LATF5 = 0;
  1499  0005B8  9A8E               	bcf	3982,5,c	;volatile
  1500                           
  1501                           ;hardware.c: 494: _delay((unsigned long)((75)*(32000000/4000.0)));
  1502  0005BA  0E04               	movlw	4
  1503  0005BC  0100               	movlb	0	; () banked
  1504  0005BE  6FFB               	movwf	(??_startupSequence+1)& (0+255),b
  1505  0005C0  0E0C               	movlw	12
  1506  0005C2  0100               	movlb	0	; () banked
  1507  0005C4  6FFA               	movwf	??_startupSequence& (0+255),b
  1508  0005C6  0E33               	movlw	51
  1509  0005C8                     u3907:
  1510  0005C8  2EE8               	decfsz	wreg,f,c
  1511  0005CA  D7FE               	bra	u3907
  1512  0005CC  2FFA               	decfsz	??_startupSequence& (0+255),f,b
  1513  0005CE  D7FC               	bra	u3907
  1514  0005D0  2FFB               	decfsz	(??_startupSequence+1)& (0+255),f,b
  1515  0005D2  D7FA               	bra	u3907
  1516  0005D4  D000               	nop2	
  1517                           
  1518                           ;hardware.c: 495: LATF6 = 0;
  1519  0005D6  9C8E               	bcf	3982,6,c	;volatile
  1520                           
  1521                           ;hardware.c: 496: _delay((unsigned long)((75)*(32000000/4000.0)));
  1522  0005D8  0E04               	movlw	4
  1523  0005DA  0100               	movlb	0	; () banked
  1524  0005DC  6FFB               	movwf	(??_startupSequence+1)& (0+255),b
  1525  0005DE  0E0C               	movlw	12
  1526  0005E0  0100               	movlb	0	; () banked
  1527  0005E2  6FFA               	movwf	??_startupSequence& (0+255),b
  1528  0005E4  0E33               	movlw	51
  1529  0005E6                     u3917:
  1530  0005E6  2EE8               	decfsz	wreg,f,c
  1531  0005E8  D7FE               	bra	u3917
  1532  0005EA  2FFA               	decfsz	??_startupSequence& (0+255),f,b
  1533  0005EC  D7FC               	bra	u3917
  1534  0005EE  2FFB               	decfsz	(??_startupSequence+1)& (0+255),f,b
  1535  0005F0  D7FA               	bra	u3917
  1536  0005F2  D000               	nop2	
  1537                           
  1538                           ;hardware.c: 497: LATG4 = 0;
  1539  0005F4  988F               	bcf	3983,4,c	;volatile
  1540                           
  1541                           ;hardware.c: 498: _delay((unsigned long)((75)*(32000000/4000.0)));
  1542  0005F6  0E04               	movlw	4
  1543  0005F8  0100               	movlb	0	; () banked
  1544  0005FA  6FFB               	movwf	(??_startupSequence+1)& (0+255),b
  1545  0005FC  0E0C               	movlw	12
  1546  0005FE  0100               	movlb	0	; () banked
  1547  000600  6FFA               	movwf	??_startupSequence& (0+255),b
  1548  000602  0E33               	movlw	51
  1549  000604                     u3927:
  1550  000604  2EE8               	decfsz	wreg,f,c
  1551  000606  D7FE               	bra	u3927
  1552  000608  2FFA               	decfsz	??_startupSequence& (0+255),f,b
  1553  00060A  D7FC               	bra	u3927
  1554  00060C  2FFB               	decfsz	(??_startupSequence+1)& (0+255),f,b
  1555  00060E  D7FA               	bra	u3927
  1556  000610  D000               	nop2	
  1557                           
  1558                           ;hardware.c: 499: LATH0 = 0;
  1559  000612  9090               	bcf	3984,0,c	;volatile
  1560                           
  1561                           ;hardware.c: 500: _delay((unsigned long)((75)*(32000000/4000.0)));
  1562  000614  0E04               	movlw	4
  1563  000616  0100               	movlb	0	; () banked
  1564  000618  6FFB               	movwf	(??_startupSequence+1)& (0+255),b
  1565  00061A  0E0C               	movlw	12
  1566  00061C  0100               	movlb	0	; () banked
  1567  00061E  6FFA               	movwf	??_startupSequence& (0+255),b
  1568  000620  0E33               	movlw	51
  1569  000622                     u3937:
  1570  000622  2EE8               	decfsz	wreg,f,c
  1571  000624  D7FE               	bra	u3937
  1572  000626  2FFA               	decfsz	??_startupSequence& (0+255),f,b
  1573  000628  D7FC               	bra	u3937
  1574  00062A  2FFB               	decfsz	(??_startupSequence+1)& (0+255),f,b
  1575  00062C  D7FA               	bra	u3937
  1576  00062E  D000               	nop2	
  1577  000630  0012               	return		;funcret
  1578  000632                     __end_of_startupSequence:
  1579                           	opt stack 0
  1580                           tblptru	equ	0xFF8
  1581                           tblptrh	equ	0xFF7
  1582                           tblptrl	equ	0xFF6
  1583                           tablat	equ	0xFF5
  1584                           postinc0	equ	0xFEE
  1585                           wreg	equ	0xFE8
  1586                           postdec1	equ	0xFE5
  1587                           fsr1l	equ	0xFE1
  1588                           status	equ	0xFD8
  1589                           
  1590 ;; *************** function _setupTMR4 *****************
  1591 ;; Defined at:
  1592 ;;		line 43 in file "systemConfig.c"
  1593 ;; Parameters:    Size  Location     Type
  1594 ;;		None
  1595 ;; Auto vars:     Size  Location     Type
  1596 ;;		None
  1597 ;; Return value:  Size  Location     Type
  1598 ;;                  1    wreg      void 
  1599 ;; Registers used:
  1600 ;;		wreg, status,2
  1601 ;; Tracked objects:
  1602 ;;		On entry : 0/0
  1603 ;;		On exit  : 0/0
  1604 ;;		Unchanged: 0/0
  1605 ;; Data sizes:     COMRAM   BANK0   BANK1   BANK2   BANK3   BANK4   BANK5   BANK6   BANK7   BANK8   BANK9  BANK10  BANK1
      +1  BANK12  BANK13
  1606 ;;      Params:         0       0       0       0       0       0       0       0       0       0       0       0       
      +0       0       0
  1607 ;;      Locals:         0       0       0       0       0       0       0       0       0       0       0       0       
      +0       0       0
  1608 ;;      Temps:          0       0       0       0       0       0       0       0       0       0       0       0       
      +0       0       0
  1609 ;;      Totals:         0       0       0       0       0       0       0       0       0       0       0       0       
      +0       0       0
  1610 ;;Total ram usage:        0 bytes
  1611 ;; Hardware stack levels used:    1
  1612 ;; Hardware stack levels required when called:    4
  1613 ;; This function calls:
  1614 ;;		Nothing
  1615 ;; This function is called by:
  1616 ;;		_systemInit
  1617 ;; This function uses a non-reentrant model
  1618 ;;
  1619                           
  1620                           	psect	text3
  1621  00143A                     __ptext3:
  1622                           	opt stack 0
  1623  00143A                     _setupTMR4:
  1624                           	opt stack 25
  1625                           
  1626                           ;systemConfig.c: 46: T4CONbits.TMR4ON = 0x0;
  1627                           
  1628                           ;incstack = 0
  1629  00143A  010F               	movlb	15	; () banked
  1630  00143C  9504               	bcf	4,2,b	;volatile
  1631                           
  1632                           ; BSR set to: 15
  1633                           ;systemConfig.c: 47: T4CONbits.T4CKPS = 0x3;
  1634  00143E  0E03               	movlw	3
  1635  001440  010F               	movlb	15	; () banked
  1636  001442  1304               	iorwf	4,f,b	;volatile
  1637                           
  1638                           ;systemConfig.c: 48: T4CONbits.T4OUTPS = 0x1;
  1639  001444  010F               	movlb	15	; () banked
  1640  001446  5104               	movf	4,w,b	;volatile
  1641  001448  0B87               	andlw	-121
  1642  00144A  0908               	iorlw	8
  1643  00144C  6F04               	movwf	4,b	;volatile
  1644                           
  1645                           ; BSR set to: 15
  1646  00144E  0012               	return		;funcret
  1647  001450                     __end_of_setupTMR4:
  1648                           	opt stack 0
  1649                           tblptru	equ	0xFF8
  1650                           tblptrh	equ	0xFF7
  1651                           tblptrl	equ	0xFF6
  1652                           tablat	equ	0xFF5
  1653                           postinc0	equ	0xFEE
  1654                           wreg	equ	0xFE8
  1655                           postdec1	equ	0xFE5
  1656                           fsr1l	equ	0xFE1
  1657                           status	equ	0xFD8
  1658                           
  1659 ;; *************** function _setupTMR2 *****************
  1660 ;; Defined at:
  1661 ;;		line 34 in file "systemConfig.c"
  1662 ;; Parameters:    Size  Location     Type
  1663 ;;		None
  1664 ;; Auto vars:     Size  Location     Type
  1665 ;;		None
  1666 ;; Return value:  Size  Location     Type
  1667 ;;                  1    wreg      void 
  1668 ;; Registers used:
  1669 ;;		wreg, status,2
  1670 ;; Tracked objects:
  1671 ;;		On entry : 0/0
  1672 ;;		On exit  : 0/0
  1673 ;;		Unchanged: 0/0
  1674 ;; Data sizes:     COMRAM   BANK0   BANK1   BANK2   BANK3   BANK4   BANK5   BANK6   BANK7   BANK8   BANK9  BANK10  BANK1
      +1  BANK12  BANK13
  1675 ;;      Params:         0       0       0       0       0       0       0       0       0       0       0       0       
      +0       0       0
  1676 ;;      Locals:         0       0       0       0       0       0       0       0       0       0       0       0       
      +0       0       0
  1677 ;;      Temps:          0       0       0       0       0       0       0       0       0       0       0       0       
      +0       0       0
  1678 ;;      Totals:         0       0       0       0       0       0       0       0       0       0       0       0       
      +0       0       0
  1679 ;;Total ram usage:        0 bytes
  1680 ;; Hardware stack levels used:    1
  1681 ;; Hardware stack levels required when called:    4
  1682 ;; This function calls:
  1683 ;;		Nothing
  1684 ;; This function is called by:
  1685 ;;		_systemInit
  1686 ;; This function uses a non-reentrant model
  1687 ;;
  1688                           
  1689                           	psect	text4
  1690  001450                     __ptext4:
  1691                           	opt stack 0
  1692  001450                     _setupTMR2:
  1693                           	opt stack 25
  1694                           
  1695                           ;systemConfig.c: 37: T2CONbits.TMR2ON = 0x0;
  1696                           
  1697                           ; BSR set to: 15
  1698                           ;incstack = 0
  1699  001450  94CA               	bcf	4042,2,c	;volatile
  1700                           
  1701                           ;systemConfig.c: 38: T2CONbits.T2CKPS = 0x3;
  1702  001452  0E03               	movlw	3
  1703  001454  12CA               	iorwf	4042,f,c	;volatile
  1704                           
  1705                           ;systemConfig.c: 39: T2CONbits.T2OUTPS = 0x1;
  1706  001456  50CA               	movf	4042,w,c	;volatile
  1707  001458  0B87               	andlw	-121
  1708  00145A  0908               	iorlw	8
  1709  00145C  6ECA               	movwf	4042,c	;volatile
  1710  00145E  0012               	return		;funcret
  1711  001460                     __end_of_setupTMR2:
  1712                           	opt stack 0
  1713                           tblptru	equ	0xFF8
  1714                           tblptrh	equ	0xFF7
  1715                           tblptrl	equ	0xFF6
  1716                           tablat	equ	0xFF5
  1717                           postinc0	equ	0xFEE
  1718                           wreg	equ	0xFE8
  1719                           postdec1	equ	0xFE5
  1720                           fsr1l	equ	0xFE1
  1721                           status	equ	0xFD8
  1722                           
  1723 ;; *************** function _setupTMR1 *****************
  1724 ;; Defined at:
  1725 ;;		line 25 in file "systemConfig.c"
  1726 ;; Parameters:    Size  Location     Type
  1727 ;;		None
  1728 ;; Auto vars:     Size  Location     Type
  1729 ;;		None
  1730 ;; Return value:  Size  Location     Type
  1731 ;;                  1    wreg      void 
  1732 ;; Registers used:
  1733 ;;		wreg, status,2
  1734 ;; Tracked objects:
  1735 ;;		On entry : 0/0
  1736 ;;		On exit  : 0/0
  1737 ;;		Unchanged: 0/0
  1738 ;; Data sizes:     COMRAM   BANK0   BANK1   BANK2   BANK3   BANK4   BANK5   BANK6   BANK7   BANK8   BANK9  BANK10  BANK1
      +1  BANK12  BANK13
  1739 ;;      Params:         0       0       0       0       0       0       0       0       0       0       0       0       
      +0       0       0
  1740 ;;      Locals:         0       0       0       0       0       0       0       0       0       0       0       0       
      +0       0       0
  1741 ;;      Temps:          0       0       0       0       0       0       0       0       0       0       0       0       
      +0       0       0
  1742 ;;      Totals:         0       0       0       0       0       0       0       0       0       0       0       0       
      +0       0       0
  1743 ;;Total ram usage:        0 bytes
  1744 ;; Hardware stack levels used:    1
  1745 ;; Hardware stack levels required when called:    4
  1746 ;; This function calls:
  1747 ;;		Nothing
  1748 ;; This function is called by:
  1749 ;;		_systemInit
  1750 ;; This function uses a non-reentrant model
  1751 ;;
  1752                           
  1753                           	psect	text5
  1754  001460                     __ptext5:
  1755                           	opt stack 0
  1756  001460                     _setupTMR1:
  1757                           	opt stack 25
  1758                           
  1759                           ;systemConfig.c: 27: T1CONbits.TMR1ON = 0x0;
  1760                           
  1761                           ;incstack = 0
  1762  001460  90CD               	bcf	4045,0,c	;volatile
  1763                           
  1764                           ;systemConfig.c: 28: T1CONbits.TMR1CS = 0x0;
  1765  001462  0E3F               	movlw	-193
  1766  001464  16CD               	andwf	4045,f,c	;volatile
  1767                           
  1768                           ;systemConfig.c: 29: T1CONbits.TCKPS = 0x3;
  1769  001466  0E30               	movlw	48
  1770  001468  12CD               	iorwf	4045,f,c	;volatile
  1771                           
  1772                           ;systemConfig.c: 30: T1CONbits.RD16 = 0x1;
  1773  00146A  82CD               	bsf	4045,1,c	;volatile
  1774  00146C  0012               	return		;funcret
  1775  00146E                     __end_of_setupTMR1:
  1776                           	opt stack 0
  1777                           tblptru	equ	0xFF8
  1778                           tblptrh	equ	0xFF7
  1779                           tblptrl	equ	0xFF6
  1780                           tablat	equ	0xFF5
  1781                           postinc0	equ	0xFEE
  1782                           wreg	equ	0xFE8
  1783                           postdec1	equ	0xFE5
  1784                           fsr1l	equ	0xFE1
  1785                           status	equ	0xFD8
  1786                           
  1787 ;; *************** function _setupTMR0 *****************
  1788 ;; Defined at:
  1789 ;;		line 16 in file "systemConfig.c"
  1790 ;; Parameters:    Size  Location     Type
  1791 ;;		None
  1792 ;; Auto vars:     Size  Location     Type
  1793 ;;		None
  1794 ;; Return value:  Size  Location     Type
  1795 ;;                  1    wreg      void 
  1796 ;; Registers used:
  1797 ;;		wreg, status,2
  1798 ;; Tracked objects:
  1799 ;;		On entry : 0/0
  1800 ;;		On exit  : 0/0
  1801 ;;		Unchanged: 0/0
  1802 ;; Data sizes:     COMRAM   BANK0   BANK1   BANK2   BANK3   BANK4   BANK5   BANK6   BANK7   BANK8   BANK9  BANK10  BANK1
      +1  BANK12  BANK13
  1803 ;;      Params:         0       0       0       0       0       0       0       0       0       0       0       0       
      +0       0       0
  1804 ;;      Locals:         0       0       0       0       0       0       0       0       0       0       0       0       
      +0       0       0
  1805 ;;      Temps:          0       0       0       0       0       0       0       0       0       0       0       0       
      +0       0       0
  1806 ;;      Totals:         0       0       0       0       0       0       0       0       0       0       0       0       
      +0       0       0
  1807 ;;Total ram usage:        0 bytes
  1808 ;; Hardware stack levels used:    1
  1809 ;; Hardware stack levels required when called:    4
  1810 ;; This function calls:
  1811 ;;		Nothing
  1812 ;; This function is called by:
  1813 ;;		_systemInit
  1814 ;; This function uses a non-reentrant model
  1815 ;;
  1816                           
  1817                           	psect	text6
  1818  00140A                     __ptext6:
  1819                           	opt stack 0
  1820  00140A                     _setupTMR0:
  1821                           	opt stack 25
  1822                           
  1823                           ;systemConfig.c: 18: T0CONbits.TMR0ON = 0x0;
  1824                           
  1825                           ;incstack = 0
  1826  00140A  9ED5               	bcf	4053,7,c	;volatile
  1827                           
  1828                           ;systemConfig.c: 19: T0CONbits.T08BIT = 0x1;
  1829  00140C  8CD5               	bsf	4053,6,c	;volatile
  1830                           
  1831                           ;systemConfig.c: 20: T0CONbits.T0CS = 0x1;
  1832  00140E  50D5               	movf	4053,w,c	;volatile
  1833  001410  0BCF               	andlw	-49
  1834  001412  0910               	iorlw	16
  1835  001414  6ED5               	movwf	4053,c	;volatile
  1836                           
  1837                           ;systemConfig.c: 21: T0CONbits.PSA = 0x0;
  1838  001416  96D5               	bcf	4053,3,c	;volatile
  1839                           
  1840                           ;systemConfig.c: 22: T0CONbits.T0PS = 0x6;
  1841  001418  50D5               	movf	4053,w,c	;volatile
  1842  00141A  0BF8               	andlw	-8
  1843  00141C  0906               	iorlw	6
  1844  00141E  6ED5               	movwf	4053,c	;volatile
  1845  001420  0012               	return		;funcret
  1846  001422                     __end_of_setupTMR0:
  1847                           	opt stack 0
  1848                           tblptru	equ	0xFF8
  1849                           tblptrh	equ	0xFF7
  1850                           tblptrl	equ	0xFF6
  1851                           tablat	equ	0xFF5
  1852                           postinc0	equ	0xFEE
  1853                           wreg	equ	0xFE8
  1854                           postdec1	equ	0xFE5
  1855                           fsr1l	equ	0xFE1
  1856                           status	equ	0xFD8
  1857                           
  1858 ;; *************** function _setupI2C2 *****************
  1859 ;; Defined at:
  1860 ;;		line 92 in file "systemConfig.c"
  1861 ;; Parameters:    Size  Location     Type
  1862 ;;		None
  1863 ;; Auto vars:     Size  Location     Type
  1864 ;;		None
  1865 ;; Return value:  Size  Location     Type
  1866 ;;                  1    wreg      void 
  1867 ;; Registers used:
  1868 ;;		wreg, status,2
  1869 ;; Tracked objects:
  1870 ;;		On entry : 0/0
  1871 ;;		On exit  : 0/0
  1872 ;;		Unchanged: 0/0
  1873 ;; Data sizes:     COMRAM   BANK0   BANK1   BANK2   BANK3   BANK4   BANK5   BANK6   BANK7   BANK8   BANK9  BANK10  BANK1
      +1  BANK12  BANK13
  1874 ;;      Params:         0       0       0       0       0       0       0       0       0       0       0       0       
      +0       0       0
  1875 ;;      Locals:         0       0       0       0       0       0       0       0       0       0       0       0       
      +0       0       0
  1876 ;;      Temps:          0       0       0       0       0       0       0       0       0       0       0       0       
      +0       0       0
  1877 ;;      Totals:         0       0       0       0       0       0       0       0       0       0       0       0       
      +0       0       0
  1878 ;;Total ram usage:        0 bytes
  1879 ;; Hardware stack levels used:    1
  1880 ;; Hardware stack levels required when called:    4
  1881 ;; This function calls:
  1882 ;;		Nothing
  1883 ;; This function is called by:
  1884 ;;		_systemInit
  1885 ;; This function uses a non-reentrant model
  1886 ;;
  1887                           
  1888                           	psect	text7
  1889  00126E                     __ptext7:
  1890                           	opt stack 0
  1891  00126E                     _setupI2C2:
  1892                           	opt stack 25
  1893                           
  1894                           ;systemConfig.c: 94: SSP2CON1bits.SSPEN = 0x0;
  1895                           
  1896                           ;incstack = 0
  1897  00126E  010F               	movlb	15	; () banked
  1898  001270  9B19               	bcf	25,5,b	;volatile
  1899                           
  1900                           ;systemConfig.c: 96: TRISDbits.TRISD5 = 0x1;
  1901  001272  8A95               	bsf	3989,5,c	;volatile
  1902                           
  1903                           ;systemConfig.c: 97: TRISDbits.TRISD6 = 0x1;
  1904  001274  8C95               	bsf	3989,6,c	;volatile
  1905                           
  1906                           ; BSR set to: 15
  1907                           ;systemConfig.c: 100: SSP2CON1bits.SSPM = 0x9;
  1908  001276  010F               	movlb	15	; () banked
  1909  001278  5119               	movf	25,w,b	;volatile
  1910  00127A  0BF0               	andlw	-16
  1911  00127C  0909               	iorlw	9
  1912  00127E  6F19               	movwf	25,b	;volatile
  1913                           
  1914                           ;systemConfig.c: 103: SSP2ADD = 0b10100000;
  1915  001280  0EA0               	movlw	160
  1916  001282  010F               	movlb	15	; () banked
  1917  001284  6F02               	movwf	2,b	;volatile
  1918                           
  1919                           ;systemConfig.c: 104: SSP2MSK = 0b11000000;
  1920  001286  0EC0               	movlw	192
  1921  001288  010F               	movlb	15	; () banked
  1922  00128A  6F17               	movwf	23,b	;volatile
  1923                           
  1924                           ;systemConfig.c: 105: SSP2CON1bits.SSPM = 0x6;
  1925  00128C  010F               	movlb	15	; () banked
  1926  00128E  5119               	movf	25,w,b	;volatile
  1927  001290  0BF0               	andlw	-16
  1928  001292  0906               	iorlw	6
  1929  001294  6F19               	movwf	25,b	;volatile
  1930                           
  1931                           ; BSR set to: 15
  1932                           ;systemConfig.c: 107: SSP2CON1bits.CKP = 0x1;
  1933  001296  010F               	movlb	15	; () banked
  1934  001298  8919               	bsf	25,4,b	;volatile
  1935                           
  1936                           ; BSR set to: 15
  1937                           ;systemConfig.c: 108: SSP2CON2bits.SEN = 0x1;
  1938  00129A  010F               	movlb	15	; () banked
  1939  00129C  8118               	bsf	24,0,b	;volatile
  1940                           
  1941                           ; BSR set to: 15
  1942                           ;systemConfig.c: 109: SSP2CON2bits.GCEN = 0x0;
  1943  00129E  010F               	movlb	15	; () banked
  1944  0012A0  9F18               	bcf	24,7,b	;volatile
  1945                           
  1946                           ; BSR set to: 15
  1947                           ;systemConfig.c: 110: SSP2CON3bits.SCIE = 0x0;
  1948  0012A2  010F               	movlb	15	; () banked
  1949  0012A4  9B39               	bcf	57,5,b	;volatile
  1950                           
  1951                           ;systemConfig.c: 112: SSP2BUF = 0x00;
  1952  0012A6  0E00               	movlw	0
  1953  0012A8  010F               	movlb	15	; () banked
  1954  0012AA  6F03               	movwf	3,b	;volatile
  1955                           
  1956                           ; BSR set to: 15
  1957                           ;systemConfig.c: 113: SSP2CON1bits.SSPEN = 0x1;
  1958  0012AC  010F               	movlb	15	; () banked
  1959  0012AE  8B19               	bsf	25,5,b	;volatile
  1960                           
  1961                           ; BSR set to: 15
  1962  0012B0  0012               	return		;funcret
  1963  0012B2                     __end_of_setupI2C2:
  1964                           	opt stack 0
  1965                           tblptru	equ	0xFF8
  1966                           tblptrh	equ	0xFF7
  1967                           tblptrl	equ	0xFF6
  1968                           tablat	equ	0xFF5
  1969                           postinc0	equ	0xFEE
  1970                           wreg	equ	0xFE8
  1971                           postdec1	equ	0xFE5
  1972                           fsr1l	equ	0xFE1
  1973                           status	equ	0xFD8
  1974                           
  1975 ;; *************** function _setupI2C1 *****************
  1976 ;; Defined at:
  1977 ;;		line 76 in file "systemConfig.c"
  1978 ;; Parameters:    Size  Location     Type
  1979 ;;		None
  1980 ;; Auto vars:     Size  Location     Type
  1981 ;;		None
  1982 ;; Return value:  Size  Location     Type
  1983 ;;                  1    wreg      void 
  1984 ;; Registers used:
  1985 ;;		wreg, status,2
  1986 ;; Tracked objects:
  1987 ;;		On entry : 0/0
  1988 ;;		On exit  : 0/0
  1989 ;;		Unchanged: 0/0
  1990 ;; Data sizes:     COMRAM   BANK0   BANK1   BANK2   BANK3   BANK4   BANK5   BANK6   BANK7   BANK8   BANK9  BANK10  BANK1
      +1  BANK12  BANK13
  1991 ;;      Params:         0       0       0       0       0       0       0       0       0       0       0       0       
      +0       0       0
  1992 ;;      Locals:         0       0       0       0       0       0       0       0       0       0       0       0       
      +0       0       0
  1993 ;;      Temps:          0       0       0       0       0       0       0       0       0       0       0       0       
      +0       0       0
  1994 ;;      Totals:         0       0       0       0       0       0       0       0       0       0       0       0       
      +0       0       0
  1995 ;;Total ram usage:        0 bytes
  1996 ;; Hardware stack levels used:    1
  1997 ;; Hardware stack levels required when called:    4
  1998 ;; This function calls:
  1999 ;;		Nothing
  2000 ;; This function is called by:
  2001 ;;		_systemInit
  2002 ;; This function uses a non-reentrant model
  2003 ;;
  2004                           
  2005                           	psect	text8
  2006  0013F0                     __ptext8:
  2007                           	opt stack 0
  2008  0013F0                     _setupI2C1:
  2009                           	opt stack 25
  2010                           
  2011                           ;systemConfig.c: 78: SSP1CON1bits.SSPEN = 0x0;
  2012                           
  2013                           ; BSR set to: 15
  2014                           ;incstack = 0
  2015  0013F0  9AC6               	bcf	4038,5,c	;volatile
  2016                           
  2017                           ;systemConfig.c: 80: TRISCbits.TRISC3 = 0x1;
  2018  0013F2  8694               	bsf	3988,3,c	;volatile
  2019                           
  2020                           ;systemConfig.c: 81: TRISCbits.TRISC4 = 0x1;
  2021  0013F4  8894               	bsf	3988,4,c	;volatile
  2022                           
  2023                           ;systemConfig.c: 84: SSP1ADD = 0x4F;
  2024  0013F6  0E4F               	movlw	79
  2025  0013F8  6EC8               	movwf	4040,c	;volatile
  2026                           
  2027                           ;systemConfig.c: 85: SSP1CON1bits.SSPM = 0x8;
  2028  0013FA  50C6               	movf	4038,w,c	;volatile
  2029  0013FC  0BF0               	andlw	-16
  2030  0013FE  0908               	iorlw	8
  2031  001400  6EC6               	movwf	4038,c	;volatile
  2032                           
  2033                           ;systemConfig.c: 87: SSP1BUF = 0x00;
  2034  001402  0E00               	movlw	0
  2035  001404  6EC9               	movwf	4041,c	;volatile
  2036                           
  2037                           ;systemConfig.c: 89: SSP1CON1bits.SSPEN = 0x1;
  2038  001406  8AC6               	bsf	4038,5,c	;volatile
  2039  001408  0012               	return		;funcret
  2040  00140A                     __end_of_setupI2C1:
  2041                           	opt stack 0
  2042                           tblptru	equ	0xFF8
  2043                           tblptrh	equ	0xFF7
  2044                           tblptrl	equ	0xFF6
  2045                           tablat	equ	0xFF5
  2046                           postinc0	equ	0xFEE
  2047                           wreg	equ	0xFE8
  2048                           postdec1	equ	0xFE5
  2049                           fsr1l	equ	0xFE1
  2050                           status	equ	0xFD8
  2051                           
  2052 ;; *************** function _setupADC *****************
  2053 ;; Defined at:
  2054 ;;		line 116 in file "systemConfig.c"
  2055 ;; Parameters:    Size  Location     Type
  2056 ;;		None
  2057 ;; Auto vars:     Size  Location     Type
  2058 ;;		None
  2059 ;; Return value:  Size  Location     Type
  2060 ;;                  1    wreg      void 
  2061 ;; Registers used:
  2062 ;;		wreg, status,2
  2063 ;; Tracked objects:
  2064 ;;		On entry : 0/0
  2065 ;;		On exit  : 0/0
  2066 ;;		Unchanged: 0/0
  2067 ;; Data sizes:     COMRAM   BANK0   BANK1   BANK2   BANK3   BANK4   BANK5   BANK6   BANK7   BANK8   BANK9  BANK10  BANK1
      +1  BANK12  BANK13
  2068 ;;      Params:         0       0       0       0       0       0       0       0       0       0       0       0       
      +0       0       0
  2069 ;;      Locals:         0       0       0       0       0       0       0       0       0       0       0       0       
      +0       0       0
  2070 ;;      Temps:          0       0       0       0       0       0       0       0       0       0       0       0       
      +0       0       0
  2071 ;;      Totals:         0       0       0       0       0       0       0       0       0       0       0       0       
      +0       0       0
  2072 ;;Total ram usage:        0 bytes
  2073 ;; Hardware stack levels used:    1
  2074 ;; Hardware stack levels required when called:    4
  2075 ;; This function calls:
  2076 ;;		Nothing
  2077 ;; This function is called by:
  2078 ;;		_systemInit
  2079 ;; This function uses a non-reentrant model
  2080 ;;
  2081                           
  2082                           	psect	text9
  2083  000E34                     __ptext9:
  2084                           	opt stack 0
  2085  000E34                     _setupADC:
  2086                           	opt stack 25
  2087                           
  2088                           ;systemConfig.c: 118: ADCON1Hbits.ADON = 0;
  2089                           
  2090                           ;incstack = 0
  2091  000E34  9EC1               	bcf	4033,7,c	;volatile
  2092                           
  2093                           ;systemConfig.c: 119: ADCON1Hbits.MODE12 = 1;
  2094  000E36  84C1               	bsf	4033,2,c	;volatile
  2095                           
  2096                           ;systemConfig.c: 120: ADCON1Hbits.FORM = 0;
  2097  000E38  0EFC               	movlw	-4
  2098  000E3A  16C1               	andwf	4033,f,c	;volatile
  2099                           
  2100                           ;systemConfig.c: 121: ADCON1Lbits.SSRC = 0;
  2101  000E3C  98C0               	bcf	4032,4,c	;volatile
  2102  000E3E  9AC0               	bcf	4032,5,c	;volatile
  2103  000E40  9CC0               	bcf	4032,6,c	;volatile
  2104  000E42  9EC0               	bcf	4032,7,c	;volatile
  2105                           
  2106                           ;systemConfig.c: 122: ADCON1Lbits.ASAM = 0;
  2107  000E44  94C0               	bcf	4032,2,c	;volatile
  2108                           
  2109                           ;systemConfig.c: 124: ADCON2Hbits.PVCFG = 0;
  2110  000E46  0E3F               	movlw	-193
  2111  000E48  010E               	movlb	14	; () banked
  2112  000E4A  178D               	andwf	141,f,b	;volatile
  2113                           
  2114                           ; BSR set to: 14
  2115                           ;systemConfig.c: 125: ADCON2Hbits.NVCFG0 = 0;
  2116  000E4C  010E               	movlb	14	; () banked
  2117  000E4E  9B8D               	bcf	141,5,b	;volatile
  2118                           
  2119                           ; BSR set to: 14
  2120                           ;systemConfig.c: 126: ADCON2Hbits.BUFREGEN = 1;
  2121  000E50  010E               	movlb	14	; () banked
  2122  000E52  878D               	bsf	141,3,b	;volatile
  2123                           
  2124                           ; BSR set to: 14
  2125                           ;systemConfig.c: 128: ADCON3Hbits.ADRC = 0;
  2126  000E54  010E               	movlb	14	; () banked
  2127  000E56  9F8B               	bcf	139,7,b	;volatile
  2128                           
  2129                           ; BSR set to: 14
  2130                           ;systemConfig.c: 129: ADCON3Hbits.PUMPEN = 0;
  2131  000E58  010E               	movlb	14	; () banked
  2132  000E5A  9B8B               	bcf	139,5,b	;volatile
  2133                           
  2134                           ;systemConfig.c: 130: ADCON3Lbits.ADCS = 0x20;
  2135  000E5C  0E20               	movlw	32
  2136  000E5E  010E               	movlb	14	; () banked
  2137  000E60  6F8A               	movwf	138,b	;volatile
  2138                           
  2139                           ; BSR set to: 14
  2140                           ;systemConfig.c: 132: ADCON5Hbits.ASENA = 0;
  2141  000E62  010E               	movlb	14	; () banked
  2142  000E64  9F89               	bcf	137,7,b	;volatile
  2143                           
  2144                           ; BSR set to: 14
  2145                           ;systemConfig.c: 133: ADCHS0Lbits.CH0SA = 0;
  2146  000E66  010E               	movlb	14	; () banked
  2147  000E68  9186               	bcf	134,0,b	;volatile
  2148  000E6A  9386               	bcf	134,1,b	;volatile
  2149  000E6C  9586               	bcf	134,2,b	;volatile
  2150  000E6E  9786               	bcf	134,3,b	;volatile
  2151  000E70  9986               	bcf	134,4,b	;volatile
  2152                           
  2153                           ; BSR set to: 14
  2154                           ;systemConfig.c: 134: ADCHS0Lbits.CH0NA = 0;
  2155  000E72  010E               	movlb	14	; () banked
  2156  000E74  9B86               	bcf	134,5,b	;volatile
  2157  000E76  9D86               	bcf	134,6,b	;volatile
  2158  000E78  9F86               	bcf	134,7,b	;volatile
  2159                           
  2160                           ; BSR set to: 14
  2161                           ;systemConfig.c: 137: CM1CONbits.CON = 0;
  2162  000E7A  010F               	movlb	15	; () banked
  2163  000E7C  9F53               	bcf	83,7,b	;volatile
  2164                           
  2165                           ; BSR set to: 15
  2166                           ;systemConfig.c: 138: CM2CONbits.CON = 0;
  2167  000E7E  010F               	movlb	15	; () banked
  2168  000E80  9F38               	bcf	56,7,b	;volatile
  2169                           
  2170                           ; BSR set to: 15
  2171                           ;systemConfig.c: 139: CM3CONbits.CON = 0;
  2172  000E82  010F               	movlb	15	; () banked
  2173  000E84  9F37               	bcf	55,7,b	;volatile
  2174                           
  2175                           ; BSR set to: 15
  2176                           ;systemConfig.c: 141: ANCON1bits.ANSEL0 = 1;
  2177  000E86  010E               	movlb	14	; () banked
  2178  000E88  8147               	bsf	71,0,b	;volatile
  2179                           
  2180                           ; BSR set to: 14
  2181                           ;systemConfig.c: 142: ANCON1bits.ANSEL1 = 1;
  2182  000E8A  010E               	movlb	14	; () banked
  2183  000E8C  8347               	bsf	71,1,b	;volatile
  2184                           
  2185                           ; BSR set to: 14
  2186                           ;systemConfig.c: 143: ANCON1bits.ANSEL2 = 1;
  2187  000E8E  010E               	movlb	14	; () banked
  2188  000E90  8547               	bsf	71,2,b	;volatile
  2189                           
  2190                           ; BSR set to: 14
  2191                           ;systemConfig.c: 144: ANCON1bits.ANSEL3 = 1;
  2192  000E92  010E               	movlb	14	; () banked
  2193  000E94  8747               	bsf	71,3,b	;volatile
  2194                           
  2195                           ; BSR set to: 14
  2196                           ;systemConfig.c: 145: ANCON1bits.ANSEL4 = 1;
  2197  000E96  010E               	movlb	14	; () banked
  2198  000E98  8947               	bsf	71,4,b	;volatile
  2199                           
  2200                           ; BSR set to: 14
  2201                           ;systemConfig.c: 146: ANCON1bits.ANSEL5 = 1;
  2202  000E9A  010E               	movlb	14	; () banked
  2203  000E9C  8B47               	bsf	71,5,b	;volatile
  2204                           
  2205                           ; BSR set to: 14
  2206                           ;systemConfig.c: 147: ANCON2bits.ANSEL11 = 1;
  2207  000E9E  010E               	movlb	14	; () banked
  2208  000EA0  8746               	bsf	70,3,b	;volatile
  2209                           
  2210                           ; BSR set to: 14
  2211                           ;systemConfig.c: 148: ANCON1bits.ANSEL7 = 1;
  2212  000EA2  010E               	movlb	14	; () banked
  2213  000EA4  8F47               	bsf	71,7,b	;volatile
  2214                           
  2215                           ; BSR set to: 14
  2216                           ;systemConfig.c: 149: ANCON2bits.ANSEL8 = 1;
  2217  000EA6  010E               	movlb	14	; () banked
  2218  000EA8  8146               	bsf	70,0,b	;volatile
  2219                           
  2220                           ; BSR set to: 14
  2221                           ;systemConfig.c: 150: ANCON3bits.ANSEL22 = 1;
  2222  000EAA  010E               	movlb	14	; () banked
  2223  000EAC  8D45               	bsf	69,6,b	;volatile
  2224                           
  2225                           ; BSR set to: 14
  2226                           ;systemConfig.c: 152: TRISAbits.TRISA0 = 1;
  2227  000EAE  8092               	bsf	3986,0,c	;volatile
  2228                           
  2229                           ; BSR set to: 14
  2230                           ;systemConfig.c: 153: TRISAbits.TRISA1 = 1;
  2231  000EB0  8292               	bsf	3986,1,c	;volatile
  2232                           
  2233                           ; BSR set to: 14
  2234                           ;systemConfig.c: 154: TRISAbits.TRISA2 = 1;
  2235  000EB2  8492               	bsf	3986,2,c	;volatile
  2236                           
  2237                           ; BSR set to: 14
  2238                           ;systemConfig.c: 155: TRISAbits.TRISA3 = 1;
  2239  000EB4  8692               	bsf	3986,3,c	;volatile
  2240                           
  2241                           ; BSR set to: 14
  2242                           ;systemConfig.c: 156: TRISAbits.TRISA5 = 1;
  2243  000EB6  8A92               	bsf	3986,5,c	;volatile
  2244                           
  2245                           ; BSR set to: 14
  2246                           ;systemConfig.c: 157: TRISFbits.TRISF7 = 1;
  2247  000EB8  8E97               	bsf	3991,7,c	;volatile
  2248                           
  2249                           ; BSR set to: 14
  2250                           ;systemConfig.c: 158: TRISAbits.TRISA4 = 1;
  2251  000EBA  8892               	bsf	3986,4,c	;volatile
  2252                           
  2253                           ; BSR set to: 14
  2254                           ;systemConfig.c: 159: TRISHbits.TRISH6 = 1;
  2255  000EBC  8C99               	bsf	3993,6,c	;volatile
  2256                           
  2257                           ; BSR set to: 14
  2258                           ;systemConfig.c: 160: TRISGbits.TRISG0 = 1;
  2259  000EBE  8098               	bsf	3992,0,c	;volatile
  2260                           
  2261                           ; BSR set to: 14
  2262                           ;systemConfig.c: 161: TRISCbits.TRISC2 = 1;
  2263  000EC0  8494               	bsf	3988,2,c	;volatile
  2264                           
  2265                           ; BSR set to: 14
  2266  000EC2  0012               	return		;funcret
  2267  000EC4                     __end_of_setupADC:
  2268                           	opt stack 0
  2269                           tblptru	equ	0xFF8
  2270                           tblptrh	equ	0xFF7
  2271                           tblptrl	equ	0xFF6
  2272                           tablat	equ	0xFF5
  2273                           postinc0	equ	0xFEE
  2274                           wreg	equ	0xFE8
  2275                           postdec1	equ	0xFE5
  2276                           fsr1l	equ	0xFE1
  2277                           status	equ	0xFD8
  2278                           
  2279 ;; *************** function _mapPeripheralPins *****************
  2280 ;; Defined at:
  2281 ;;		line 164 in file "systemConfig.c"
  2282 ;; Parameters:    Size  Location     Type
  2283 ;;		None
  2284 ;; Auto vars:     Size  Location     Type
  2285 ;;		None
  2286 ;; Return value:  Size  Location     Type
  2287 ;;                  1    wreg      void 
  2288 ;; Registers used:
  2289 ;;		wreg, status,2, status,0
  2290 ;; Tracked objects:
  2291 ;;		On entry : 0/0
  2292 ;;		On exit  : 0/0
  2293 ;;		Unchanged: 0/0
  2294 ;; Data sizes:     COMRAM   BANK0   BANK1   BANK2   BANK3   BANK4   BANK5   BANK6   BANK7   BANK8   BANK9  BANK10  BANK1
      +1  BANK12  BANK13
  2295 ;;      Params:         0       0       0       0       0       0       0       0       0       0       0       0       
      +0       0       0
  2296 ;;      Locals:         0       0       0       0       0       0       0       0       0       0       0       0       
      +0       0       0
  2297 ;;      Temps:          0       0       0       0       0       0       0       0       0       0       0       0       
      +0       0       0
  2298 ;;      Totals:         0       0       0       0       0       0       0       0       0       0       0       0       
      +0       0       0
  2299 ;;Total ram usage:        0 bytes
  2300 ;; Hardware stack levels used:    1
  2301 ;; Hardware stack levels required when called:    4
  2302 ;; This function calls:
  2303 ;;		Nothing
  2304 ;; This function is called by:
  2305 ;;		_systemInit
  2306 ;; This function uses a non-reentrant model
  2307 ;;
  2308                           
  2309                           	psect	text10
  2310  001184                     __ptext10:
  2311                           	opt stack 0
  2312  001184                     _mapPeripheralPins:
  2313                           	opt stack 25
  2314                           
  2315                           ;systemConfig.c: 167: OSCCON = (OSCCON & 0x5F);
  2316                           
  2317                           ; BSR set to: 14
  2318                           ;incstack = 0
  2319  001184  50D3               	movf	4051,w,c	;volatile
  2320  001186  0B5F               	andlw	95
  2321  001188  6ED3               	movwf	4051,c	;volatile
  2322                           
  2323                           ;systemConfig.c: 168: RPINR20_21bits.IOC3R = 0x9;
  2324  00118A  010E               	movlb	14	; () banked
  2325  00118C  5134               	movf	52,w,b	;volatile
  2326  00118E  0B0F               	andlw	-241
  2327  001190  0990               	iorlw	144
  2328  001192  6F34               	movwf	52,b	;volatile
  2329                           
  2330                           ; BSR set to: 14
  2331                           ;systemConfig.c: 169: RPINR20_21bits.IOC2R = 0xA;
  2332  001194  010E               	movlb	14	; () banked
  2333  001196  5134               	movf	52,w,b	;volatile
  2334  001198  0BF0               	andlw	-16
  2335  00119A  090A               	iorlw	10
  2336  00119C  6F34               	movwf	52,b	;volatile
  2337                           
  2338                           ; BSR set to: 14
  2339                           ;systemConfig.c: 170: RPINR24_25bits.IOC6R = 0x8;
  2340  00119E  010E               	movlb	14	; () banked
  2341  0011A0  5136               	movf	54,w,b	;volatile
  2342  0011A2  0BF0               	andlw	-16
  2343  0011A4  0908               	iorlw	8
  2344  0011A6  6F36               	movwf	54,b	;volatile
  2345                           
  2346                           ; BSR set to: 14
  2347                           ;systemConfig.c: 171: RPINR18_19bits.IOC1R = 0x5;
  2348  0011A8  010E               	movlb	14	; () banked
  2349  0011AA  5133               	movf	51,w,b	;volatile
  2350  0011AC  0B0F               	andlw	-241
  2351  0011AE  0950               	iorlw	80
  2352  0011B0  6F33               	movwf	51,b	;volatile
  2353                           
  2354                           ; BSR set to: 14
  2355                           ;systemConfig.c: 172: RPINR24_25bits.IOC7R = 0xA;
  2356  0011B2  010E               	movlb	14	; () banked
  2357  0011B4  5136               	movf	54,w,b	;volatile
  2358  0011B6  0B0F               	andlw	-241
  2359  0011B8  09A0               	iorlw	160
  2360  0011BA  6F36               	movwf	54,b	;volatile
  2361                           
  2362                           ; BSR set to: 14
  2363                           ;systemConfig.c: 173: RPINR22_23bits.IOC4R = 0x6;
  2364  0011BC  010E               	movlb	14	; () banked
  2365  0011BE  5135               	movf	53,w,b	;volatile
  2366  0011C0  0BF0               	andlw	-16
  2367  0011C2  0906               	iorlw	6
  2368  0011C4  6F35               	movwf	53,b	;volatile
  2369                           
  2370                           ; BSR set to: 14
  2371                           ;systemConfig.c: 174: RPINR22_23bits.IOC5R = 0x8;
  2372  0011C6  010E               	movlb	14	; () banked
  2373  0011C8  5135               	movf	53,w,b	;volatile
  2374  0011CA  0B0F               	andlw	-241
  2375  0011CC  0980               	iorlw	128
  2376  0011CE  6F35               	movwf	53,b	;volatile
  2377                           
  2378                           ; BSR set to: 14
  2379                           ;systemConfig.c: 175: OSCCON = (OSCCON | 0x40);
  2380  0011D0  50D3               	movf	4051,w,c	;volatile
  2381  0011D2  0940               	iorlw	64
  2382  0011D4  6ED3               	movwf	4051,c	;volatile
  2383                           
  2384                           ; BSR set to: 14
  2385  0011D6  0012               	return		;funcret
  2386  0011D8                     __end_of_mapPeripheralPins:
  2387                           	opt stack 0
  2388                           tblptru	equ	0xFF8
  2389                           tblptrh	equ	0xFF7
  2390                           tblptrl	equ	0xFF6
  2391                           tablat	equ	0xFF5
  2392                           postinc0	equ	0xFEE
  2393                           wreg	equ	0xFE8
  2394                           postdec1	equ	0xFE5
  2395                           fsr1l	equ	0xFE1
  2396                           status	equ	0xFD8
  2397                           
  2398 ;; *************** function _killLEDs *****************
  2399 ;; Defined at:
  2400 ;;		line 599 in file "hardware.c"
  2401 ;; Parameters:    Size  Location     Type
  2402 ;;		None
  2403 ;; Auto vars:     Size  Location     Type
  2404 ;;		None
  2405 ;; Return value:  Size  Location     Type
  2406 ;;                  1    wreg      void 
  2407 ;; Registers used:
  2408 ;;		None
  2409 ;; Tracked objects:
  2410 ;;		On entry : 0/0
  2411 ;;		On exit  : 0/0
  2412 ;;		Unchanged: 0/0
  2413 ;; Data sizes:     COMRAM   BANK0   BANK1   BANK2   BANK3   BANK4   BANK5   BANK6   BANK7   BANK8   BANK9  BANK10  BANK1
      +1  BANK12  BANK13
  2414 ;;      Params:         0       0       0       0       0       0       0       0       0       0       0       0       
      +0       0       0
  2415 ;;      Locals:         0       0       0       0       0       0       0       0       0       0       0       0       
      +0       0       0
  2416 ;;      Temps:          0       0       0       0       0       0       0       0       0       0       0       0       
      +0       0       0
  2417 ;;      Totals:         0       0       0       0       0       0       0       0       0       0       0       0       
      +0       0       0
  2418 ;;Total ram usage:        0 bytes
  2419 ;; Hardware stack levels used:    1
  2420 ;; Hardware stack levels required when called:    4
  2421 ;; This function calls:
  2422 ;;		Nothing
  2423 ;; This function is called by:
  2424 ;;		_systemInit
  2425 ;; This function uses a non-reentrant model
  2426 ;;
  2427                           
  2428                           	psect	text11
  2429  0013D0                     __ptext11:
  2430                           	opt stack 0
  2431  0013D0                     _killLEDs:
  2432                           	opt stack 25
  2433                           
  2434                           ;hardware.c: 601: LATE0 = 0;
  2435                           
  2436                           ; BSR set to: 14
  2437                           ;incstack = 0
  2438  0013D0  908D               	bcf	3981,0,c	;volatile
  2439                           
  2440                           ;hardware.c: 602: LATD2 = 0;
  2441  0013D2  948C               	bcf	3980,2,c	;volatile
  2442                           
  2443                           ;hardware.c: 603: LATH7 = 0;
  2444  0013D4  9E90               	bcf	3984,7,c	;volatile
  2445                           
  2446                           ;hardware.c: 604: LATF2 = 0;
  2447  0013D6  948E               	bcf	3982,2,c	;volatile
  2448                           
  2449                           ;hardware.c: 605: LATF5 = 0;
  2450  0013D8  9A8E               	bcf	3982,5,c	;volatile
  2451                           
  2452                           ;hardware.c: 606: LATF6 = 0;
  2453  0013DA  9C8E               	bcf	3982,6,c	;volatile
  2454                           
  2455                           ;hardware.c: 607: LATG4 = 0;
  2456  0013DC  988F               	bcf	3983,4,c	;volatile
  2457                           
  2458                           ;hardware.c: 608: LATH0 = 0;
  2459  0013DE  9090               	bcf	3984,0,c	;volatile
  2460                           
  2461                           ;hardware.c: 609: LATE1 = 0;
  2462  0013E0  928D               	bcf	3981,1,c	;volatile
  2463                           
  2464                           ;hardware.c: 610: LATH1 = 0;
  2465  0013E2  9290               	bcf	3984,1,c	;volatile
  2466                           
  2467                           ;hardware.c: 611: LATD0 = 0;
  2468  0013E4  908C               	bcf	3980,0,c	;volatile
  2469                           
  2470                           ;hardware.c: 612: LATE7 = 0;
  2471  0013E6  9E8D               	bcf	3981,7,c	;volatile
  2472                           
  2473                           ;hardware.c: 613: LATE5 = 0;
  2474  0013E8  9A8D               	bcf	3981,5,c	;volatile
  2475                           
  2476                           ;hardware.c: 614: LATE4 = 0;
  2477  0013EA  988D               	bcf	3981,4,c	;volatile
  2478                           
  2479                           ;hardware.c: 615: LATH2 = 0;
  2480  0013EC  9490               	bcf	3984,2,c	;volatile
  2481  0013EE  0012               	return		;funcret
  2482  0013F0                     __end_of_killLEDs:
  2483                           	opt stack 0
  2484                           tblptru	equ	0xFF8
  2485                           tblptrh	equ	0xFF7
  2486                           tblptrl	equ	0xFF6
  2487                           tablat	equ	0xFF5
  2488                           postinc0	equ	0xFEE
  2489                           wreg	equ	0xFE8
  2490                           postdec1	equ	0xFE5
  2491                           fsr1l	equ	0xFE1
  2492                           status	equ	0xFD8
  2493                           
  2494 ;; *************** function _interruptInit *****************
  2495 ;; Defined at:
  2496 ;;		line 291 in file "systemConfig.c"
  2497 ;; Parameters:    Size  Location     Type
  2498 ;;		None
  2499 ;; Auto vars:     Size  Location     Type
  2500 ;;		None
  2501 ;; Return value:  Size  Location     Type
  2502 ;;                  1    wreg      void 
  2503 ;; Registers used:
  2504 ;;		None
  2505 ;; Tracked objects:
  2506 ;;		On entry : 0/0
  2507 ;;		On exit  : 0/0
  2508 ;;		Unchanged: 0/0
  2509 ;; Data sizes:     COMRAM   BANK0   BANK1   BANK2   BANK3   BANK4   BANK5   BANK6   BANK7   BANK8   BANK9  BANK10  BANK1
      +1  BANK12  BANK13
  2510 ;;      Params:         0       0       0       0       0       0       0       0       0       0       0       0       
      +0       0       0
  2511 ;;      Locals:         0       0       0       0       0       0       0       0       0       0       0       0       
      +0       0       0
  2512 ;;      Temps:          0       0       0       0       0       0       0       0       0       0       0       0       
      +0       0       0
  2513 ;;      Totals:         0       0       0       0       0       0       0       0       0       0       0       0       
      +0       0       0
  2514 ;;Total ram usage:        0 bytes
  2515 ;; Hardware stack levels used:    1
  2516 ;; Hardware stack levels required when called:    4
  2517 ;; This function calls:
  2518 ;;		Nothing
  2519 ;; This function is called by:
  2520 ;;		_systemInit
  2521 ;; This function uses a non-reentrant model
  2522 ;;
  2523                           
  2524                           	psect	text12
  2525  001328                     __ptext12:
  2526                           	opt stack 0
  2527  001328                     _interruptInit:
  2528                           	opt stack 25
  2529                           
  2530                           ;systemConfig.c: 293: INTCONbits.T0IE = 0x1;
  2531                           
  2532                           ;incstack = 0
  2533  001328  8AF2               	bsf	intcon,5,c	;volatile
  2534                           
  2535                           ;systemConfig.c: 294: PIE1bits.TMR1IE = 0x1;
  2536  00132A  809D               	bsf	3997,0,c	;volatile
  2537                           
  2538                           ;systemConfig.c: 295: PIE1bits.TMR2IE = 0x1;
  2539  00132C  829D               	bsf	3997,1,c	;volatile
  2540                           
  2541                           ;systemConfig.c: 296: PIE2bits.TMR3IE = 0x1;
  2542  00132E  82A0               	bsf	4000,1,c	;volatile
  2543                           
  2544                           ;systemConfig.c: 297: PIE5bits.TMR4IE = 0x1;
  2545  001330  80B7               	bsf	4023,0,c	;volatile
  2546                           
  2547                           ;systemConfig.c: 299: PIE2bits.SSP2IE = 0x1;
  2548  001332  8CA0               	bsf	4000,6,c	;volatile
  2549                           
  2550                           ;systemConfig.c: 301: INTCONbits.IOCIE = 0x1;
  2551  001334  86F2               	bsf	intcon,3,c	;volatile
  2552                           
  2553                           ;systemConfig.c: 302: IOCNbits.IOCN1 = 0x1;
  2554  001336  010F               	movlb	15	; () banked
  2555  001338  8355               	bsf	85,1,b	;volatile
  2556                           
  2557                           ;systemConfig.c: 303: IOCNbits.IOCN2 = 0x1;
  2558  00133A  010F               	movlb	15	; () banked
  2559  00133C  8555               	bsf	85,2,b	;volatile
  2560                           
  2561                           ;systemConfig.c: 304: IOCNbits.IOCN3 = 0x1;
  2562  00133E  010F               	movlb	15	; () banked
  2563  001340  8755               	bsf	85,3,b	;volatile
  2564                           
  2565                           ;systemConfig.c: 305: IOCNbits.IOCN4 = 0x1;
  2566  001342  010F               	movlb	15	; () banked
  2567  001344  8955               	bsf	85,4,b	;volatile
  2568                           
  2569                           ;systemConfig.c: 306: IOCNbits.IOCN5 = 0x1;
  2570  001346  010F               	movlb	15	; () banked
  2571  001348  8B55               	bsf	85,5,b	;volatile
  2572                           
  2573                           ;systemConfig.c: 307: IOCNbits.IOCN6 = 0x1;
  2574  00134A  010F               	movlb	15	; () banked
  2575  00134C  8D55               	bsf	85,6,b	;volatile
  2576                           
  2577                           ;systemConfig.c: 308: IOCNbits.IOCN7 = 0x1;
  2578  00134E  010F               	movlb	15	; () banked
  2579  001350  8F55               	bsf	85,7,b	;volatile
  2580                           
  2581                           ;systemConfig.c: 310: INTCONbits.PEIE = 0x1;
  2582  001352  8CF2               	bsf	intcon,6,c	;volatile
  2583                           
  2584                           ;systemConfig.c: 311: INTCONbits.GIE = 0x1;
  2585  001354  8EF2               	bsf	intcon,7,c	;volatile
  2586                           
  2587                           ; BSR set to: 15
  2588  001356  0012               	return		;funcret
  2589  001358                     __end_of_interruptInit:
  2590                           	opt stack 0
  2591                           tblptru	equ	0xFF8
  2592                           tblptrh	equ	0xFF7
  2593                           tblptrl	equ	0xFF6
  2594                           tablat	equ	0xFF5
  2595                           intcon	equ	0xFF2
  2596                           postinc0	equ	0xFEE
  2597                           wreg	equ	0xFE8
  2598                           postdec1	equ	0xFE5
  2599                           fsr1l	equ	0xFE1
  2600                           status	equ	0xFD8
  2601                           
  2602 ;; *************** function _interfaceInit *****************
  2603 ;; Defined at:
  2604 ;;		line 193 in file "systemConfig.c"
  2605 ;; Parameters:    Size  Location     Type
  2606 ;;		None
  2607 ;; Auto vars:     Size  Location     Type
  2608 ;;		None
  2609 ;; Return value:  Size  Location     Type
  2610 ;;                  1    wreg      void 
  2611 ;; Registers used:
  2612 ;;		None
  2613 ;; Tracked objects:
  2614 ;;		On entry : 0/0
  2615 ;;		On exit  : 0/0
  2616 ;;		Unchanged: 0/0
  2617 ;; Data sizes:     COMRAM   BANK0   BANK1   BANK2   BANK3   BANK4   BANK5   BANK6   BANK7   BANK8   BANK9  BANK10  BANK1
      +1  BANK12  BANK13
  2618 ;;      Params:         0       0       0       0       0       0       0       0       0       0       0       0       
      +0       0       0
  2619 ;;      Locals:         0       0       0       0       0       0       0       0       0       0       0       0       
      +0       0       0
  2620 ;;      Temps:          0       0       0       0       0       0       0       0       0       0       0       0       
      +0       0       0
  2621 ;;      Totals:         0       0       0       0       0       0       0       0       0       0       0       0       
      +0       0       0
  2622 ;;Total ram usage:        0 bytes
  2623 ;; Hardware stack levels used:    1
  2624 ;; Hardware stack levels required when called:    4
  2625 ;; This function calls:
  2626 ;;		Nothing
  2627 ;; This function is called by:
  2628 ;;		_systemInit
  2629 ;; This function uses a non-reentrant model
  2630 ;;
  2631                           
  2632                           	psect	text13
  2633  000C6E                     __ptext13:
  2634                           	opt stack 0
  2635  000C6E                     _interfaceInit:
  2636                           	opt stack 25
  2637                           
  2638                           ;systemConfig.c: 196: MEMCONbits.EBDIS = 1;
  2639                           
  2640                           ; BSR set to: 15
  2641                           ;incstack = 0
  2642  000C6E  010E               	movlb	14	; () banked
  2643  000C70  8FE3               	bsf	227,7,b	;volatile
  2644                           
  2645                           ;systemConfig.c: 197: UCONbits.USBEN = 0;
  2646  000C72  9675               	bcf	3957,3,c	;volatile
  2647                           
  2648                           ;systemConfig.c: 200: OSCCON2bits.SOSCGO = 0;
  2649  000C74  9266               	bcf	3942,1,c	;volatile
  2650                           
  2651                           ;systemConfig.c: 201: T1CONbits.SOSCEN = 0;
  2652  000C76  96CD               	bcf	4045,3,c	;volatile
  2653                           
  2654                           ;systemConfig.c: 202: T3CONbits.SOSCEN = 0;
  2655  000C78  96B1               	bcf	4017,3,c	;volatile
  2656                           
  2657                           ;systemConfig.c: 203: T5CONbits.SOSCEN = 0;
  2658  000C7A  010F               	movlb	15	; () banked
  2659  000C7C  9714               	bcf	20,3,b	;volatile
  2660                           
  2661                           ;systemConfig.c: 208: ANCON2bits.ANSEL12 = 0;
  2662  000C7E  010E               	movlb	14	; () banked
  2663  000C80  9946               	bcf	70,4,b	;volatile
  2664                           
  2665                           ;systemConfig.c: 209: TRISGbits.TRISG1 = 1;
  2666  000C82  8298               	bsf	3992,1,c	;volatile
  2667                           
  2668                           ;systemConfig.c: 210: PADCFG1bits.RGPU = 1;
  2669  000C84  010F               	movlb	15	; () banked
  2670  000C86  8954               	bsf	84,4,b	;volatile
  2671                           
  2672                           ;systemConfig.c: 212: ANCON2bits.ANSEL13 = 0;
  2673  000C88  010E               	movlb	14	; () banked
  2674  000C8A  9B46               	bcf	70,5,b	;volatile
  2675                           
  2676                           ;systemConfig.c: 213: TRISGbits.TRISG2 = 1;
  2677  000C8C  8498               	bsf	3992,2,c	;volatile
  2678                           
  2679                           ;systemConfig.c: 215: TRISEbits.TRISE6 = 1;
  2680  000C8E  8C96               	bsf	3990,6,c	;volatile
  2681                           
  2682                           ;systemConfig.c: 217: TRISDbits.TRISD1 = 1;
  2683  000C90  8295               	bsf	3989,1,c	;volatile
  2684                           
  2685                           ;systemConfig.c: 218: PADCFG1bits.RDPU = 1;
  2686  000C92  010F               	movlb	15	; () banked
  2687  000C94  8F54               	bsf	84,7,b	;volatile
  2688                           
  2689                           ;systemConfig.c: 220: ANCON2bits.ANSEL14 = 0;
  2690  000C96  010E               	movlb	14	; () banked
  2691  000C98  9D46               	bcf	70,6,b	;volatile
  2692                           
  2693                           ;systemConfig.c: 221: TRISGbits.TRISG3 = 1;
  2694  000C9A  8698               	bsf	3992,3,c	;volatile
  2695                           
  2696                           ;systemConfig.c: 223: PADCFG1bits.REPU = 1;
  2697  000C9C  010F               	movlb	15	; () banked
  2698  000C9E  8D54               	bsf	84,6,b	;volatile
  2699                           
  2700                           ;systemConfig.c: 224: TRISDbits.TRISD4 = 1;
  2701  000CA0  8895               	bsf	3989,4,c	;volatile
  2702                           
  2703                           ;systemConfig.c: 225: TRISEbits.TRISE3 = 1;
  2704  000CA2  8696               	bsf	3990,3,c	;volatile
  2705                           
  2706                           ;systemConfig.c: 228: TRISEbits.TRISE0 = 0;
  2707  000CA4  9096               	bcf	3990,0,c	;volatile
  2708                           
  2709                           ;systemConfig.c: 229: TRISDbits.TRISD2 = 0;
  2710  000CA6  9495               	bcf	3989,2,c	;volatile
  2711                           
  2712                           ;systemConfig.c: 232: TRISEbits.TRISE1 = 0;
  2713  000CA8  9296               	bcf	3990,1,c	;volatile
  2714                           
  2715                           ;systemConfig.c: 233: ANCON3bits.ANSEL17 = 0;
  2716  000CAA  010E               	movlb	14	; () banked
  2717  000CAC  9345               	bcf	69,1,b	;volatile
  2718                           
  2719                           ;systemConfig.c: 234: TRISHbits.TRISH1 = 0;
  2720  000CAE  9299               	bcf	3993,1,c	;volatile
  2721                           
  2722                           ;systemConfig.c: 237: TRISDbits.TRISD0 = 0;
  2723  000CB0  9095               	bcf	3989,0,c	;volatile
  2724                           
  2725                           ;systemConfig.c: 238: TRISEbits.TRISE7 = 0;
  2726  000CB2  9E96               	bcf	3990,7,c	;volatile
  2727                           
  2728                           ;systemConfig.c: 239: TRISEbits.TRISE5 = 0;
  2729  000CB4  9A96               	bcf	3990,5,c	;volatile
  2730                           
  2731                           ;systemConfig.c: 240: TRISEbits.TRISE4 = 0;
  2732  000CB6  9896               	bcf	3990,4,c	;volatile
  2733                           
  2734                           ;systemConfig.c: 241: ANCON3bits.ANSEL18 = 0;
  2735  000CB8  010E               	movlb	14	; () banked
  2736  000CBA  9545               	bcf	69,2,b	;volatile
  2737                           
  2738                           ;systemConfig.c: 242: TRISHbits.TRISH2 = 0;
  2739  000CBC  9499               	bcf	3993,2,c	;volatile
  2740                           
  2741                           ;systemConfig.c: 245: ANCON1bits.ANSEL6 = 0;
  2742  000CBE  010E               	movlb	14	; () banked
  2743  000CC0  9D47               	bcf	71,6,b	;volatile
  2744                           
  2745                           ;systemConfig.c: 246: TRISFbits.TRISF2 = 0;
  2746  000CC2  9497               	bcf	3991,2,c	;volatile
  2747                           
  2748                           ;systemConfig.c: 247: ANCON3bits.ANSEL23 = 0;
  2749  000CC4  010E               	movlb	14	; () banked
  2750  000CC6  9F45               	bcf	69,7,b	;volatile
  2751                           
  2752                           ;systemConfig.c: 248: TRISHbits.TRISH7 = 0;
  2753  000CC8  9E99               	bcf	3993,7,c	;volatile
  2754                           
  2755                           ;systemConfig.c: 251: ANCON2bits.ANSEL10 = 0;
  2756  000CCA  010E               	movlb	14	; () banked
  2757  000CCC  9546               	bcf	70,2,b	;volatile
  2758                           
  2759                           ;systemConfig.c: 252: TRISFbits.TRISF6 = 0;
  2760  000CCE  9C97               	bcf	3991,6,c	;volatile
  2761                           
  2762                           ;systemConfig.c: 253: ANCON2bits.ANSEL9 = 0;
  2763  000CD0  010E               	movlb	14	; () banked
  2764  000CD2  9346               	bcf	70,1,b	;volatile
  2765                           
  2766                           ;systemConfig.c: 254: TRISFbits.TRISF5 = 0;
  2767  000CD4  9A97               	bcf	3991,5,c	;volatile
  2768                           
  2769                           ;systemConfig.c: 257: ANCON3bits.ANSEL16 = 0;
  2770  000CD6  010E               	movlb	14	; () banked
  2771  000CD8  9145               	bcf	69,0,b	;volatile
  2772                           
  2773                           ;systemConfig.c: 258: TRISHbits.TRISH0 = 0;
  2774  000CDA  9099               	bcf	3993,0,c	;volatile
  2775                           
  2776                           ;systemConfig.c: 259: TRISGbits.TRISG4 = 0;
  2777  000CDC  9898               	bcf	3992,4,c	;volatile
  2778                           
  2779                           ;systemConfig.c: 260: ANCON2bits.ANSEL15 = 0;
  2780  000CDE  010E               	movlb	14	; () banked
  2781  000CE0  9F46               	bcf	70,7,b	;volatile
  2782                           
  2783                           ;systemConfig.c: 263: TRISCbits.TRISC7 = 1;
  2784  000CE2  8E94               	bsf	3988,7,c	;volatile
  2785                           
  2786                           ;systemConfig.c: 264: TRISJbits.TRISJ4 = 1;
  2787  000CE4  889A               	bsf	3994,4,c	;volatile
  2788                           
  2789                           ;systemConfig.c: 265: TRISJbits.TRISJ5 = 1;
  2790  000CE6  8A9A               	bsf	3994,5,c	;volatile
  2791                           
  2792                           ;systemConfig.c: 268: TRISCbits.TRISC1 = 1;
  2793  000CE8  8294               	bsf	3988,1,c	;volatile
  2794                           
  2795                           ;systemConfig.c: 269: TRISCbits.TRISC0 = 1;
  2796  000CEA  8094               	bsf	3988,0,c	;volatile
  2797                           
  2798                           ;systemConfig.c: 270: TRISCbits.TRISC6 = 1;
  2799  000CEC  8C94               	bsf	3988,6,c	;volatile
  2800                           
  2801                           ;systemConfig.c: 273: ANCON3bits.ANSEL21 = 0;
  2802  000CEE  010E               	movlb	14	; () banked
  2803  000CF0  9B45               	bcf	69,5,b	;volatile
  2804                           
  2805                           ;systemConfig.c: 274: ANCON3bits.ANSEL20 = 0;
  2806  000CF2  010E               	movlb	14	; () banked
  2807  000CF4  9945               	bcf	69,4,b	;volatile
  2808                           
  2809                           ;systemConfig.c: 275: TRISFbits.TRISF3 = 1;
  2810  000CF6  8697               	bsf	3991,3,c	;volatile
  2811                           
  2812                           ;systemConfig.c: 276: TRISHbits.TRISH5 = 1;
  2813  000CF8  8A99               	bsf	3993,5,c	;volatile
  2814                           
  2815                           ;systemConfig.c: 277: TRISHbits.TRISH4 = 1;
  2816  000CFA  8899               	bsf	3993,4,c	;volatile
  2817                           
  2818                           ;systemConfig.c: 280: TRISBbits.TRISB5 = 0;
  2819  000CFC  9A93               	bcf	3987,5,c	;volatile
  2820                           
  2821                           ;systemConfig.c: 281: TRISDbits.TRISD3 = 0;
  2822  000CFE  9695               	bcf	3989,3,c	;volatile
  2823                           
  2824                           ;systemConfig.c: 282: LATB5 = 1;
  2825  000D00  8A8A               	bsf	3978,5,c	;volatile
  2826                           
  2827                           ;systemConfig.c: 283: LATD3 = 0;
  2828  000D02  968C               	bcf	3980,3,c	;volatile
  2829                           
  2830                           ;systemConfig.c: 286: TRISJbits.TRISJ0 = 1;
  2831  000D04  809A               	bsf	3994,0,c	;volatile
  2832                           
  2833                           ;systemConfig.c: 287: TRISJbits.TRISJ1 = 1;
  2834  000D06  829A               	bsf	3994,1,c	;volatile
  2835                           
  2836                           ;systemConfig.c: 288: TRISDbits.TRISD7 = 1;
  2837  000D08  8E95               	bsf	3989,7,c	;volatile
  2838                           
  2839                           ; BSR set to: 14
  2840  000D0A  0012               	return		;funcret
  2841  000D0C                     __end_of_interfaceInit:
  2842                           	opt stack 0
  2843                           tblptru	equ	0xFF8
  2844                           tblptrh	equ	0xFF7
  2845                           tblptrl	equ	0xFF6
  2846                           tablat	equ	0xFF5
  2847                           intcon	equ	0xFF2
  2848                           postinc0	equ	0xFEE
  2849                           wreg	equ	0xFE8
  2850                           postdec1	equ	0xFE5
  2851                           fsr1l	equ	0xFE1
  2852                           status	equ	0xFD8
  2853                           
  2854 ;; *************** function _defaultLED *****************
  2855 ;; Defined at:
  2856 ;;		line 314 in file "systemConfig.c"
  2857 ;; Parameters:    Size  Location     Type
  2858 ;;		None
  2859 ;; Auto vars:     Size  Location     Type
  2860 ;;		None
  2861 ;; Return value:  Size  Location     Type
  2862 ;;                  1    wreg      void 
  2863 ;; Registers used:
  2864 ;;		None
  2865 ;; Tracked objects:
  2866 ;;		On entry : 0/0
  2867 ;;		On exit  : 0/0
  2868 ;;		Unchanged: 0/0
  2869 ;; Data sizes:     COMRAM   BANK0   BANK1   BANK2   BANK3   BANK4   BANK5   BANK6   BANK7   BANK8   BANK9  BANK10  BANK1
      +1  BANK12  BANK13
  2870 ;;      Params:         0       0       0       0       0       0       0       0       0       0       0       0       
      +0       0       0
  2871 ;;      Locals:         0       0       0       0       0       0       0       0       0       0       0       0       
      +0       0       0
  2872 ;;      Temps:          0       0       0       0       0       0       0       0       0       0       0       0       
      +0       0       0
  2873 ;;      Totals:         0       0       0       0       0       0       0       0       0       0       0       0       
      +0       0       0
  2874 ;;Total ram usage:        0 bytes
  2875 ;; Hardware stack levels used:    1
  2876 ;; Hardware stack levels required when called:    4
  2877 ;; This function calls:
  2878 ;;		Nothing
  2879 ;; This function is called by:
  2880 ;;		_systemInit
  2881 ;; This function uses a non-reentrant model
  2882 ;;
  2883                           
  2884                           	psect	text14
  2885  001422                     __ptext14:
  2886                           	opt stack 0
  2887  001422                     _defaultLED:
  2888                           	opt stack 25
  2889                           
  2890                           ;systemConfig.c: 316: LATH7 = 1;
  2891                           
  2892                           ; BSR set to: 14
  2893                           ;incstack = 0
  2894  001422  8E90               	bsf	3984,7,c	;volatile
  2895                           
  2896                           ;systemConfig.c: 317: LATF2 = 1;
  2897  001424  848E               	bsf	3982,2,c	;volatile
  2898                           
  2899                           ;systemConfig.c: 318: LATF5 = 1;
  2900  001426  8A8E               	bsf	3982,5,c	;volatile
  2901                           
  2902                           ;systemConfig.c: 319: LATF6 = 1;
  2903  001428  8C8E               	bsf	3982,6,c	;volatile
  2904                           
  2905                           ;systemConfig.c: 320: LATG4 = 1;
  2906  00142A  888F               	bsf	3983,4,c	;volatile
  2907                           
  2908                           ;systemConfig.c: 321: LATH0 = 1;
  2909  00142C  8090               	bsf	3984,0,c	;volatile
  2910                           
  2911                           ;systemConfig.c: 322: LATD0 = 1;
  2912  00142E  808C               	bsf	3980,0,c	;volatile
  2913                           
  2914                           ;systemConfig.c: 323: LATE7 = 1;
  2915  001430  8E8D               	bsf	3981,7,c	;volatile
  2916                           
  2917                           ;systemConfig.c: 324: LATE5 = 1;
  2918  001432  8A8D               	bsf	3981,5,c	;volatile
  2919                           
  2920                           ;systemConfig.c: 325: LATE4 = 1;
  2921  001434  888D               	bsf	3981,4,c	;volatile
  2922                           
  2923                           ;systemConfig.c: 326: LATH2 = 1;
  2924  001436  8490               	bsf	3984,2,c	;volatile
  2925  001438  0012               	return		;funcret
  2926  00143A                     __end_of_defaultLED:
  2927                           	opt stack 0
  2928                           tblptru	equ	0xFF8
  2929                           tblptrh	equ	0xFF7
  2930                           tblptrl	equ	0xFF6
  2931                           tablat	equ	0xFF5
  2932                           intcon	equ	0xFF2
  2933                           postinc0	equ	0xFEE
  2934                           wreg	equ	0xFE8
  2935                           postdec1	equ	0xFE5
  2936                           fsr1l	equ	0xFE1
  2937                           status	equ	0xFD8
  2938                           
  2939 ;; *************** function _clockSwitch *****************
  2940 ;; Defined at:
  2941 ;;		line 52 in file "systemConfig.c"
  2942 ;; Parameters:    Size  Location     Type
  2943 ;;		None
  2944 ;; Auto vars:     Size  Location     Type
  2945 ;;		None
  2946 ;; Return value:  Size  Location     Type
  2947 ;;                  1    wreg      void 
  2948 ;; Registers used:
  2949 ;;		wreg, status,2, status,0
  2950 ;; Tracked objects:
  2951 ;;		On entry : 0/0
  2952 ;;		On exit  : 0/0
  2953 ;;		Unchanged: 0/0
  2954 ;; Data sizes:     COMRAM   BANK0   BANK1   BANK2   BANK3   BANK4   BANK5   BANK6   BANK7   BANK8   BANK9  BANK10  BANK1
      +1  BANK12  BANK13
  2955 ;;      Params:         0       0       0       0       0       0       0       0       0       0       0       0       
      +0       0       0
  2956 ;;      Locals:         0       0       0       0       0       0       0       0       0       0       0       0       
      +0       0       0
  2957 ;;      Temps:          0       0       0       0       0       0       0       0       0       0       0       0       
      +0       0       0
  2958 ;;      Totals:         0       0       0       0       0       0       0       0       0       0       0       0       
      +0       0       0
  2959 ;;Total ram usage:        0 bytes
  2960 ;; Hardware stack levels used:    1
  2961 ;; Hardware stack levels required when called:    4
  2962 ;; This function calls:
  2963 ;;		Nothing
  2964 ;; This function is called by:
  2965 ;;		_systemInit
  2966 ;; This function uses a non-reentrant model
  2967 ;;
  2968                           
  2969                           	psect	text15
  2970  0013AC                     __ptext15:
  2971                           	opt stack 0
  2972  0013AC                     _clockSwitch:
  2973                           	opt stack 25
  2974                           
  2975                           ;systemConfig.c: 54: OSCCON4bits.PLLEN = 0x1;
  2976                           
  2977                           ;incstack = 0
  2978  0013AC  8A64               	bsf	3940,5,c	;volatile
  2979                           
  2980                           ;systemConfig.c: 55: OSCCON3bits.IRCF = 0x1;
  2981  0013AE  5065               	movf	3941,w,c	;volatile
  2982  0013B0  0BF8               	andlw	-8
  2983  0013B2  0901               	iorlw	1
  2984  0013B4  6E65               	movwf	3941,c	;volatile
  2985                           
  2986                           ;systemConfig.c: 56: OSCCON2bits.CLKLOCK = 0x0;
  2987  0013B6  9E66               	bcf	3942,7,c	;volatile
  2988                           
  2989                           ;systemConfig.c: 57: OSCCONbits.NOSC = 0x1;
  2990  0013B8  50D3               	movf	4051,w,c	;volatile
  2991  0013BA  0BF8               	andlw	-8
  2992  0013BC  0901               	iorlw	1
  2993  0013BE  6ED3               	movwf	4051,c	;volatile
  2994  0013C0  38D3               	swapf	4051,w,c	;volatile
  2995  0013C2  0B07               	andlw	7
  2996  0013C4  06E8               	decf	wreg,f,c
  2997  0013C6  A4D8               	btfss	status,2,c
  2998  0013C8  D7FB               	goto	l443
  2999  0013CA                     u3380:
  3000                           
  3001                           ;systemConfig.c: 60: while (!OSCCON2bits.LOCK);
  3002  0013CA  BA66               	btfsc	3942,5,c	;volatile
  3003  0013CC  0012               	return	
  3004  0013CE  D7FD               	goto	u3380
  3005  0013D0                     __end_of_clockSwitch:
  3006                           	opt stack 0
  3007                           tblptru	equ	0xFF8
  3008                           tblptrh	equ	0xFF7
  3009                           tblptrl	equ	0xFF6
  3010                           tablat	equ	0xFF5
  3011                           intcon	equ	0xFF2
  3012                           postinc0	equ	0xFEE
  3013                           wreg	equ	0xFE8
  3014                           postdec1	equ	0xFE5
  3015                           fsr1l	equ	0xFE1
  3016                           status	equ	0xFD8
  3017                           
  3018 ;; *************** function _bypassSetup *****************
  3019 ;; Defined at:
  3020 ;;		line 329 in file "systemConfig.c"
  3021 ;; Parameters:    Size  Location     Type
  3022 ;;		None
  3023 ;; Auto vars:     Size  Location     Type
  3024 ;;		None
  3025 ;; Return value:  Size  Location     Type
  3026 ;;                  1    wreg      void 
  3027 ;; Registers used:
  3028 ;;		None
  3029 ;; Tracked objects:
  3030 ;;		On entry : 0/0
  3031 ;;		On exit  : 0/0
  3032 ;;		Unchanged: 0/0
  3033 ;; Data sizes:     COMRAM   BANK0   BANK1   BANK2   BANK3   BANK4   BANK5   BANK6   BANK7   BANK8   BANK9  BANK10  BANK1
      +1  BANK12  BANK13
  3034 ;;      Params:         0       0       0       0       0       0       0       0       0       0       0       0       
      +0       0       0
  3035 ;;      Locals:         0       0       0       0       0       0       0       0       0       0       0       0       
      +0       0       0
  3036 ;;      Temps:          0       0       0       0       0       0       0       0       0       0       0       0       
      +0       0       0
  3037 ;;      Totals:         0       0       0       0       0       0       0       0       0       0       0       0       
      +0       0       0
  3038 ;;Total ram usage:        0 bytes
  3039 ;; Hardware stack levels used:    1
  3040 ;; Hardware stack levels required when called:    4
  3041 ;; This function calls:
  3042 ;;		Nothing
  3043 ;; This function is called by:
  3044 ;;		_systemInit
  3045 ;; This function uses a non-reentrant model
  3046 ;;
  3047                           
  3048                           	psect	text16
  3049  00146E                     __ptext16:
  3050                           	opt stack 0
  3051  00146E                     _bypassSetup:
  3052                           	opt stack 25
  3053                           
  3054                           ;systemConfig.c: 331: LATB5 = 1;
  3055                           
  3056                           ;incstack = 0
  3057  00146E  8A8A               	bsf	3978,5,c	;volatile
  3058                           
  3059                           ;systemConfig.c: 332: LATD3 = 1;
  3060  001470  868C               	bsf	3980,3,c	;volatile
  3061                           
  3062                           ;systemConfig.c: 333: LATE1 = 1;
  3063  001472  828D               	bsf	3981,1,c	;volatile
  3064                           
  3065                           ;systemConfig.c: 334: LATH1 = 0;
  3066  001474  9290               	bcf	3984,1,c	;volatile
  3067                           
  3068                           ;systemConfig.c: 335: LATD2 = 0;
  3069  001476  948C               	bcf	3980,2,c	;volatile
  3070  001478  0012               	return		;funcret
  3071  00147A                     __end_of_bypassSetup:
  3072                           	opt stack 0
  3073                           tblptru	equ	0xFF8
  3074                           tblptrh	equ	0xFF7
  3075                           tblptrl	equ	0xFF6
  3076                           tablat	equ	0xFF5
  3077                           intcon	equ	0xFF2
  3078                           postinc0	equ	0xFEE
  3079                           wreg	equ	0xFE8
  3080                           postdec1	equ	0xFE5
  3081                           fsr1l	equ	0xFE1
  3082                           status	equ	0xFD8
  3083                           
  3084 ;; *************** function _readControls *****************
  3085 ;; Defined at:
  3086 ;;		line 174 in file "main.c"
  3087 ;; Parameters:    Size  Location     Type
  3088 ;;		None
  3089 ;; Auto vars:     Size  Location     Type
  3090 ;;		None
  3091 ;; Return value:  Size  Location     Type
  3092 ;;                  1    wreg      void 
  3093 ;; Registers used:
  3094 ;;		wreg, status,2, status,0, cstack
  3095 ;; Tracked objects:
  3096 ;;		On entry : 0/0
  3097 ;;		On exit  : 0/0
  3098 ;;		Unchanged: 0/0
  3099 ;; Data sizes:     COMRAM   BANK0   BANK1   BANK2   BANK3   BANK4   BANK5   BANK6   BANK7   BANK8   BANK9  BANK10  BANK1
      +1  BANK12  BANK13
  3100 ;;      Params:         0       0       0       0       0       0       0       0       0       0       0       0       
      +0       0       0
  3101 ;;      Locals:         0       0       0       0       0       0       0       0       0       0       0       0       
      +0       0       0
  3102 ;;      Temps:          0       0       3       0       0       0       0       0       0       0       0       0       
      +0       0       0
  3103 ;;      Totals:         0       0       3       0       0       0       0       0       0       0       0       0       
      +0       0       0
  3104 ;;Total ram usage:        3 bytes
  3105 ;; Hardware stack levels used:    1
  3106 ;; Hardware stack levels required when called:    5
  3107 ;; This function calls:
  3108 ;;		_ADC_Read
  3109 ;; This function is called by:
  3110 ;;		_main
  3111 ;; This function uses a non-reentrant model
  3112 ;;
  3113                           
  3114                           	psect	text17
  3115  000632                     __ptext17:
  3116                           	opt stack 0
  3117  000632                     _readControls:
  3118                           	opt stack 25
  3119                           
  3120                           ;main.c: 177: timeA = ADC_Read(14);
  3121                           
  3122                           ;incstack = 0
  3123  000632  0E00               	movlw	0
  3124  000634  0100               	movlb	0	; () banked
  3125  000636  6FFB               	movwf	(ADC_Read@channel+1)& (0+255),b
  3126  000638  0E0E               	movlw	14
  3127  00063A  6FFA               	movwf	ADC_Read@channel& (0+255),b
  3128  00063C  ECAF  F004         	call	_ADC_Read	;wreg free
  3129  000640  C0FA  F00B         	movff	?_ADC_Read,_timeA
  3130  000644  C0FB  F00C         	movff	?_ADC_Read+1,_timeA+1
  3131                           
  3132                           ;main.c: 178: parameter[0] = timeA >> 8;
  3133  000648  C00C  F100         	movff	_timeA+1,??_readControls
  3134  00064C  0101               	movlb	1	; () banked
  3135  00064E  6B01               	clrf	(??_readControls+1)& (0+255),b
  3136  000650  BF00               	btfsc	??_readControls& (0+255),7,b
  3137  000652  6901               	setf	(??_readControls+1)& (0+255),b
  3138  000654  C100  F0AE         	movff	??_readControls,_parameter
  3139  000658  C101  F0AF         	movff	??_readControls+1,_parameter+1
  3140                           
  3141                           ; BSR set to: 1
  3142                           ;main.c: 179: parameter[1] = (timeA & 0xFF);
  3143  00065C  500B               	movf	_timeA,w,c
  3144  00065E  0100               	movlb	0	; () banked
  3145  000660  6FB0               	movwf	(_parameter+2)& (0+255),b
  3146  000662  6BB1               	clrf	(_parameter+3)& (0+255),b
  3147                           
  3148                           ; BSR set to: 0
  3149                           ;main.c: 181: fbkA = ADC_Read(4);
  3150  000664  0E00               	movlw	0
  3151  000666  0100               	movlb	0	; () banked
  3152  000668  6FFB               	movwf	(ADC_Read@channel+1)& (0+255),b
  3153  00066A  0E04               	movlw	4
  3154  00066C  6FFA               	movwf	ADC_Read@channel& (0+255),b
  3155  00066E  ECAF  F004         	call	_ADC_Read	;wreg free
  3156  000672  C0FA  F09A         	movff	?_ADC_Read,_fbkA
  3157  000676  C0FB  F09B         	movff	?_ADC_Read+1,_fbkA+1
  3158                           
  3159                           ;main.c: 182: parameter[2] = fbkA>>4;
  3160  00067A  C09A  F100         	movff	_fbkA,??_readControls
  3161  00067E  C09B  F101         	movff	_fbkA+1,??_readControls+1
  3162  000682  0E04               	movlw	4
  3163  000684  0101               	movlb	1	; () banked
  3164  000686  6F02               	movwf	(??_readControls+2)& (0+255),b
  3165  000688                     u3415:
  3166  000688  0101               	movlb	1	; () banked
  3167  00068A  3501               	rlcf	(??_readControls+1)& (0+255),w,b
  3168  00068C  3301               	rrcf	(??_readControls+1)& (0+255),f,b
  3169  00068E  3300               	rrcf	??_readControls& (0+255),f,b
  3170  000690  0101               	movlb	1	; () banked
  3171  000692  2F02               	decfsz	(??_readControls+2)& (0+255),f,b
  3172  000694  D7F9               	goto	u3415
  3173  000696  C100  F0B2         	movff	??_readControls,_parameter+4
  3174  00069A  C101  F0B3         	movff	??_readControls+1,_parameter+5
  3175                           
  3176                           ; BSR set to: 1
  3177                           ;main.c: 184: lvlA = ADC_Read(3);
  3178  00069E  0E00               	movlw	0
  3179  0006A0  0100               	movlb	0	; () banked
  3180  0006A2  6FFB               	movwf	(ADC_Read@channel+1)& (0+255),b
  3181  0006A4  0E03               	movlw	3
  3182  0006A6  6FFA               	movwf	ADC_Read@channel& (0+255),b
  3183  0006A8  ECAF  F004         	call	_ADC_Read	;wreg free
  3184  0006AC  C0FA  F098         	movff	?_ADC_Read,_lvlA
  3185  0006B0  C0FB  F099         	movff	?_ADC_Read+1,_lvlA+1
  3186                           
  3187                           ;main.c: 185: parameter[3] = lvlA>>4;
  3188  0006B4  C098  F100         	movff	_lvlA,??_readControls
  3189  0006B8  C099  F101         	movff	_lvlA+1,??_readControls+1
  3190  0006BC  0E04               	movlw	4
  3191  0006BE  0101               	movlb	1	; () banked
  3192  0006C0  6F02               	movwf	(??_readControls+2)& (0+255),b
  3193  0006C2                     u3425:
  3194  0006C2  0101               	movlb	1	; () banked
  3195  0006C4  3501               	rlcf	(??_readControls+1)& (0+255),w,b
  3196  0006C6  3301               	rrcf	(??_readControls+1)& (0+255),f,b
  3197  0006C8  3300               	rrcf	??_readControls& (0+255),f,b
  3198  0006CA  0101               	movlb	1	; () banked
  3199  0006CC  2F02               	decfsz	(??_readControls+2)& (0+255),f,b
  3200  0006CE  D7F9               	goto	u3425
  3201  0006D0  C100  F0B4         	movff	??_readControls,_parameter+6
  3202  0006D4  C101  F0B5         	movff	??_readControls+1,_parameter+7
  3203                           
  3204                           ; BSR set to: 1
  3205                           ;main.c: 188: timeB = ADC_Read(6);
  3206  0006D8  0E00               	movlw	0
  3207  0006DA  0100               	movlb	0	; () banked
  3208  0006DC  6FFB               	movwf	(ADC_Read@channel+1)& (0+255),b
  3209  0006DE  0E06               	movlw	6
  3210  0006E0  6FFA               	movwf	ADC_Read@channel& (0+255),b
  3211  0006E2  ECAF  F004         	call	_ADC_Read	;wreg free
  3212  0006E6  C0FA  F009         	movff	?_ADC_Read,_timeB
  3213  0006EA  C0FB  F00A         	movff	?_ADC_Read+1,_timeB+1
  3214                           
  3215                           ;main.c: 189: parameter[4] = timeB >> 8;
  3216  0006EE  C00A  F100         	movff	_timeB+1,??_readControls
  3217  0006F2  0101               	movlb	1	; () banked
  3218  0006F4  6B01               	clrf	(??_readControls+1)& (0+255),b
  3219  0006F6  BF00               	btfsc	??_readControls& (0+255),7,b
  3220  0006F8  6901               	setf	(??_readControls+1)& (0+255),b
  3221  0006FA  C100  F0B6         	movff	??_readControls,_parameter+8
  3222  0006FE  C101  F0B7         	movff	??_readControls+1,_parameter+9
  3223                           
  3224                           ;main.c: 190: parameter[5] = (timeB & 0xFF);
  3225  000702  5009               	movf	_timeB,w,c
  3226  000704  0100               	movlb	0	; () banked
  3227  000706  6FB8               	movwf	(_parameter+10)& (0+255),b
  3228  000708  6BB9               	clrf	(_parameter+11)& (0+255),b
  3229                           
  3230                           ; BSR set to: 0
  3231                           ;main.c: 192: fbkB = ADC_Read(2);
  3232  00070A  0E00               	movlw	0
  3233  00070C  0100               	movlb	0	; () banked
  3234  00070E  6FFB               	movwf	(ADC_Read@channel+1)& (0+255),b
  3235  000710  0E02               	movlw	2
  3236  000712  6FFA               	movwf	ADC_Read@channel& (0+255),b
  3237  000714  ECAF  F004         	call	_ADC_Read	;wreg free
  3238  000718  C0FA  F096         	movff	?_ADC_Read,_fbkB
  3239  00071C  C0FB  F097         	movff	?_ADC_Read+1,_fbkB+1
  3240                           
  3241                           ;main.c: 193: parameter[6] = fbkB>>4;
  3242  000720  C096  F100         	movff	_fbkB,??_readControls
  3243  000724  C097  F101         	movff	_fbkB+1,??_readControls+1
  3244  000728  0E04               	movlw	4
  3245  00072A  0101               	movlb	1	; () banked
  3246  00072C  6F02               	movwf	(??_readControls+2)& (0+255),b
  3247  00072E                     u3435:
  3248  00072E  0101               	movlb	1	; () banked
  3249  000730  3501               	rlcf	(??_readControls+1)& (0+255),w,b
  3250  000732  3301               	rrcf	(??_readControls+1)& (0+255),f,b
  3251  000734  3300               	rrcf	??_readControls& (0+255),f,b
  3252  000736  0101               	movlb	1	; () banked
  3253  000738  2F02               	decfsz	(??_readControls+2)& (0+255),f,b
  3254  00073A  D7F9               	goto	u3435
  3255  00073C  C100  F0BA         	movff	??_readControls,_parameter+12
  3256  000740  C101  F0BB         	movff	??_readControls+1,_parameter+13
  3257                           
  3258                           ; BSR set to: 1
  3259                           ;main.c: 195: lvlB = ADC_Read(9);
  3260  000744  0E00               	movlw	0
  3261  000746  0100               	movlb	0	; () banked
  3262  000748  6FFB               	movwf	(ADC_Read@channel+1)& (0+255),b
  3263  00074A  0E09               	movlw	9
  3264  00074C  6FFA               	movwf	ADC_Read@channel& (0+255),b
  3265  00074E  ECAF  F004         	call	_ADC_Read	;wreg free
  3266  000752  C0FA  F094         	movff	?_ADC_Read,_lvlB
  3267  000756  C0FB  F095         	movff	?_ADC_Read+1,_lvlB+1
  3268                           
  3269                           ;main.c: 196: parameter[7] = lvlB>>4;
  3270  00075A  C094  F100         	movff	_lvlB,??_readControls
  3271  00075E  C095  F101         	movff	_lvlB+1,??_readControls+1
  3272  000762  0E04               	movlw	4
  3273  000764  0101               	movlb	1	; () banked
  3274  000766  6F02               	movwf	(??_readControls+2)& (0+255),b
  3275  000768                     u3445:
  3276  000768  0101               	movlb	1	; () banked
  3277  00076A  3501               	rlcf	(??_readControls+1)& (0+255),w,b
  3278  00076C  3301               	rrcf	(??_readControls+1)& (0+255),f,b
  3279  00076E  3300               	rrcf	??_readControls& (0+255),f,b
  3280  000770  0101               	movlb	1	; () banked
  3281  000772  2F02               	decfsz	(??_readControls+2)& (0+255),f,b
  3282  000774  D7F9               	goto	u3445
  3283  000776  C100  F0BC         	movff	??_readControls,_parameter+14
  3284  00077A  C101  F0BD         	movff	??_readControls+1,_parameter+15
  3285                           
  3286                           ; BSR set to: 1
  3287                           ;main.c: 199: timeC = ADC_Read(1);
  3288  00077E  0E00               	movlw	0
  3289  000780  0100               	movlb	0	; () banked
  3290  000782  6FFB               	movwf	(ADC_Read@channel+1)& (0+255),b
  3291  000784  0E01               	movlw	1
  3292  000786  6FFA               	movwf	ADC_Read@channel& (0+255),b
  3293  000788  ECAF  F004         	call	_ADC_Read	;wreg free
  3294  00078C  C0FA  F007         	movff	?_ADC_Read,_timeC
  3295  000790  C0FB  F008         	movff	?_ADC_Read+1,_timeC+1
  3296                           
  3297                           ;main.c: 200: parameter[8] = timeC >> 8;
  3298  000794  C008  F100         	movff	_timeC+1,??_readControls
  3299  000798  0101               	movlb	1	; () banked
  3300  00079A  6B01               	clrf	(??_readControls+1)& (0+255),b
  3301  00079C  BF00               	btfsc	??_readControls& (0+255),7,b
  3302  00079E  6901               	setf	(??_readControls+1)& (0+255),b
  3303  0007A0  C100  F0BE         	movff	??_readControls,_parameter+16
  3304  0007A4  C101  F0BF         	movff	??_readControls+1,_parameter+17
  3305                           
  3306                           ; BSR set to: 1
  3307                           ;main.c: 201: parameter[9] = (timeC & 0xFF);
  3308  0007A8  5007               	movf	_timeC,w,c
  3309  0007AA  0100               	movlb	0	; () banked
  3310  0007AC  6FC0               	movwf	(_parameter+18)& (0+255),b
  3311  0007AE  6BC1               	clrf	(_parameter+19)& (0+255),b
  3312                           
  3313                           ; BSR set to: 0
  3314                           ;main.c: 203: fbkC = ADC_Read(5);
  3315  0007B0  0E00               	movlw	0
  3316  0007B2  0100               	movlb	0	; () banked
  3317  0007B4  6FFB               	movwf	(ADC_Read@channel+1)& (0+255),b
  3318  0007B6  0E05               	movlw	5
  3319  0007B8  6FFA               	movwf	ADC_Read@channel& (0+255),b
  3320  0007BA  ECAF  F004         	call	_ADC_Read	;wreg free
  3321  0007BE  C0FA  F092         	movff	?_ADC_Read,_fbkC
  3322  0007C2  C0FB  F093         	movff	?_ADC_Read+1,_fbkC+1
  3323                           
  3324                           ;main.c: 204: parameter[10] = fbkC>>4;
  3325  0007C6  C092  F100         	movff	_fbkC,??_readControls
  3326  0007CA  C093  F101         	movff	_fbkC+1,??_readControls+1
  3327  0007CE  0E04               	movlw	4
  3328  0007D0  0101               	movlb	1	; () banked
  3329  0007D2  6F02               	movwf	(??_readControls+2)& (0+255),b
  3330  0007D4                     u3455:
  3331  0007D4  0101               	movlb	1	; () banked
  3332  0007D6  3501               	rlcf	(??_readControls+1)& (0+255),w,b
  3333  0007D8  3301               	rrcf	(??_readControls+1)& (0+255),f,b
  3334  0007DA  3300               	rrcf	??_readControls& (0+255),f,b
  3335  0007DC  0101               	movlb	1	; () banked
  3336  0007DE  2F02               	decfsz	(??_readControls+2)& (0+255),f,b
  3337  0007E0  D7F9               	goto	u3455
  3338  0007E2  C100  F0C2         	movff	??_readControls,_parameter+20
  3339  0007E6  C101  F0C3         	movff	??_readControls+1,_parameter+21
  3340                           
  3341                           ; BSR set to: 1
  3342                           ;main.c: 206: lvlC = ADC_Read(0);
  3343  0007EA  0E00               	movlw	0
  3344  0007EC  0100               	movlb	0	; () banked
  3345  0007EE  6FFB               	movwf	(ADC_Read@channel+1)& (0+255),b
  3346  0007F0  0E00               	movlw	0
  3347  0007F2  6FFA               	movwf	ADC_Read@channel& (0+255),b
  3348  0007F4  ECAF  F004         	call	_ADC_Read	;wreg free
  3349  0007F8  C0FA  F090         	movff	?_ADC_Read,_lvlC
  3350  0007FC  C0FB  F091         	movff	?_ADC_Read+1,_lvlC+1
  3351                           
  3352                           ;main.c: 207: parameter[11] = lvlC>>4;
  3353  000800  C090  F100         	movff	_lvlC,??_readControls
  3354  000804  C091  F101         	movff	_lvlC+1,??_readControls+1
  3355  000808  0E04               	movlw	4
  3356  00080A  0101               	movlb	1	; () banked
  3357  00080C  6F02               	movwf	(??_readControls+2)& (0+255),b
  3358  00080E                     u3465:
  3359  00080E  0101               	movlb	1	; () banked
  3360  000810  3501               	rlcf	(??_readControls+1)& (0+255),w,b
  3361  000812  3301               	rrcf	(??_readControls+1)& (0+255),f,b
  3362  000814  3300               	rrcf	??_readControls& (0+255),f,b
  3363  000816  0101               	movlb	1	; () banked
  3364  000818  2F02               	decfsz	(??_readControls+2)& (0+255),f,b
  3365  00081A  D7F9               	goto	u3465
  3366  00081C  C100  F0C4         	movff	??_readControls,_parameter+22
  3367  000820  C101  F0C5         	movff	??_readControls+1,_parameter+23
  3368                           
  3369                           ; BSR set to: 1
  3370  000824  0012               	return		;funcret
  3371  000826                     __end_of_readControls:
  3372                           	opt stack 0
  3373                           tblptru	equ	0xFF8
  3374                           tblptrh	equ	0xFF7
  3375                           tblptrl	equ	0xFF6
  3376                           tablat	equ	0xFF5
  3377                           intcon	equ	0xFF2
  3378                           postinc0	equ	0xFEE
  3379                           wreg	equ	0xFE8
  3380                           postdec1	equ	0xFE5
  3381                           fsr1l	equ	0xFE1
  3382                           status	equ	0xFD8
  3383                           
  3384 ;; *************** function _ADC_Read *****************
  3385 ;; Defined at:
  3386 ;;		line 393 in file "hardware.c"
  3387 ;; Parameters:    Size  Location     Type
  3388 ;;  channel         2    0[BANK0 ] int 
  3389 ;; Auto vars:     Size  Location     Type
  3390 ;;  value           2    2[BANK0 ] int 
  3391 ;; Return value:  Size  Location     Type
  3392 ;;                  2    0[BANK0 ] int 
  3393 ;; Registers used:
  3394 ;;		wreg, status,2, status,0
  3395 ;; Tracked objects:
  3396 ;;		On entry : 0/0
  3397 ;;		On exit  : 0/0
  3398 ;;		Unchanged: 0/0
  3399 ;; Data sizes:     COMRAM   BANK0   BANK1   BANK2   BANK3   BANK4   BANK5   BANK6   BANK7   BANK8   BANK9  BANK10  BANK1
      +1  BANK12  BANK13
  3400 ;;      Params:         0       2       0       0       0       0       0       0       0       0       0       0       
      +0       0       0
  3401 ;;      Locals:         0       2       0       0       0       0       0       0       0       0       0       0       
      +0       0       0
  3402 ;;      Temps:          0       0       0       0       0       0       0       0       0       0       0       0       
      +0       0       0
  3403 ;;      Totals:         0       4       0       0       0       0       0       0       0       0       0       0       
      +0       0       0
  3404 ;;Total ram usage:        4 bytes
  3405 ;; Hardware stack levels used:    1
  3406 ;; Hardware stack levels required when called:    4
  3407 ;; This function calls:
  3408 ;;		Nothing
  3409 ;; This function is called by:
  3410 ;;		_readControls
  3411 ;;		_main
  3412 ;; This function uses a non-reentrant model
  3413 ;;
  3414                           
  3415                           	psect	text18
  3416  00095E                     __ptext18:
  3417                           	opt stack 0
  3418  00095E                     _ADC_Read:
  3419                           	opt stack 25
  3420                           
  3421                           ;hardware.c: 395: int value;
  3422                           ;hardware.c: 396: ADCHS0Lbits.CH0SA = channel;
  3423                           
  3424                           ; BSR set to: 1
  3425                           ;incstack = 0
  3426  00095E  010E               	movlb	14	; () banked
  3427  000960  5186               	movf	134,w,b	;volatile
  3428  000962  0100               	movlb	0	; () banked
  3429  000964  19FA               	xorwf	ADC_Read@channel& (0+255),w,b
  3430  000966  0BE0               	andlw	-32
  3431  000968  19FA               	xorwf	ADC_Read@channel& (0+255),w,b
  3432  00096A  010E               	movlb	14	; () banked
  3433  00096C  6F86               	movwf	134,b	;volatile
  3434                           
  3435                           ; BSR set to: 14
  3436                           ;hardware.c: 397: _delay((unsigned long)((100)*(32000000/4000000.0)));
  3437  00096E  0EA0               	movlw	160
  3438  000970                     u3947:
  3439  000970  D000               	nop2	
  3440  000972  2EE8               	decfsz	wreg,f,c
  3441  000974  D7FD               	bra	u3947
  3442                           
  3443                           ;hardware.c: 398: ADCON1Hbits.ADON = 1;
  3444  000976  8EC1               	bsf	4033,7,c	;volatile
  3445                           
  3446                           ;hardware.c: 399: ADCON1Lbits.SAMP = 1;
  3447  000978  82C0               	bsf	4032,1,c	;volatile
  3448                           
  3449                           ;hardware.c: 400: _delay((unsigned long)((100)*(32000000/4000000.0)));
  3450  00097A  0EA0               	movlw	160
  3451  00097C                     u3957:
  3452  00097C  D000               	nop2	
  3453  00097E  2EE8               	decfsz	wreg,f,c
  3454  000980  D7FD               	bra	u3957
  3455                           
  3456                           ;hardware.c: 401: ADCON1Lbits.SAMP = 0;
  3457  000982  92C0               	bcf	4032,1,c	;volatile
  3458  000984  A0C0               	btfss	4032,0,c	;volatile
  3459  000986  D7FE               	goto	l793
  3460                           
  3461                           ;hardware.c: 403: ADCON1Hbits.ADON = 0;
  3462  000988  9EC1               	bcf	4033,7,c	;volatile
  3463                           
  3464                           ;hardware.c: 406: if (channel == 0)
  3465  00098A  0100               	movlb	0	; () banked
  3466  00098C  51FA               	movf	ADC_Read@channel& (0+255),w,b
  3467  00098E  0100               	movlb	0	; () banked
  3468  000990  11FB               	iorwf	(ADC_Read@channel+1)& (0+255),w,b
  3469  000992  A4D8               	btfss	status,2,c
  3470  000994  D005               	goto	l795
  3471                           
  3472                           ; BSR set to: 0
  3473                           ;hardware.c: 407: {
  3474                           ;hardware.c: 408: value = ADCBUF0;
  3475  000996  CFC2 F0FC          	movff	4034,ADC_Read@value	;volatile
  3476  00099A  CFC3 F0FD          	movff	4035,ADC_Read@value+1	;volatile
  3477                           
  3478                           ;hardware.c: 409: }
  3479  00099E  D070               	goto	l814
  3480  0009A0                     l795:
  3481                           
  3482                           ; BSR set to: 0
  3483                           ;hardware.c: 410: else if (channel == 1)
  3484                           
  3485                           ; BSR set to: 0
  3486  0009A0  0100               	movlb	0	; () banked
  3487  0009A2  05FA               	decf	ADC_Read@channel& (0+255),w,b
  3488  0009A4  0100               	movlb	0	; () banked
  3489  0009A6  11FB               	iorwf	(ADC_Read@channel+1)& (0+255),w,b
  3490  0009A8  A4D8               	btfss	status,2,c
  3491  0009AA  D005               	goto	l797
  3492                           
  3493                           ; BSR set to: 0
  3494                           ;hardware.c: 411: {
  3495                           ;hardware.c: 412: value = ADCBUF1;
  3496  0009AC  CE48 F0FC          	movff	3656,ADC_Read@value	;volatile
  3497  0009B0  CE49 F0FD          	movff	3657,ADC_Read@value+1	;volatile
  3498                           
  3499                           ;hardware.c: 413: }
  3500  0009B4  D065               	goto	l814
  3501  0009B6                     l797:
  3502                           
  3503                           ; BSR set to: 0
  3504                           ;hardware.c: 414: else if (channel == 2)
  3505                           
  3506                           ; BSR set to: 0
  3507  0009B6  0E02               	movlw	2
  3508  0009B8  0100               	movlb	0	; () banked
  3509  0009BA  19FA               	xorwf	ADC_Read@channel& (0+255),w,b
  3510  0009BC  0100               	movlb	0	; () banked
  3511  0009BE  11FB               	iorwf	(ADC_Read@channel+1)& (0+255),w,b
  3512  0009C0  A4D8               	btfss	status,2,c
  3513  0009C2  D005               	goto	l799
  3514                           
  3515                           ; BSR set to: 0
  3516                           ;hardware.c: 415: {
  3517                           ;hardware.c: 416: value = ADCBUF2;
  3518  0009C4  CE4A F0FC          	movff	3658,ADC_Read@value	;volatile
  3519  0009C8  CE4B F0FD          	movff	3659,ADC_Read@value+1	;volatile
  3520                           
  3521                           ;hardware.c: 417: }
  3522  0009CC  D059               	goto	l814
  3523  0009CE                     l799:
  3524                           
  3525                           ; BSR set to: 0
  3526                           ;hardware.c: 418: else if (channel == 3)
  3527                           
  3528                           ; BSR set to: 0
  3529  0009CE  0E03               	movlw	3
  3530  0009D0  0100               	movlb	0	; () banked
  3531  0009D2  19FA               	xorwf	ADC_Read@channel& (0+255),w,b
  3532  0009D4  0100               	movlb	0	; () banked
  3533  0009D6  11FB               	iorwf	(ADC_Read@channel+1)& (0+255),w,b
  3534  0009D8  A4D8               	btfss	status,2,c
  3535  0009DA  D005               	goto	l801
  3536                           
  3537                           ; BSR set to: 0
  3538                           ;hardware.c: 419: {
  3539                           ;hardware.c: 420: value = ADCBUF3;
  3540  0009DC  CE4C F0FC          	movff	3660,ADC_Read@value	;volatile
  3541  0009E0  CE4D F0FD          	movff	3661,ADC_Read@value+1	;volatile
  3542                           
  3543                           ;hardware.c: 421: }
  3544  0009E4  D04D               	goto	l814
  3545  0009E6                     l801:
  3546                           
  3547                           ; BSR set to: 0
  3548                           ;hardware.c: 422: else if (channel == 4)
  3549                           
  3550                           ; BSR set to: 0
  3551  0009E6  0E04               	movlw	4
  3552  0009E8  0100               	movlb	0	; () banked
  3553  0009EA  19FA               	xorwf	ADC_Read@channel& (0+255),w,b
  3554  0009EC  0100               	movlb	0	; () banked
  3555  0009EE  11FB               	iorwf	(ADC_Read@channel+1)& (0+255),w,b
  3556  0009F0  A4D8               	btfss	status,2,c
  3557  0009F2  D005               	goto	l803
  3558                           
  3559                           ; BSR set to: 0
  3560                           ;hardware.c: 423: {
  3561                           ;hardware.c: 424: value = ADCBUF4;
  3562  0009F4  CE4E F0FC          	movff	3662,ADC_Read@value	;volatile
  3563  0009F8  CE4F F0FD          	movff	3663,ADC_Read@value+1	;volatile
  3564                           
  3565                           ;hardware.c: 425: }
  3566  0009FC  D041               	goto	l814
  3567  0009FE                     l803:
  3568                           
  3569                           ; BSR set to: 0
  3570                           ;hardware.c: 426: else if (channel == 5)
  3571                           
  3572                           ; BSR set to: 0
  3573  0009FE  0E05               	movlw	5
  3574  000A00  0100               	movlb	0	; () banked
  3575  000A02  19FA               	xorwf	ADC_Read@channel& (0+255),w,b
  3576  000A04  0100               	movlb	0	; () banked
  3577  000A06  11FB               	iorwf	(ADC_Read@channel+1)& (0+255),w,b
  3578  000A08  A4D8               	btfss	status,2,c
  3579  000A0A  D005               	goto	l805
  3580                           
  3581                           ; BSR set to: 0
  3582                           ;hardware.c: 427: {
  3583                           ;hardware.c: 428: value = ADCBUF5;
  3584  000A0C  CE50 F0FC          	movff	3664,ADC_Read@value	;volatile
  3585  000A10  CE51 F0FD          	movff	3665,ADC_Read@value+1	;volatile
  3586                           
  3587                           ;hardware.c: 429: }
  3588  000A14  D035               	goto	l814
  3589  000A16                     l805:
  3590                           
  3591                           ; BSR set to: 0
  3592                           ;hardware.c: 430: else if (channel == 6)
  3593                           
  3594                           ; BSR set to: 0
  3595  000A16  0E06               	movlw	6
  3596  000A18  0100               	movlb	0	; () banked
  3597  000A1A  19FA               	xorwf	ADC_Read@channel& (0+255),w,b
  3598  000A1C  0100               	movlb	0	; () banked
  3599  000A1E  11FB               	iorwf	(ADC_Read@channel+1)& (0+255),w,b
  3600  000A20  A4D8               	btfss	status,2,c
  3601  000A22  D005               	goto	l807
  3602                           
  3603                           ; BSR set to: 0
  3604                           ;hardware.c: 431: {
  3605                           ;hardware.c: 432: value = ADCBUF6;
  3606  000A24  CE52 F0FC          	movff	3666,ADC_Read@value	;volatile
  3607  000A28  CE53 F0FD          	movff	3667,ADC_Read@value+1	;volatile
  3608                           
  3609                           ;hardware.c: 433: }
  3610  000A2C  D029               	goto	l814
  3611  000A2E                     l807:
  3612                           
  3613                           ; BSR set to: 0
  3614                           ;hardware.c: 434: else if (channel == 14)
  3615                           
  3616                           ; BSR set to: 0
  3617  000A2E  0E0E               	movlw	14
  3618  000A30  0100               	movlb	0	; () banked
  3619  000A32  19FA               	xorwf	ADC_Read@channel& (0+255),w,b
  3620  000A34  0100               	movlb	0	; () banked
  3621  000A36  11FB               	iorwf	(ADC_Read@channel+1)& (0+255),w,b
  3622  000A38  A4D8               	btfss	status,2,c
  3623  000A3A  D005               	goto	l809
  3624                           
  3625                           ; BSR set to: 0
  3626                           ;hardware.c: 435: {
  3627                           ;hardware.c: 436: value = ADCBUF14;
  3628  000A3C  CE62 F0FC          	movff	3682,ADC_Read@value	;volatile
  3629  000A40  CE63 F0FD          	movff	3683,ADC_Read@value+1	;volatile
  3630                           
  3631                           ;hardware.c: 437: }
  3632  000A44  D01D               	goto	l814
  3633  000A46                     l809:
  3634                           
  3635                           ; BSR set to: 0
  3636                           ;hardware.c: 438: else if (channel == 8)
  3637                           
  3638                           ; BSR set to: 0
  3639  000A46  0E08               	movlw	8
  3640  000A48  0100               	movlb	0	; () banked
  3641  000A4A  19FA               	xorwf	ADC_Read@channel& (0+255),w,b
  3642  000A4C  0100               	movlb	0	; () banked
  3643  000A4E  11FB               	iorwf	(ADC_Read@channel+1)& (0+255),w,b
  3644  000A50  A4D8               	btfss	status,2,c
  3645  000A52  D005               	goto	l811
  3646                           
  3647                           ; BSR set to: 0
  3648                           ;hardware.c: 439: {
  3649                           ;hardware.c: 440: value = ADCBUF8;
  3650  000A54  CE56 F0FC          	movff	3670,ADC_Read@value	;volatile
  3651  000A58  CE57 F0FD          	movff	3671,ADC_Read@value+1	;volatile
  3652                           
  3653                           ;hardware.c: 441: }
  3654  000A5C  D011               	goto	l814
  3655  000A5E                     l811:
  3656                           
  3657                           ; BSR set to: 0
  3658                           ;hardware.c: 442: else if (channel == 9)
  3659                           
  3660                           ; BSR set to: 0
  3661  000A5E  0E09               	movlw	9
  3662  000A60  0100               	movlb	0	; () banked
  3663  000A62  19FA               	xorwf	ADC_Read@channel& (0+255),w,b
  3664  000A64  0100               	movlb	0	; () banked
  3665  000A66  11FB               	iorwf	(ADC_Read@channel+1)& (0+255),w,b
  3666  000A68  A4D8               	btfss	status,2,c
  3667  000A6A  D005               	goto	l813
  3668                           
  3669                           ; BSR set to: 0
  3670                           ;hardware.c: 443: {
  3671                           ;hardware.c: 444: value = ADCBUF9;
  3672  000A6C  CE58 F0FC          	movff	3672,ADC_Read@value	;volatile
  3673  000A70  CE59 F0FD          	movff	3673,ADC_Read@value+1	;volatile
  3674                           
  3675                           ;hardware.c: 445: }
  3676  000A74  D005               	goto	l814
  3677  000A76                     l813:
  3678                           
  3679                           ; BSR set to: 0
  3680                           ;hardware.c: 446: else value = 0;
  3681                           
  3682                           ; BSR set to: 0
  3683  000A76  0E00               	movlw	0
  3684  000A78  0100               	movlb	0	; () banked
  3685  000A7A  6FFD               	movwf	(ADC_Read@value+1)& (0+255),b
  3686  000A7C  0E00               	movlw	0
  3687  000A7E  6FFC               	movwf	ADC_Read@value& (0+255),b
  3688  000A80                     l814:
  3689                           
  3690                           ; BSR set to: 0
  3691                           ;hardware.c: 447: return (value);
  3692                           
  3693                           ; BSR set to: 0
  3694                           
  3695                           ; BSR set to: 0
  3696                           
  3697                           ; BSR set to: 0
  3698                           
  3699                           ; BSR set to: 0
  3700                           
  3701                           ; BSR set to: 0
  3702                           
  3703                           ; BSR set to: 0
  3704                           
  3705                           ; BSR set to: 0
  3706                           
  3707                           ; BSR set to: 0
  3708                           
  3709                           ; BSR set to: 0
  3710                           
  3711                           ; BSR set to: 0
  3712  000A80  C0FC  F0FA         	movff	ADC_Read@value,?_ADC_Read
  3713  000A84  C0FD  F0FB         	movff	ADC_Read@value+1,?_ADC_Read+1
  3714  000A88  0012               	return	
  3715  000A8A                     __end_of_ADC_Read:
  3716                           	opt stack 0
  3717                           tblptru	equ	0xFF8
  3718                           tblptrh	equ	0xFF7
  3719                           tblptrl	equ	0xFF6
  3720                           tablat	equ	0xFF5
  3721                           intcon	equ	0xFF2
  3722                           postinc0	equ	0xFEE
  3723                           wreg	equ	0xFE8
  3724                           postdec1	equ	0xFE5
  3725                           fsr1l	equ	0xFE1
  3726                           status	equ	0xFD8
  3727                           
  3728 ;; *************** function _absVal *****************
  3729 ;; Defined at:
  3730 ;;		line 167 in file "main.c"
  3731 ;; Parameters:    Size  Location     Type
  3732 ;;  val             2    0[BANK0 ] int 
  3733 ;; Auto vars:     Size  Location     Type
  3734 ;;		None
  3735 ;; Return value:  Size  Location     Type
  3736 ;;                  2    0[BANK0 ] int 
  3737 ;; Registers used:
  3738 ;;		wreg, status,2, status,0
  3739 ;; Tracked objects:
  3740 ;;		On entry : 0/0
  3741 ;;		On exit  : 0/0
  3742 ;;		Unchanged: 0/0
  3743 ;; Data sizes:     COMRAM   BANK0   BANK1   BANK2   BANK3   BANK4   BANK5   BANK6   BANK7   BANK8   BANK9  BANK10  BANK1
      +1  BANK12  BANK13
  3744 ;;      Params:         0       2       0       0       0       0       0       0       0       0       0       0       
      +0       0       0
  3745 ;;      Locals:         0       0       0       0       0       0       0       0       0       0       0       0       
      +0       0       0
  3746 ;;      Temps:          0       2       0       0       0       0       0       0       0       0       0       0       
      +0       0       0
  3747 ;;      Totals:         0       4       0       0       0       0       0       0       0       0       0       0       
      +0       0       0
  3748 ;;Total ram usage:        4 bytes
  3749 ;; Hardware stack levels used:    1
  3750 ;; Hardware stack levels required when called:    4
  3751 ;; This function calls:
  3752 ;;		Nothing
  3753 ;; This function is called by:
  3754 ;;		_main
  3755 ;; This function uses a non-reentrant model
  3756 ;;
  3757                           
  3758                           	psect	text19
  3759  001358                     __ptext19:
  3760                           	opt stack 0
  3761  001358                     _absVal:
  3762                           	opt stack 26
  3763                           
  3764                           ;main.c: 169: if (val < 0)
  3765                           
  3766                           ; BSR set to: 0
  3767                           ;incstack = 0
  3768  001358  0100               	movlb	0	; () banked
  3769  00135A  AFFB               	btfss	(absVal@val+1)& (0+255),7,b
  3770  00135C  D00E               	goto	l142
  3771                           
  3772                           ; BSR set to: 0
  3773                           ;main.c: 170: return -val;
  3774  00135E  C0FA  F0FC         	movff	absVal@val,??_absVal
  3775  001362  C0FB  F0FD         	movff	absVal@val+1,??_absVal+1
  3776  001366  0100               	movlb	0	; () banked
  3777  001368  1FFC               	comf	??_absVal& (0+255),f,b
  3778  00136A  1FFD               	comf	(??_absVal+1)& (0+255),f,b
  3779  00136C  4BFC               	infsnz	??_absVal& (0+255),f,b
  3780  00136E  2BFD               	incf	(??_absVal+1)& (0+255),f,b
  3781  001370  C0FC  F0FA         	movff	??_absVal,?_absVal
  3782  001374  C0FD  F0FB         	movff	??_absVal+1,?_absVal+1
  3783                           
  3784                           ; BSR set to: 0
  3785  001378  0012               	return	
  3786  00137A                     l142:
  3787                           
  3788                           ; BSR set to: 0
  3789                           ;main.c: 171: else return val;
  3790  00137A  C0FA  F0FA         	movff	absVal@val,?_absVal
  3791  00137E  C0FB  F0FB         	movff	absVal@val+1,?_absVal+1
  3792  001382  0012               	return	
  3793  001384                     __end_of_absVal:
  3794                           	opt stack 0
  3795                           tblptru	equ	0xFF8
  3796                           tblptrh	equ	0xFF7
  3797                           tblptrl	equ	0xFF6
  3798                           tablat	equ	0xFF5
  3799                           intcon	equ	0xFF2
  3800                           postinc0	equ	0xFEE
  3801                           wreg	equ	0xFE8
  3802                           postdec1	equ	0xFE5
  3803                           fsr1l	equ	0xFE1
  3804                           status	equ	0xFD8
  3805                           
  3806 ;; *************** function _I2C1_Write_DigiPot *****************
  3807 ;; Defined at:
  3808 ;;		line 214 in file "serial.c"
  3809 ;; Parameters:    Size  Location     Type
  3810 ;;  value           1    wreg     unsigned char 
  3811 ;; Auto vars:     Size  Location     Type
  3812 ;;  value           1    0[BANK0 ] unsigned char 
  3813 ;;  wrCommand       1    1[BANK0 ] unsigned char 
  3814 ;; Return value:  Size  Location     Type
  3815 ;;                  1    wreg      void 
  3816 ;; Registers used:
  3817 ;;		wreg, status,2
  3818 ;; Tracked objects:
  3819 ;;		On entry : 0/0
  3820 ;;		On exit  : 0/0
  3821 ;;		Unchanged: 0/0
  3822 ;; Data sizes:     COMRAM   BANK0   BANK1   BANK2   BANK3   BANK4   BANK5   BANK6   BANK7   BANK8   BANK9  BANK10  BANK1
      +1  BANK12  BANK13
  3823 ;;      Params:         0       0       0       0       0       0       0       0       0       0       0       0       
      +0       0       0
  3824 ;;      Locals:         0       2       0       0       0       0       0       0       0       0       0       0       
      +0       0       0
  3825 ;;      Temps:          0       0       0       0       0       0       0       0       0       0       0       0       
      +0       0       0
  3826 ;;      Totals:         0       2       0       0       0       0       0       0       0       0       0       0       
      +0       0       0
  3827 ;;Total ram usage:        2 bytes
  3828 ;; Hardware stack levels used:    1
  3829 ;; Hardware stack levels required when called:    4
  3830 ;; This function calls:
  3831 ;;		Nothing
  3832 ;; This function is called by:
  3833 ;;		_main
  3834 ;; This function uses a non-reentrant model
  3835 ;;
  3836                           
  3837                           	psect	text20
  3838  0012B2                     __ptext20:
  3839                           	opt stack 0
  3840  0012B2                     _I2C1_Write_DigiPot:
  3841                           	opt stack 26
  3842                           
  3843                           ; BSR set to: 0
  3844                           ;incstack = 0
  3845                           ;I2C1_Write_DigiPot@value stored from wreg
  3846  0012B2  0100               	movlb	0	; () banked
  3847  0012B4  6FFA               	movwf	I2C1_Write_DigiPot@value& (0+255),b
  3848                           
  3849                           ;serial.c: 216: char wrCommand = (0b00101111 << 1);
  3850  0012B6  0E5E               	movlw	94
  3851  0012B8  0100               	movlb	0	; () banked
  3852  0012BA  6FFB               	movwf	I2C1_Write_DigiPot@wrCommand& (0+255),b
  3853                           
  3854                           ; BSR set to: 0
  3855                           ;serial.c: 218: SSP1CON1bits.SSPEN = 0x1;
  3856  0012BC  8AC6               	bsf	4038,5,c	;volatile
  3857                           
  3858                           ; BSR set to: 0
  3859                           ;serial.c: 219: _delay((unsigned long)((5)*(32000000/4000000.0)));
  3860  0012BE  0E0D               	movlw	13
  3861  0012C0                     u3967:
  3862  0012C0  2EE8               	decfsz	wreg,f,c
  3863  0012C2  D7FE               	bra	u3967
  3864  0012C4  F000               	nop	
  3865                           
  3866                           ;serial.c: 221: SSP1CON2bits.SEN = 0x1;
  3867  0012C6  80C5               	bsf	4037,0,c	;volatile
  3868  0012C8  B0C5               	btfsc	4037,0,c	;volatile
  3869  0012CA  D7FE               	goto	l1108
  3870                           
  3871                           ;serial.c: 223: PIR1bits.SSP1IF = 0x0;
  3872  0012CC  969E               	bcf	3998,3,c	;volatile
  3873                           
  3874                           ;serial.c: 224: SSP1BUF = wrCommand;
  3875  0012CE  C0FB  FFC9         	movff	I2C1_Write_DigiPot@wrCommand,4041	;volatile
  3876  0012D2  BCC5               	btfsc	4037,6,c	;volatile
  3877  0012D4  D7FE               	goto	l1111
  3878  0012D6                     u3480:
  3879                           
  3880                           ;serial.c: 227: while(!PIR1bits.SSP1IF);
  3881  0012D6  A69E               	btfss	3998,3,c	;volatile
  3882  0012D8  D7FE               	goto	u3480
  3883                           
  3884                           ;serial.c: 228: PIR1bits.SSP1IF = 0x0;
  3885  0012DA  969E               	bcf	3998,3,c	;volatile
  3886                           
  3887                           ;serial.c: 229: SSP1BUF = value;
  3888  0012DC  C0FA  FFC9         	movff	I2C1_Write_DigiPot@value,4041	;volatile
  3889  0012E0  BCC5               	btfsc	4037,6,c	;volatile
  3890  0012E2  D7FE               	goto	l1117
  3891  0012E4                     u3500:
  3892                           
  3893                           ;serial.c: 232: while(!PIR1bits.SSP1IF);
  3894  0012E4  A69E               	btfss	3998,3,c	;volatile
  3895  0012E6  D7FE               	goto	u3500
  3896                           
  3897                           ;serial.c: 233: SSP1CON2bits.PEN = 0x1;
  3898  0012E8  84C5               	bsf	4037,2,c	;volatile
  3899  0012EA  B4C5               	btfsc	4037,2,c	;volatile
  3900  0012EC  D7FE               	goto	l1123
  3901                           
  3902                           ;serial.c: 236: PIR1bits.SSP1IF = 0x0;
  3903  0012EE  969E               	bcf	3998,3,c	;volatile
  3904                           
  3905                           ;serial.c: 237: SSP1CON1bits.SSPEN = 0x1;
  3906  0012F0  8AC6               	bsf	4038,5,c	;volatile
  3907  0012F2  0012               	return		;funcret
  3908  0012F4                     __end_of_I2C1_Write_DigiPot:
  3909                           	opt stack 0
  3910                           tblptru	equ	0xFF8
  3911                           tblptrh	equ	0xFF7
  3912                           tblptrl	equ	0xFF6
  3913                           tablat	equ	0xFF5
  3914                           intcon	equ	0xFF2
  3915                           postinc0	equ	0xFEE
  3916                           wreg	equ	0xFE8
  3917                           postdec1	equ	0xFE5
  3918                           fsr1l	equ	0xFE1
  3919                           status	equ	0xFD8
  3920                           
  3921 ;; *************** function _I2C1_Block_Read_EERPOM *****************
  3922 ;; Defined at:
  3923 ;;		line 100 in file "serial.c"
  3924 ;; Parameters:    Size  Location     Type
  3925 ;;  slot            2    0[BANK0 ] int 
  3926 ;;  bytes           2    2[BANK0 ] int 
  3927 ;;  data            2    4[BANK0 ] PTR unsigned char 
  3928 ;;		 -> parameter(24), 
  3929 ;; Auto vars:     Size  Location     Type
  3930 ;;  n               2    4[BANK1 ] int 
  3931 ;;  dummyWrite      1    3[BANK1 ] unsigned char 
  3932 ;;  memValue        1    2[BANK1 ] unsigned char 
  3933 ;;  rdAddr          1    1[BANK1 ] unsigned char 
  3934 ;; Return value:  Size  Location     Type
  3935 ;;                  1    wreg      void 
  3936 ;; Registers used:
  3937 ;;		wreg, fsr2l, fsr2h, status,2, status,0
  3938 ;; Tracked objects:
  3939 ;;		On entry : 0/0
  3940 ;;		On exit  : 0/0
  3941 ;;		Unchanged: 0/0
  3942 ;; Data sizes:     COMRAM   BANK0   BANK1   BANK2   BANK3   BANK4   BANK5   BANK6   BANK7   BANK8   BANK9  BANK10  BANK1
      +1  BANK12  BANK13
  3943 ;;      Params:         0       6       0       0       0       0       0       0       0       0       0       0       
      +0       0       0
  3944 ;;      Locals:         0       0       5       0       0       0       0       0       0       0       0       0       
      +0       0       0
  3945 ;;      Temps:          0       0       1       0       0       0       0       0       0       0       0       0       
      +0       0       0
  3946 ;;      Totals:         0       6       6       0       0       0       0       0       0       0       0       0       
      +0       0       0
  3947 ;;Total ram usage:       12 bytes
  3948 ;; Hardware stack levels used:    1
  3949 ;; Hardware stack levels required when called:    4
  3950 ;; This function calls:
  3951 ;;		Nothing
  3952 ;; This function is called by:
  3953 ;;		_main
  3954 ;; This function uses a non-reentrant model
  3955 ;;
  3956                           
  3957                           	psect	text21
  3958  000B84                     __ptext21:
  3959                           	opt stack 0
  3960  000B84                     _I2C1_Block_Read_EERPOM:
  3961                           	opt stack 26
  3962                           
  3963                           ;serial.c: 102: char dummyWrite = 0b10100000;
  3964                           
  3965                           ;incstack = 0
  3966  000B84  0EA0               	movlw	160
  3967  000B86  0101               	movlb	1	; () banked
  3968  000B88  6F03               	movwf	I2C1_Block_Read_EERPOM@dummyWrite& (0+255),b
  3969                           
  3970                           ; BSR set to: 1
  3971                           ;serial.c: 103: char rdAddr = (dummyWrite|0x01);
  3972  000B8A  0101               	movlb	1	; () banked
  3973  000B8C  5103               	movf	I2C1_Block_Read_EERPOM@dummyWrite& (0+255),w,b
  3974  000B8E  0901               	iorlw	1
  3975  000B90  0101               	movlb	1	; () banked
  3976  000B92  6F01               	movwf	I2C1_Block_Read_EERPOM@rdAddr& (0+255),b
  3977                           
  3978                           ; BSR set to: 1
  3979                           ;serial.c: 104: char memValue = presetAdd[slot];
  3980  000B94  90D8               	bcf	status,0,c
  3981  000B96  0100               	movlb	0	; () banked
  3982  000B98  35FA               	rlcf	I2C1_Block_Read_EERPOM@slot& (0+255),w,b
  3983  000B9A  6ED9               	movwf	fsr2l,c
  3984  000B9C  0100               	movlb	0	; () banked
  3985  000B9E  35FB               	rlcf	(I2C1_Block_Read_EERPOM@slot+1)& (0+255),w,b
  3986  000BA0  6EDA               	movwf	fsr2h,c
  3987  000BA2  0E78               	movlw	low _presetAdd
  3988  000BA4  26D9               	addwf	fsr2l,f,c
  3989  000BA6  0E00               	movlw	high _presetAdd
  3990  000BA8  22DA               	addwfc	fsr2h,f,c
  3991  000BAA  50DF               	movf	indf2,w,c
  3992  000BAC  0101               	movlb	1	; () banked
  3993  000BAE  6F02               	movwf	I2C1_Block_Read_EERPOM@memValue& (0+255),b
  3994                           
  3995                           ; BSR set to: 1
  3996                           ;serial.c: 105: int n = 0;
  3997  000BB0  0E00               	movlw	0
  3998  000BB2  0101               	movlb	1	; () banked
  3999  000BB4  6F05               	movwf	(I2C1_Block_Read_EERPOM@n+1)& (0+255),b
  4000  000BB6  0E00               	movlw	0
  4001  000BB8  6F04               	movwf	I2C1_Block_Read_EERPOM@n& (0+255),b
  4002                           
  4003                           ; BSR set to: 1
  4004                           ;serial.c: 107: SSP1CON1bits.SSPEN = 0x1;
  4005  000BBA  8AC6               	bsf	4038,5,c	;volatile
  4006                           
  4007                           ; BSR set to: 1
  4008                           ;serial.c: 108: _delay((unsigned long)((5)*(32000000/4000000.0)));
  4009  000BBC  0E0D               	movlw	13
  4010  000BBE                     u3977:
  4011  000BBE  2EE8               	decfsz	wreg,f,c
  4012  000BC0  D7FE               	bra	u3977
  4013  000BC2  F000               	nop	
  4014                           
  4015                           ;serial.c: 110: SSP1CON2bits.SEN = 0x1;
  4016  000BC4  80C5               	bsf	4037,0,c	;volatile
  4017  000BC6  B0C5               	btfsc	4037,0,c	;volatile
  4018  000BC8  D7FE               	goto	l1019
  4019  000BCA                     u3530:
  4020                           
  4021                           ;serial.c: 112: while(!PIR1bits.SSP1IF);
  4022  000BCA  A69E               	btfss	3998,3,c	;volatile
  4023  000BCC  D7FE               	goto	u3530
  4024                           
  4025                           ;serial.c: 113: PIR1bits.SSP1IF = 0x0;
  4026  000BCE  969E               	bcf	3998,3,c	;volatile
  4027                           
  4028                           ;serial.c: 114: SSP1BUF = dummyWrite;
  4029  000BD0  C103  FFC9         	movff	I2C1_Block_Read_EERPOM@dummyWrite,4041	;volatile
  4030                           
  4031                           ;serial.c: 116: if(SSP1CON2bits.ACKSTAT);
  4032  000BD4  50C5               	movf	4037,w,c	;volatile
  4033  000BD6                     
  4034                           ;serial.c: 117: while(!PIR1bits.SSP1IF);
  4035  000BD6  A69E               	btfss	3998,3,c	;volatile
  4036  000BD8  D7FE               	goto	l1024
  4037                           
  4038                           ;serial.c: 118: PIR1bits.SSP1IF = 0x0;
  4039  000BDA  969E               	bcf	3998,3,c	;volatile
  4040                           
  4041                           ;serial.c: 119: SSP1BUF = memValue;
  4042  000BDC  C102  FFC9         	movff	I2C1_Block_Read_EERPOM@memValue,4041	;volatile
  4043  000BE0  BCC5               	btfsc	4037,6,c	;volatile
  4044  000BE2  D7FE               	goto	l1029
  4045  000BE4                     u3560:
  4046                           
  4047                           ;serial.c: 122: while(!PIR1bits.SSP1IF);
  4048  000BE4  A69E               	btfss	3998,3,c	;volatile
  4049  000BE6  D7FE               	goto	u3560
  4050                           
  4051                           ;serial.c: 123: PIR1bits.SSP1IF = 0x0;
  4052  000BE8  969E               	bcf	3998,3,c	;volatile
  4053                           
  4054                           ;serial.c: 124: SSP1CON2bits.RSEN = 0x1;
  4055  000BEA  82C5               	bsf	4037,1,c	;volatile
  4056  000BEC  B2C5               	btfsc	4037,1,c	;volatile
  4057  000BEE  D7FE               	goto	l1035
  4058  000BF0                     u3580:
  4059                           
  4060                           ;serial.c: 127: while(!PIR1bits.SSP1IF);
  4061  000BF0  A69E               	btfss	3998,3,c	;volatile
  4062  000BF2  D7FE               	goto	u3580
  4063                           
  4064                           ;serial.c: 128: PIR1bits.SSP1IF = 0x0;
  4065  000BF4  969E               	bcf	3998,3,c	;volatile
  4066                           
  4067                           ;serial.c: 129: SSP1BUF = rdAddr;
  4068  000BF6  C101  FFC9         	movff	I2C1_Block_Read_EERPOM@rdAddr,4041	;volatile
  4069  000BFA  BCC5               	btfsc	4037,6,c	;volatile
  4070  000BFC  D7FE               	goto	l1041
  4071  000BFE                     u3600:
  4072                           
  4073                           ;serial.c: 132: while(!PIR1bits.SSP1IF);
  4074  000BFE  A69E               	btfss	3998,3,c	;volatile
  4075  000C00  D7FE               	goto	u3600
  4076                           
  4077                           ;serial.c: 133: PIR1bits.SSP1IF = 0x0;
  4078  000C02  969E               	bcf	3998,3,c	;volatile
  4079                           
  4080                           ;serial.c: 135: SSP1CON2bits.RCEN = 0x1;
  4081  000C04  86C5               	bsf	4037,3,c	;volatile
  4082                           
  4083                           ;serial.c: 137: for (n = 0; n < bytes; n++)
  4084  000C06  0E00               	movlw	0
  4085  000C08  0101               	movlb	1	; () banked
  4086  000C0A  6F05               	movwf	(I2C1_Block_Read_EERPOM@n+1)& (0+255),b
  4087  000C0C  0E00               	movlw	0
  4088  000C0E  6F04               	movwf	I2C1_Block_Read_EERPOM@n& (0+255),b
  4089  000C10  D013               	goto	l1046
  4090  000C12                     
  4091                           ; BSR set to: 1
  4092                           
  4093                           ; BSR set to: 1
  4094                           ;serial.c: 138: {
  4095                           ;serial.c: 139: while(!SSP1STATbits.BF);
  4096  000C12  A0C7               	btfss	4039,0,c	;volatile
  4097  000C14  D7FE               	goto	l1047
  4098  000C16                     u3620:
  4099                           
  4100                           ;serial.c: 140: while (!PIR1bits.SSP1IF);
  4101  000C16  A69E               	btfss	3998,3,c	;volatile
  4102  000C18  D7FE               	goto	u3620
  4103                           
  4104                           ;serial.c: 142: data[n] = SSP1BUF;
  4105  000C1A  0101               	movlb	1	; () banked
  4106  000C1C  5104               	movf	I2C1_Block_Read_EERPOM@n& (0+255),w,b
  4107  000C1E  0100               	movlb	0	; () banked
  4108  000C20  25FE               	addwf	I2C1_Block_Read_EERPOM@data& (0+255),w,b
  4109  000C22  6ED9               	movwf	fsr2l,c
  4110  000C24  0101               	movlb	1	; () banked
  4111  000C26  5105               	movf	(I2C1_Block_Read_EERPOM@n+1)& (0+255),w,b
  4112  000C28  0100               	movlb	0	; () banked
  4113  000C2A  21FF               	addwfc	(I2C1_Block_Read_EERPOM@data+1)& (0+255),w,b
  4114  000C2C  6EDA               	movwf	fsr2h,c
  4115  000C2E  CFC9 FFDF          	movff	4041,indf2	;volatile
  4116                           
  4117                           ; BSR set to: 0
  4118  000C32  0101               	movlb	1	; () banked
  4119  000C34  4B04               	infsnz	I2C1_Block_Read_EERPOM@n& (0+255),f,b
  4120  000C36  2B05               	incf	(I2C1_Block_Read_EERPOM@n+1)& (0+255),f,b
  4121  000C38                     l1046:
  4122                           
  4123                           ; BSR set to: 1
  4124                           
  4125                           ; BSR set to: 1
  4126  000C38  0100               	movlb	0	; () banked
  4127  000C3A  51FC               	movf	I2C1_Block_Read_EERPOM@bytes& (0+255),w,b
  4128  000C3C  0101               	movlb	1	; () banked
  4129  000C3E  5D04               	subwf	I2C1_Block_Read_EERPOM@n& (0+255),w,b
  4130  000C40  0101               	movlb	1	; () banked
  4131  000C42  5105               	movf	(I2C1_Block_Read_EERPOM@n+1)& (0+255),w,b
  4132  000C44  0A80               	xorlw	128
  4133  000C46  0101               	movlb	1	; () banked
  4134  000C48  6F00               	movwf	??_I2C1_Block_Read_EERPOM& (0+255),b
  4135  000C4A  0100               	movlb	0	; () banked
  4136  000C4C  51FD               	movf	(I2C1_Block_Read_EERPOM@bytes+1)& (0+255),w,b
  4137  000C4E  0A80               	xorlw	128
  4138  000C50  0101               	movlb	1	; () banked
  4139  000C52  5900               	subwfb	??_I2C1_Block_Read_EERPOM& (0+255),w,b
  4140  000C54  A0D8               	btfss	status,0,c
  4141  000C56  D7DD               	goto	l1047
  4142                           
  4143                           ; BSR set to: 1
  4144                           ;serial.c: 143: }
  4145                           ;serial.c: 145: SSP1CON2bits.ACKDT = 0x1;
  4146  000C58  8AC5               	bsf	4037,5,c	;volatile
  4147                           
  4148                           ;serial.c: 146: SSP1CON2bits.ACKEN = 0x1;
  4149  000C5A  88C5               	bsf	4037,4,c	;volatile
  4150  000C5C                     
  4151                           ; BSR set to: 1
  4152  000C5C  B8C5               	btfsc	4037,4,c	;volatile
  4153  000C5E  D7FE               	goto	l1056
  4154                           
  4155                           ;serial.c: 149: PIR1bits.SSP1IF = 0x0;
  4156  000C60  969E               	bcf	3998,3,c	;volatile
  4157                           
  4158                           ;serial.c: 150: SSP1CON2bits.PEN = 0x1;
  4159  000C62  84C5               	bsf	4037,2,c	;volatile
  4160  000C64  B4C5               	btfsc	4037,2,c	;volatile
  4161  000C66  D7FE               	goto	l1059
  4162                           
  4163                           ;serial.c: 154: PIR1bits.SSP1IF = 0x0;
  4164  000C68  969E               	bcf	3998,3,c	;volatile
  4165                           
  4166                           ;serial.c: 155: SSP1CON1bits.SSPEN = 0x1;
  4167  000C6A  8AC6               	bsf	4038,5,c	;volatile
  4168  000C6C  0012               	return		;funcret
  4169  000C6E                     __end_of_I2C1_Block_Read_EERPOM:
  4170                           	opt stack 0
  4171                           tblptru	equ	0xFF8
  4172                           tblptrh	equ	0xFF7
  4173                           tblptrl	equ	0xFF6
  4174                           tablat	equ	0xFF5
  4175                           intcon	equ	0xFF2
  4176                           postinc0	equ	0xFEE
  4177                           wreg	equ	0xFE8
  4178                           postdec1	equ	0xFE5
  4179                           fsr1l	equ	0xFE1
  4180                           indf2	equ	0xFDF
  4181                           fsr2h	equ	0xFDA
  4182                           fsr2l	equ	0xFD9
  4183                           status	equ	0xFD8
  4184                           
  4185 ;; *************** function _highPriorityISR *****************
  4186 ;; Defined at:
  4187 ;;		line 127 in file "main.c"
  4188 ;; Parameters:    Size  Location     Type
  4189 ;;		None
  4190 ;; Auto vars:     Size  Location     Type
  4191 ;;		None
  4192 ;; Return value:  Size  Location     Type
  4193 ;;                  1    wreg      void 
  4194 ;; Registers used:
  4195 ;;		wreg, fsr2l, fsr2h, status,2, status,0, cstack
  4196 ;; Tracked objects:
  4197 ;;		On entry : 0/0
  4198 ;;		On exit  : 0/0
  4199 ;;		Unchanged: 0/0
  4200 ;; Data sizes:     COMRAM   BANK0   BANK1   BANK2   BANK3   BANK4   BANK5   BANK6   BANK7   BANK8   BANK9  BANK10  BANK1
      +1  BANK12  BANK13
  4201 ;;      Params:         0       0       0       0       0       0       0       0       0       0       0       0       
      +0       0       0
  4202 ;;      Locals:         0       0       0       0       0       0       0       0       0       0       0       0       
      +0       0       0
  4203 ;;      Temps:         18       0       0       0       0       0       0       0       0       0       0       0       
      +0       0       0
  4204 ;;      Totals:        18       0       0       0       0       0       0       0       0       0       0       0       
      +0       0       0
  4205 ;;Total ram usage:       18 bytes
  4206 ;; Hardware stack levels used:    1
  4207 ;; Hardware stack levels required when called:    3
  4208 ;; This function calls:
  4209 ;;		_checkSwitches
  4210 ;;		_flashLED
  4211 ;;		_sendParam
  4212 ;;		_serviceSwitches
  4213 ;;		_tapLED
  4214 ;; This function is called by:
  4215 ;;		Interrupt level 2
  4216 ;; This function uses a non-reentrant model
  4217 ;;
  4218                           
  4219                           	psect	intcode
  4220  000008                     __pintcode:
  4221                           	opt stack 0
  4222  000008                     _highPriorityISR:
  4223                           	opt stack 25
  4224                           
  4225                           ;incstack = 0
  4226  000008  8249               	bsf	btemp,1,c	;set compiler interrupt flag (level 2)
  4227  00000A  CFFA F033          	movff	pclath,??_highPriorityISR
  4228  00000E  CFFB F034          	movff	pclatu,??_highPriorityISR+1
  4229  000012  CFE9 F035          	movff	fsr0l,??_highPriorityISR+2
  4230  000016  CFEA F036          	movff	fsr0h,??_highPriorityISR+3
  4231  00001A  CFE1 F037          	movff	fsr1l,??_highPriorityISR+4
  4232  00001E  CFE2 F038          	movff	fsr1h,??_highPriorityISR+5
  4233  000022  CFD9 F039          	movff	fsr2l,??_highPriorityISR+6
  4234  000026  CFDA F03A          	movff	fsr2h,??_highPriorityISR+7
  4235  00002A  CFF3 F03B          	movff	prodl,??_highPriorityISR+8
  4236  00002E  CFF4 F03C          	movff	prodh,??_highPriorityISR+9
  4237  000032  CFF6 F03D          	movff	tblptrl,??_highPriorityISR+10
  4238  000036  CFF7 F03E          	movff	tblptrh,??_highPriorityISR+11
  4239  00003A  CFF8 F03F          	movff	tblptru,??_highPriorityISR+12
  4240  00003E  CFF5 F040          	movff	tablat,??_highPriorityISR+13
  4241  000042  C049  F041         	movff	btemp,??_highPriorityISR+14
  4242  000046  C04A  F042         	movff	btemp+1,??_highPriorityISR+15
  4243  00004A  C04B  F043         	movff	btemp+2,??_highPriorityISR+16
  4244  00004E  C04C  F044         	movff	btemp+3,??_highPriorityISR+17
  4245                           
  4246                           ;main.c: 130: if(SSP2IF)
  4247  000052  ACA1               	btfss	4001,6,c	;volatile
  4248  000054  D008               	goto	i2l133
  4249                           
  4250                           ;main.c: 131: {
  4251                           ;main.c: 132: PIR2bits.SSP2IF = 0x0;
  4252  000056  9CA1               	bcf	4001,6,c	;volatile
  4253                           
  4254                           ;main.c: 133: sendParam();
  4255  000058  ECE6  F007         	call	_sendParam	;wreg free
  4256                           
  4257                           ;main.c: 134: sync = 1;
  4258  00005C  0E00               	movlw	0
  4259  00005E  0100               	movlb	0	; () banked
  4260  000060  6F87               	movwf	(_sync+1)& (0+255),b
  4261  000062  0E01               	movlw	1
  4262  000064  6F86               	movwf	_sync& (0+255),b
  4263  000066                     i2l133:
  4264                           
  4265                           ;main.c: 135: }
  4266                           ;main.c: 137: if (TMR4IF)
  4267                           
  4268                           ; BSR set to: 0
  4269  000066  A0B8               	btfss	4024,0,c	;volatile
  4270  000068  D007               	goto	i2l134
  4271                           
  4272                           ;main.c: 138: {
  4273                           ;main.c: 139: TMR4IF = 0;
  4274  00006A  90B8               	bcf	4024,0,c	;volatile
  4275                           
  4276                           ;main.c: 140: tapLED();
  4277  00006C  EC62  F007         	call	_tapLED	;wreg free
  4278                           
  4279                           ;main.c: 141: flashLED();
  4280  000070  EC94  F008         	call	_flashLED	;wreg free
  4281                           
  4282                           ;main.c: 142: T4CONbits.TMR4ON = 1;
  4283  000074  010F               	movlb	15	; () banked
  4284  000076  8504               	bsf	4,2,b	;volatile
  4285  000078                     i2l134:
  4286                           
  4287                           ;main.c: 143: }
  4288                           ;main.c: 145: if (TMR2IF)
  4289                           
  4290                           ; BSR set to: 15
  4291  000078  A29E               	btfss	3998,1,c	;volatile
  4292  00007A  D012               	goto	i2l137
  4293                           
  4294                           ;main.c: 146: {
  4295                           ;main.c: 147: TMR2IF = 0;
  4296  00007C  929E               	bcf	3998,1,c	;volatile
  4297                           
  4298                           ;main.c: 148: tapTimeCount++;
  4299  00007E  4A05               	infsnz	_tapTimeCount,f,c
  4300  000080  2A06               	incf	_tapTimeCount+1,f,c
  4301                           
  4302                           ;main.c: 149: if (tapTimeCount >= 3000)
  4303  000082  BE06               	btfsc	_tapTimeCount+1,7,c
  4304  000084  D00C               	goto	i2l136
  4305  000086  0EB8               	movlw	184
  4306  000088  5C05               	subwf	_tapTimeCount,w,c
  4307  00008A  0E0B               	movlw	11
  4308  00008C  5806               	subwfb	_tapTimeCount+1,w,c
  4309  00008E  A0D8               	btfss	status,0,c
  4310  000090  D006               	goto	i2l136
  4311                           
  4312                           ;main.c: 150: {
  4313                           ;main.c: 151: tapTimeCount = 3000;
  4314  000092  0E0B               	movlw	11
  4315  000094  6E06               	movwf	_tapTimeCount+1,c
  4316  000096  0EB8               	movlw	184
  4317  000098  6E05               	movwf	_tapTimeCount,c
  4318                           
  4319                           ;main.c: 152: T2CONbits.TMR2ON = 0;
  4320  00009A  94CA               	bcf	4042,2,c	;volatile
  4321                           
  4322                           ;main.c: 153: }
  4323  00009C  D001               	goto	i2l137
  4324  00009E                     i2l136:
  4325                           
  4326                           ;main.c: 154: else T2CONbits.TMR2ON = 1;
  4327  00009E  84CA               	bsf	4042,2,c	;volatile
  4328  0000A0                     i2l137:
  4329                           
  4330                           ;main.c: 155: }
  4331                           ;main.c: 157: checkSwitches();
  4332  0000A0  ECD1  F006         	call	_checkSwitches	;wreg free
  4333                           
  4334                           ;main.c: 159: if (TMR0IF)
  4335  0000A4  A4F2               	btfss	intcon,2,c	;volatile
  4336  0000A6  D004               	goto	i2l138
  4337                           
  4338                           ;main.c: 160: {
  4339                           ;main.c: 161: TMR0IF = 0;
  4340  0000A8  94F2               	bcf	intcon,2,c	;volatile
  4341                           
  4342                           ;main.c: 162: serviceSwitches();
  4343  0000AA  EC80  F000         	call	_serviceSwitches	;wreg free
  4344                           
  4345                           ;main.c: 163: T0CONbits.TMR0ON = 0x0;
  4346  0000AE  9ED5               	bcf	4053,7,c	;volatile
  4347  0000B0                     i2l138:
  4348  0000B0  C044  F04C         	movff	??_highPriorityISR+17,btemp+3
  4349  0000B4  C043  F04B         	movff	??_highPriorityISR+16,btemp+2
  4350  0000B8  C042  F04A         	movff	??_highPriorityISR+15,btemp+1
  4351  0000BC  C041  F049         	movff	??_highPriorityISR+14,btemp
  4352  0000C0  C040  FFF5         	movff	??_highPriorityISR+13,tablat
  4353  0000C4  C03F  FFF8         	movff	??_highPriorityISR+12,tblptru
  4354  0000C8  C03E  FFF7         	movff	??_highPriorityISR+11,tblptrh
  4355  0000CC  C03D  FFF6         	movff	??_highPriorityISR+10,tblptrl
  4356  0000D0  C03C  FFF4         	movff	??_highPriorityISR+9,prodh
  4357  0000D4  C03B  FFF3         	movff	??_highPriorityISR+8,prodl
  4358  0000D8  C03A  FFDA         	movff	??_highPriorityISR+7,fsr2h
  4359  0000DC  C039  FFD9         	movff	??_highPriorityISR+6,fsr2l
  4360  0000E0  C038  FFE2         	movff	??_highPriorityISR+5,fsr1h
  4361  0000E4  C037  FFE1         	movff	??_highPriorityISR+4,fsr1l
  4362  0000E8  C036  FFEA         	movff	??_highPriorityISR+3,fsr0h
  4363  0000EC  C035  FFE9         	movff	??_highPriorityISR+2,fsr0l
  4364  0000F0  C034  FFFB         	movff	??_highPriorityISR+1,pclatu
  4365  0000F4  C033  FFFA         	movff	??_highPriorityISR,pclath
  4366  0000F8  9249               	bcf	btemp,1,c	;clear compiler interrupt flag (level 2)
  4367  0000FA  0011               	retfie		f
  4368  0000FC                     __end_of_highPriorityISR:
  4369                           	opt stack 0
  4370                           pclatu	equ	0xFFB
  4371                           pclath	equ	0xFFA
  4372                           tblptru	equ	0xFF8
  4373                           tblptrh	equ	0xFF7
  4374                           tblptrl	equ	0xFF6
  4375                           tablat	equ	0xFF5
  4376                           prodh	equ	0xFF4
  4377                           prodl	equ	0xFF3
  4378                           intcon	equ	0xFF2
  4379                           postinc0	equ	0xFEE
  4380                           fsr0h	equ	0xFEA
  4381                           fsr0l	equ	0xFE9
  4382                           wreg	equ	0xFE8
  4383                           postdec1	equ	0xFE5
  4384                           fsr1h	equ	0xFE2
  4385                           fsr1l	equ	0xFE1
  4386                           indf2	equ	0xFDF
  4387                           fsr2h	equ	0xFDA
  4388                           fsr2l	equ	0xFD9
  4389                           status	equ	0xFD8
  4390                           
  4391 ;; *************** function _tapLED *****************
  4392 ;; Defined at:
  4393 ;;		line 75 in file "hardware.c"
  4394 ;; Parameters:    Size  Location     Type
  4395 ;;		None
  4396 ;; Auto vars:     Size  Location     Type
  4397 ;;		None
  4398 ;; Return value:  Size  Location     Type
  4399 ;;                  1    wreg      void 
  4400 ;; Registers used:
  4401 ;;		wreg, status,2, status,0
  4402 ;; Tracked objects:
  4403 ;;		On entry : 0/0
  4404 ;;		On exit  : 0/0
  4405 ;;		Unchanged: 0/0
  4406 ;; Data sizes:     COMRAM   BANK0   BANK1   BANK2   BANK3   BANK4   BANK5   BANK6   BANK7   BANK8   BANK9  BANK10  BANK1
      +1  BANK12  BANK13
  4407 ;;      Params:         0       0       0       0       0       0       0       0       0       0       0       0       
      +0       0       0
  4408 ;;      Locals:         0       0       0       0       0       0       0       0       0       0       0       0       
      +0       0       0
  4409 ;;      Temps:          3       0       0       0       0       0       0       0       0       0       0       0       
      +0       0       0
  4410 ;;      Totals:         3       0       0       0       0       0       0       0       0       0       0       0       
      +0       0       0
  4411 ;;Total ram usage:        3 bytes
  4412 ;; Hardware stack levels used:    1
  4413 ;; This function calls:
  4414 ;;		Nothing
  4415 ;; This function is called by:
  4416 ;;		_highPriorityISR
  4417 ;; This function uses a non-reentrant model
  4418 ;;
  4419                           
  4420                           	psect	text23
  4421  000EC4                     __ptext23:
  4422                           	opt stack 0
  4423  000EC4                     _tapLED:
  4424                           	opt stack 27
  4425                           
  4426                           ;hardware.c: 84: if(tapFlash)
  4427                           
  4428                           ;incstack = 0
  4429  000EC4  0100               	movlb	0	; () banked
  4430  000EC6  51A0               	movf	_tapFlash& (0+255),w,b
  4431  000EC8  0100               	movlb	0	; () banked
  4432  000ECA  11A1               	iorwf	(_tapFlash+1)& (0+255),w,b
  4433  000ECC  B4D8               	btfsc	status,2,c
  4434  000ECE  D017               	goto	i2l719
  4435                           
  4436                           ; BSR set to: 0
  4437                           ;hardware.c: 85: {
  4438                           ;hardware.c: 86: tapDispCount++;
  4439  000ED0  4A0F               	infsnz	_tapDispCount,f,c
  4440  000ED2  2A10               	incf	_tapDispCount+1,f,c
  4441                           
  4442                           ; BSR set to: 0
  4443                           ;hardware.c: 87: if (tapDispCount >= tapOnTime)
  4444  000ED4  5045               	movf	_tapOnTime,w,c
  4445  000ED6  5C0F               	subwf	_tapDispCount,w,c
  4446  000ED8  5010               	movf	_tapDispCount+1,w,c
  4447  000EDA  0A80               	xorlw	128
  4448  000EDC  6E27               	movwf	??_tapLED& (0+255),c
  4449  000EDE  5046               	movf	_tapOnTime+1,w,c
  4450  000EE0  0A80               	xorlw	128
  4451  000EE2  5827               	subwfb	??_tapLED& (0+255),w,c
  4452  000EE4  A0D8               	btfss	status,0,c
  4453  000EE6  0012               	return	
  4454                           
  4455                           ; BSR set to: 0
  4456                           ;hardware.c: 88: {
  4457                           ;hardware.c: 89: tapDispCount = 0;
  4458  000EE8  0E00               	movlw	0
  4459  000EEA  6E10               	movwf	_tapDispCount+1,c
  4460  000EEC  0E00               	movlw	0
  4461  000EEE  6E0F               	movwf	_tapDispCount,c
  4462                           
  4463                           ; BSR set to: 0
  4464                           ;hardware.c: 90: LATE0 = 0;
  4465  000EF0  908D               	bcf	3981,0,c	;volatile
  4466                           
  4467                           ;hardware.c: 91: tapFlash = 0;
  4468  000EF2  0E00               	movlw	0
  4469  000EF4  0100               	movlb	0	; () banked
  4470  000EF6  6FA1               	movwf	(_tapFlash+1)& (0+255),b
  4471  000EF8  0E00               	movlw	0
  4472  000EFA  6FA0               	movwf	_tapFlash& (0+255),b
  4473                           
  4474                           ; BSR set to: 0
  4475                           ;hardware.c: 92: }
  4476                           ;hardware.c: 93: }
  4477  000EFC  0012               	return	
  4478  000EFE                     i2l719:
  4479                           
  4480                           ; BSR set to: 0
  4481                           ;hardware.c: 94: else
  4482                           ;hardware.c: 95: {
  4483                           ;hardware.c: 96: tapDispCount++;
  4484                           
  4485                           ; BSR set to: 0
  4486  000EFE  4A0F               	infsnz	_tapDispCount,f,c
  4487  000F00  2A10               	incf	_tapDispCount+1,f,c
  4488                           
  4489                           ; BSR set to: 0
  4490                           ;hardware.c: 97: if (tapDispCount >= (currentTapTime-tapOnTime))
  4491  000F02  C045  F027         	movff	_tapOnTime,??_tapLED
  4492  000F06  C046  F028         	movff	_tapOnTime+1,??_tapLED+1
  4493  000F0A  1E27               	comf	??_tapLED,f,c
  4494  000F0C  1E28               	comf	??_tapLED+1,f,c
  4495  000F0E  4A27               	infsnz	??_tapLED,f,c
  4496  000F10  2A28               	incf	??_tapLED+1,f,c
  4497  000F12  0100               	movlb	0	; () banked
  4498  000F14  51F6               	movf	_currentTapTime& (0+255),w,b
  4499  000F16  2627               	addwf	??_tapLED,f,c
  4500  000F18  0100               	movlb	0	; () banked
  4501  000F1A  51F7               	movf	(_currentTapTime+1)& (0+255),w,b
  4502  000F1C  2228               	addwfc	??_tapLED+1,f,c
  4503  000F1E  5027               	movf	??_tapLED,w,c
  4504  000F20  5C0F               	subwf	_tapDispCount,w,c
  4505  000F22  5010               	movf	_tapDispCount+1,w,c
  4506  000F24  0A80               	xorlw	128
  4507  000F26  6E29               	movwf	(??_tapLED+2)& (0+255),c
  4508  000F28  5028               	movf	??_tapLED+1,w,c
  4509  000F2A  0A80               	xorlw	128
  4510  000F2C  5829               	subwfb	(??_tapLED+2)& (0+255),w,c
  4511  000F2E  A0D8               	btfss	status,0,c
  4512  000F30  0012               	return	
  4513                           
  4514                           ; BSR set to: 0
  4515                           ;hardware.c: 98: {
  4516                           ;hardware.c: 99: tapDispCount = 0;
  4517  000F32  0E00               	movlw	0
  4518  000F34  6E10               	movwf	_tapDispCount+1,c
  4519  000F36  0E00               	movlw	0
  4520  000F38  6E0F               	movwf	_tapDispCount,c
  4521                           
  4522                           ; BSR set to: 0
  4523                           ;hardware.c: 100: LATE0 = 1;
  4524  000F3A  808D               	bsf	3981,0,c	;volatile
  4525                           
  4526                           ;hardware.c: 101: tapFlash = 1;
  4527  000F3C  0E00               	movlw	0
  4528  000F3E  0100               	movlb	0	; () banked
  4529  000F40  6FA1               	movwf	(_tapFlash+1)& (0+255),b
  4530  000F42  0E01               	movlw	1
  4531  000F44  6FA0               	movwf	_tapFlash& (0+255),b
  4532                           
  4533                           ; BSR set to: 0
  4534  000F46  0012               	return	
  4535  000F48                     __end_of_tapLED:
  4536                           	opt stack 0
  4537                           pclatu	equ	0xFFB
  4538                           pclath	equ	0xFFA
  4539                           tblptru	equ	0xFF8
  4540                           tblptrh	equ	0xFF7
  4541                           tblptrl	equ	0xFF6
  4542                           tablat	equ	0xFF5
  4543                           prodh	equ	0xFF4
  4544                           prodl	equ	0xFF3
  4545                           intcon	equ	0xFF2
  4546                           postinc0	equ	0xFEE
  4547                           fsr0h	equ	0xFEA
  4548                           fsr0l	equ	0xFE9
  4549                           wreg	equ	0xFE8
  4550                           postdec1	equ	0xFE5
  4551                           fsr1h	equ	0xFE2
  4552                           fsr1l	equ	0xFE1
  4553                           indf2	equ	0xFDF
  4554                           fsr2h	equ	0xFDA
  4555                           fsr2l	equ	0xFD9
  4556                           status	equ	0xFD8
  4557                           
  4558 ;; *************** function _serviceSwitches *****************
  4559 ;; Defined at:
  4560 ;;		line 186 in file "hardware.c"
  4561 ;; Parameters:    Size  Location     Type
  4562 ;;		None
  4563 ;; Auto vars:     Size  Location     Type
  4564 ;;		None
  4565 ;; Return value:  Size  Location     Type
  4566 ;;                  1    wreg      void 
  4567 ;; Registers used:
  4568 ;;		wreg, fsr2l, fsr2h, status,2, status,0, cstack
  4569 ;; Tracked objects:
  4570 ;;		On entry : 0/0
  4571 ;;		On exit  : 0/0
  4572 ;;		Unchanged: 0/0
  4573 ;; Data sizes:     COMRAM   BANK0   BANK1   BANK2   BANK3   BANK4   BANK5   BANK6   BANK7   BANK8   BANK9  BANK10  BANK1
      +1  BANK12  BANK13
  4574 ;;      Params:         0       0       0       0       0       0       0       0       0       0       0       0       
      +0       0       0
  4575 ;;      Locals:         0       0       0       0       0       0       0       0       0       0       0       0       
      +0       0       0
  4576 ;;      Temps:          0       0       0       0       0       0       0       0       0       0       0       0       
      +0       0       0
  4577 ;;      Totals:         0       0       0       0       0       0       0       0       0       0       0       0       
      +0       0       0
  4578 ;;Total ram usage:        0 bytes
  4579 ;; Hardware stack levels used:    1
  4580 ;; Hardware stack levels required when called:    2
  4581 ;; This function calls:
  4582 ;;		_I2C1_Page_Write_EEPROM
  4583 ;;		_processTaps
  4584 ;;		_updatePresetLEDs
  4585 ;; This function is called by:
  4586 ;;		_highPriorityISR
  4587 ;; This function uses a non-reentrant model
  4588 ;;
  4589                           
  4590                           	psect	text24
  4591  000100                     __ptext24:
  4592                           	opt stack 0
  4593  000100                     _serviceSwitches:
  4594                           	opt stack 25
  4595                           
  4596                           ;hardware.c: 188: if (fsw1)
  4597                           
  4598                           ; BSR set to: 0
  4599                           ;incstack = 0
  4600  000100  0100               	movlb	0	; () banked
  4601  000102  51AA               	movf	_fsw1& (0+255),w,b
  4602  000104  0100               	movlb	0	; () banked
  4603  000106  11AB               	iorwf	(_fsw1+1)& (0+255),w,b
  4604  000108  B4D8               	btfsc	status,2,c
  4605  00010A  D023               	goto	i2u259_45
  4606                           
  4607                           ; BSR set to: 0
  4608                           ;hardware.c: 189: {
  4609                           ;hardware.c: 190: fsw1 = 0;
  4610  00010C  0E00               	movlw	0
  4611  00010E  0100               	movlb	0	; () banked
  4612  000110  6FAB               	movwf	(_fsw1+1)& (0+255),b
  4613  000112  0E00               	movlw	0
  4614  000114  6FAA               	movwf	_fsw1& (0+255),b
  4615                           
  4616                           ; BSR set to: 0
  4617                           ;hardware.c: 191: if (!RD4)
  4618  000116  B883               	btfsc	3971,4,c	;volatile
  4619  000118  D01C               	goto	i2u259_45
  4620                           
  4621                           ; BSR set to: 0
  4622                           ;hardware.c: 192: {
  4623                           ;hardware.c: 193: bypass ^= 1;
  4624  00011A  0E01               	movlw	1
  4625  00011C  1A17               	xorwf	_bypass,f,c
  4626                           
  4627                           ;hardware.c: 194: if (bypMode)
  4628  00011E  0100               	movlb	0	; () banked
  4629  000120  51F8               	movf	_bypMode& (0+255),w,b
  4630  000122  0100               	movlb	0	; () banked
  4631  000124  11F9               	iorwf	(_bypMode+1)& (0+255),w,b
  4632  000126  B4D8               	btfsc	status,2,c
  4633  000128  D00B               	goto	i2l746
  4634                           
  4635                           ; BSR set to: 0
  4636                           ;hardware.c: 195: {
  4637                           ;hardware.c: 196: LATD3 = !bypass;
  4638  00012A  5017               	movf	_bypass,w,c
  4639  00012C  1018               	iorwf	_bypass+1,w,c
  4640  00012E  A4D8               	btfss	status,2,c
  4641  000130  D002               	goto	i2u252_40
  4642  000132  868C               	bsf	3980,3,c	;volatile
  4643  000134  D001               	goto	i2u253_45
  4644  000136                     i2u252_40:
  4645  000136  968C               	bcf	3980,3,c	;volatile
  4646  000138                     i2u253_45:
  4647                           
  4648                           ;hardware.c: 197: LATB5 = bypass;
  4649  000138  A017               	btfss	_bypass,0,c
  4650  00013A  D005               	goto	L5
  4651  00013C                     i2u254_41:
  4652  00013C  8A8A               	bsf	3978,5,c	;volatile
  4653  00013E  D004               	goto	i2u257_45
  4654  000140                     i2l746:
  4655                           
  4656                           ; BSR set to: 0
  4657                           ;hardware.c: 199: else
  4658                           ;hardware.c: 200: {
  4659                           ;hardware.c: 201: LATD3 = 0;
  4660  000140  968C               	bcf	3980,3,c	;volatile
  4661                           
  4662                           ;hardware.c: 202: LATB5 = bypass;
  4663  000142  B017               	btfsc	_bypass,0,c
  4664  000144  D7FB               	goto	i2u254_41
  4665  000146                     L5:
  4666  000146  9A8A               	bcf	3978,5,c	;volatile
  4667  000148                     i2u257_45:
  4668                           
  4669                           ;hardware.c: 203: }
  4670                           ;hardware.c: 204: LATD2 = bypass;
  4671  000148  A017               	btfss	_bypass,0,c
  4672  00014A  D002               	goto	i2u258_40
  4673  00014C  848C               	bsf	3980,2,c	;volatile
  4674  00014E  D001               	goto	i2u259_45
  4675  000150                     i2u258_40:
  4676  000150  948C               	bcf	3980,2,c	;volatile
  4677  000152                     i2u259_45:
  4678                           
  4679                           ;hardware.c: 205: }
  4680                           ;hardware.c: 206: }
  4681                           ;hardware.c: 208: if (fsw2)
  4682  000152  0100               	movlb	0	; () banked
  4683  000154  51A8               	movf	_fsw2& (0+255),w,b
  4684  000156  0100               	movlb	0	; () banked
  4685  000158  11A9               	iorwf	(_fsw2+1)& (0+255),w,b
  4686  00015A  B4D8               	btfsc	status,2,c
  4687  00015C  D008               	goto	i2l749
  4688                           
  4689                           ; BSR set to: 0
  4690                           ;hardware.c: 209: {
  4691                           ;hardware.c: 210: fsw2 = 0;
  4692  00015E  0E00               	movlw	0
  4693  000160  0100               	movlb	0	; () banked
  4694  000162  6FA9               	movwf	(_fsw2+1)& (0+255),b
  4695  000164  0E00               	movlw	0
  4696  000166  6FA8               	movwf	_fsw2& (0+255),b
  4697                           
  4698                           ; BSR set to: 0
  4699                           ;hardware.c: 211: if (RE3)
  4700  000168  B684               	btfsc	3972,3,c	;volatile
  4701                           
  4702                           ; BSR set to: 0
  4703                           ;hardware.c: 212: {
  4704                           ;hardware.c: 213: processTaps();
  4705  00016A  EC45  F005         	call	_processTaps	;wreg free
  4706  00016E                     i2l749:
  4707                           
  4708                           ;hardware.c: 214: }
  4709                           ;hardware.c: 215: }
  4710                           ;hardware.c: 217: if (switch1)
  4711  00016E  501F               	movf	_switch1,w,c
  4712  000170  1020               	iorwf	_switch1+1,w,c
  4713  000172  B4D8               	btfsc	status,2,c
  4714  000174  D023               	goto	i2l756
  4715                           
  4716                           ;hardware.c: 218: {
  4717                           ;hardware.c: 219: switch1 = 0;
  4718  000176  0E00               	movlw	0
  4719  000178  6E20               	movwf	_switch1+1,c
  4720  00017A  0E00               	movlw	0
  4721  00017C  6E1F               	movwf	_switch1,c
  4722                           
  4723                           ;hardware.c: 220: if (!RG1)
  4724  00017E  B286               	btfsc	3974,1,c	;volatile
  4725  000180  D01D               	goto	i2l756
  4726                           
  4727                           ;hardware.c: 221: {
  4728                           ;hardware.c: 222: intA++;
  4729  000182  4A25               	infsnz	_intA,f,c
  4730  000184  2A26               	incf	_intA+1,f,c
  4731                           
  4732                           ;hardware.c: 223: if (intA >= 3)
  4733  000186  BE26               	btfsc	_intA+1,7,c
  4734  000188  D00A               	goto	i2l752
  4735  00018A  5026               	movf	_intA+1,w,c
  4736  00018C  E104               	bnz	i2u264_40
  4737  00018E  0E03               	movlw	3
  4738  000190  5C25               	subwf	_intA,w,c
  4739  000192  A0D8               	btfss	status,0,c
  4740  000194  D004               	goto	i2l752
  4741  000196                     i2u264_40:
  4742                           
  4743                           ;hardware.c: 224: {
  4744                           ;hardware.c: 225: intA = 0;
  4745  000196  0E00               	movlw	0
  4746  000198  6E26               	movwf	_intA+1,c
  4747  00019A  0E00               	movlw	0
  4748  00019C  6E25               	movwf	_intA,c
  4749  00019E                     i2l752:
  4750                           
  4751                           ;hardware.c: 226: }
  4752                           ;hardware.c: 228: if (intA == 0)
  4753  00019E  5025               	movf	_intA,w,c
  4754  0001A0  1026               	iorwf	_intA+1,w,c
  4755  0001A2  A4D8               	btfss	status,2,c
  4756  0001A4  D003               	goto	i2l753
  4757                           
  4758                           ;hardware.c: 229: {
  4759                           ;hardware.c: 230: LATH7 = 1;
  4760  0001A6  8E90               	bsf	3984,7,c	;volatile
  4761                           
  4762                           ;hardware.c: 231: LATF2 = 0;
  4763  0001A8  948E               	bcf	3982,2,c	;volatile
  4764                           
  4765                           ;hardware.c: 232: }
  4766  0001AA  D008               	goto	i2l756
  4767  0001AC                     i2l753:
  4768                           
  4769                           ;hardware.c: 233: else if (intA == 1)
  4770  0001AC  0425               	decf	_intA,w,c
  4771  0001AE  1026               	iorwf	_intA+1,w,c
  4772  0001B0  A4D8               	btfss	status,2,c
  4773  0001B2  D002               	goto	i2l755
  4774                           
  4775                           ;hardware.c: 234: {
  4776                           ;hardware.c: 235: LATH7 = 0;
  4777  0001B4  9E90               	bcf	3984,7,c	;volatile
  4778  0001B6  D001               	goto	L1
  4779  0001B8                     i2l755:
  4780                           
  4781                           ;hardware.c: 238: else
  4782                           ;hardware.c: 239: {
  4783                           ;hardware.c: 240: LATH7 = 1;
  4784  0001B8  8E90               	bsf	3984,7,c	;volatile
  4785  0001BA                     L1:
  4786                           
  4787                           ;hardware.c: 241: LATF2 = 1;
  4788  0001BA  848E               	bsf	3982,2,c	;volatile
  4789  0001BC                     i2l756:
  4790                           
  4791                           ;hardware.c: 242: }
  4792                           ;hardware.c: 243: }
  4793                           ;hardware.c: 244: }
  4794                           ;hardware.c: 246: if (switch2)
  4795  0001BC  501D               	movf	_switch2,w,c
  4796  0001BE  101E               	iorwf	_switch2+1,w,c
  4797  0001C0  B4D8               	btfsc	status,2,c
  4798  0001C2  D023               	goto	i2l763
  4799                           
  4800                           ;hardware.c: 247: {
  4801                           ;hardware.c: 248: switch2 = 0;
  4802  0001C4  0E00               	movlw	0
  4803  0001C6  6E1E               	movwf	_switch2+1,c
  4804  0001C8  0E00               	movlw	0
  4805  0001CA  6E1D               	movwf	_switch2,c
  4806                           
  4807                           ;hardware.c: 249: if (!RG2)
  4808  0001CC  B486               	btfsc	3974,2,c	;volatile
  4809  0001CE  D01D               	goto	i2l763
  4810                           
  4811                           ;hardware.c: 250: {
  4812                           ;hardware.c: 251: intB++;
  4813  0001D0  4A23               	infsnz	_intB,f,c
  4814  0001D2  2A24               	incf	_intB+1,f,c
  4815                           
  4816                           ;hardware.c: 252: if (intB >= 3)
  4817  0001D4  BE24               	btfsc	_intB+1,7,c
  4818  0001D6  D00A               	goto	i2l759
  4819  0001D8  5024               	movf	_intB+1,w,c
  4820  0001DA  E104               	bnz	i2u269_40
  4821  0001DC  0E03               	movlw	3
  4822  0001DE  5C23               	subwf	_intB,w,c
  4823  0001E0  A0D8               	btfss	status,0,c
  4824  0001E2  D004               	goto	i2l759
  4825  0001E4                     i2u269_40:
  4826                           
  4827                           ;hardware.c: 253: {
  4828                           ;hardware.c: 254: intB = 0;
  4829  0001E4  0E00               	movlw	0
  4830  0001E6  6E24               	movwf	_intB+1,c
  4831  0001E8  0E00               	movlw	0
  4832  0001EA  6E23               	movwf	_intB,c
  4833  0001EC                     i2l759:
  4834                           
  4835                           ;hardware.c: 255: }
  4836                           ;hardware.c: 257: if (intB == 0)
  4837  0001EC  5023               	movf	_intB,w,c
  4838  0001EE  1024               	iorwf	_intB+1,w,c
  4839  0001F0  A4D8               	btfss	status,2,c
  4840  0001F2  D003               	goto	i2l760
  4841                           
  4842                           ;hardware.c: 258: {
  4843                           ;hardware.c: 259: LATF5 = 1;
  4844  0001F4  8A8E               	bsf	3982,5,c	;volatile
  4845                           
  4846                           ;hardware.c: 260: LATF6 = 0;
  4847  0001F6  9C8E               	bcf	3982,6,c	;volatile
  4848                           
  4849                           ;hardware.c: 261: }
  4850  0001F8  D008               	goto	i2l763
  4851  0001FA                     i2l760:
  4852                           
  4853                           ;hardware.c: 262: else if (intB == 1)
  4854  0001FA  0423               	decf	_intB,w,c
  4855  0001FC  1024               	iorwf	_intB+1,w,c
  4856  0001FE  A4D8               	btfss	status,2,c
  4857  000200  D002               	goto	i2l762
  4858                           
  4859                           ;hardware.c: 263: {
  4860                           ;hardware.c: 264: LATF5 = 0;
  4861  000202  9A8E               	bcf	3982,5,c	;volatile
  4862  000204  D001               	goto	L2
  4863  000206                     i2l762:
  4864                           
  4865                           ;hardware.c: 267: else
  4866                           ;hardware.c: 268: {
  4867                           ;hardware.c: 269: LATF5 = 1;
  4868  000206  8A8E               	bsf	3982,5,c	;volatile
  4869  000208                     L2:
  4870                           
  4871                           ;hardware.c: 270: LATF6 = 1;
  4872  000208  8C8E               	bsf	3982,6,c	;volatile
  4873  00020A                     i2l763:
  4874                           
  4875                           ;hardware.c: 271: }
  4876                           ;hardware.c: 272: }
  4877                           ;hardware.c: 273: }
  4878                           ;hardware.c: 275: if (switch3)
  4879  00020A  501B               	movf	_switch3,w,c
  4880  00020C  101C               	iorwf	_switch3+1,w,c
  4881  00020E  B4D8               	btfsc	status,2,c
  4882  000210  D023               	goto	i2l770
  4883                           
  4884                           ;hardware.c: 276: {
  4885                           ;hardware.c: 277: switch3 = 0;
  4886  000212  0E00               	movlw	0
  4887  000214  6E1C               	movwf	_switch3+1,c
  4888  000216  0E00               	movlw	0
  4889  000218  6E1B               	movwf	_switch3,c
  4890                           
  4891                           ;hardware.c: 278: if (!RE6)
  4892  00021A  BC84               	btfsc	3972,6,c	;volatile
  4893  00021C  D01D               	goto	i2l770
  4894                           
  4895                           ;hardware.c: 279: {
  4896                           ;hardware.c: 280: intC++;
  4897  00021E  4A21               	infsnz	_intC,f,c
  4898  000220  2A22               	incf	_intC+1,f,c
  4899                           
  4900                           ;hardware.c: 281: if (intC >= 3)
  4901  000222  BE22               	btfsc	_intC+1,7,c
  4902  000224  D00A               	goto	i2l766
  4903  000226  5022               	movf	_intC+1,w,c
  4904  000228  E104               	bnz	i2u274_40
  4905  00022A  0E03               	movlw	3
  4906  00022C  5C21               	subwf	_intC,w,c
  4907  00022E  A0D8               	btfss	status,0,c
  4908  000230  D004               	goto	i2l766
  4909  000232                     i2u274_40:
  4910                           
  4911                           ;hardware.c: 282: {
  4912                           ;hardware.c: 283: intC = 0;
  4913  000232  0E00               	movlw	0
  4914  000234  6E22               	movwf	_intC+1,c
  4915  000236  0E00               	movlw	0
  4916  000238  6E21               	movwf	_intC,c
  4917  00023A                     i2l766:
  4918                           
  4919                           ;hardware.c: 284: }
  4920                           ;hardware.c: 286: if (intC == 0)
  4921  00023A  5021               	movf	_intC,w,c
  4922  00023C  1022               	iorwf	_intC+1,w,c
  4923  00023E  A4D8               	btfss	status,2,c
  4924  000240  D003               	goto	i2l767
  4925                           
  4926                           ;hardware.c: 287: {
  4927                           ;hardware.c: 288: LATG4 = 1;
  4928  000242  888F               	bsf	3983,4,c	;volatile
  4929                           
  4930                           ;hardware.c: 289: LATH0 = 0;
  4931  000244  9090               	bcf	3984,0,c	;volatile
  4932                           
  4933                           ;hardware.c: 290: }
  4934  000246  D008               	goto	i2l770
  4935  000248                     i2l767:
  4936                           
  4937                           ;hardware.c: 291: else if (intC == 1)
  4938  000248  0421               	decf	_intC,w,c
  4939  00024A  1022               	iorwf	_intC+1,w,c
  4940  00024C  A4D8               	btfss	status,2,c
  4941  00024E  D002               	goto	i2l769
  4942                           
  4943                           ;hardware.c: 292: {
  4944                           ;hardware.c: 293: LATG4 = 0;
  4945  000250  988F               	bcf	3983,4,c	;volatile
  4946  000252  D001               	goto	L3
  4947  000254                     i2l769:
  4948                           
  4949                           ;hardware.c: 296: else
  4950                           ;hardware.c: 297: {
  4951                           ;hardware.c: 298: LATG4 = 1;
  4952  000254  888F               	bsf	3983,4,c	;volatile
  4953  000256                     L3:
  4954                           
  4955                           ;hardware.c: 299: LATH0 = 1;
  4956  000256  8090               	bsf	3984,0,c	;volatile
  4957  000258                     i2l770:
  4958                           
  4959                           ;hardware.c: 300: }
  4960                           ;hardware.c: 301: }
  4961                           ;hardware.c: 302: }
  4962                           ;hardware.c: 304: if (switch4)
  4963  000258  5019               	movf	_switch4,w,c
  4964  00025A  101A               	iorwf	_switch4+1,w,c
  4965  00025C  B4D8               	btfsc	status,2,c
  4966  00025E  D03F               	goto	i2l779
  4967                           
  4968                           ;hardware.c: 305: {
  4969                           ;hardware.c: 306: switch4 = 0;
  4970  000260  0E00               	movlw	0
  4971  000262  6E1A               	movwf	_switch4+1,c
  4972  000264  0E00               	movlw	0
  4973  000266  6E19               	movwf	_switch4,c
  4974                           
  4975                           ;hardware.c: 307: if (!RD1)
  4976  000268  B283               	btfsc	3971,1,c	;volatile
  4977  00026A  D039               	goto	i2l779
  4978                           
  4979                           ;hardware.c: 308: {
  4980                           ;hardware.c: 309: if (!shift)
  4981  00026C  500D               	movf	_shift,w,c
  4982  00026E  100E               	iorwf	_shift+1,w,c
  4983  000270  A4D8               	btfss	status,2,c
  4984  000272  D015               	goto	i2l773
  4985                           
  4986                           ;hardware.c: 310: {
  4987                           ;hardware.c: 311: preset++;
  4988  000274  4A15               	infsnz	_preset,f,c
  4989  000276  2A16               	incf	_preset+1,f,c
  4990                           
  4991                           ;hardware.c: 312: if (preset >= 6)
  4992  000278  BE16               	btfsc	_preset+1,7,c
  4993  00027A  D00A               	goto	i2l774
  4994  00027C  5016               	movf	_preset+1,w,c
  4995  00027E  E104               	bnz	i2u280_40
  4996  000280  0E06               	movlw	6
  4997  000282  5C15               	subwf	_preset,w,c
  4998  000284  A0D8               	btfss	status,0,c
  4999  000286  D004               	goto	i2l774
  5000  000288                     i2u280_40:
  5001                           
  5002                           ;hardware.c: 313: {
  5003                           ;hardware.c: 314: preset = 0;
  5004  000288  0E00               	movlw	0
  5005  00028A  6E16               	movwf	_preset+1,c
  5006  00028C  0E00               	movlw	0
  5007  00028E  6E15               	movwf	_preset,c
  5008  000290                     i2l774:
  5009                           
  5010                           ;hardware.c: 315: }
  5011                           ;hardware.c: 316: updatePresetLEDs(preset);
  5012  000290  C015  F027         	movff	_preset,updatePresetLEDs@psNum
  5013  000294  C016  F028         	movff	_preset+1,updatePresetLEDs@psNum+1
  5014  000298  EC27  F008         	call	_updatePresetLEDs	;wreg free
  5015                           
  5016                           ;hardware.c: 317: }
  5017  00029C  D020               	goto	i2l779
  5018  00029E                     i2l773:
  5019                           
  5020                           ;hardware.c: 318: else
  5021                           ;hardware.c: 319: {
  5022                           ;hardware.c: 320: if (!presetPend)
  5023  00029E  5011               	movf	_presetPend,w,c
  5024  0002A0  1012               	iorwf	_presetPend+1,w,c
  5025  0002A2  A4D8               	btfss	status,2,c
  5026  0002A4  D00E               	goto	i2l776
  5027                           
  5028                           ;hardware.c: 321: {
  5029                           ;hardware.c: 323: targPreset = preset;
  5030  0002A6  C015  F013         	movff	_preset,_targPreset
  5031  0002AA  C016  F014         	movff	_preset+1,_targPreset+1
  5032                           
  5033                           ;hardware.c: 324: presetPend = 1;
  5034  0002AE  0E00               	movlw	0
  5035  0002B0  6E12               	movwf	_presetPend+1,c
  5036  0002B2  0E01               	movlw	1
  5037  0002B4  6E11               	movwf	_presetPend,c
  5038                           
  5039                           ;hardware.c: 325: if (targPreset > 1)
  5040  0002B6  BE14               	btfsc	_targPreset+1,7,c
  5041  0002B8  D012               	goto	i2l779
  5042  0002BA  5014               	movf	_targPreset+1,w,c
  5043  0002BC  E10C               	bnz	i2u283_40
  5044  0002BE  0E02               	movlw	2
  5045  0002C0  D007               	goto	L6
  5046  0002C2                     i2l776:
  5047                           
  5048                           ;hardware.c: 330: else
  5049                           ;hardware.c: 331: {
  5050                           ;hardware.c: 332: targPreset++;
  5051  0002C2  4A13               	infsnz	_targPreset,f,c
  5052  0002C4  2A14               	incf	_targPreset+1,f,c
  5053                           
  5054                           ;hardware.c: 333: if (targPreset > 5)
  5055  0002C6  BE14               	btfsc	_targPreset+1,7,c
  5056  0002C8  D00A               	goto	i2l779
  5057  0002CA  5014               	movf	_targPreset+1,w,c
  5058  0002CC  E104               	bnz	i2u283_40
  5059  0002CE  0E06               	movlw	6
  5060  0002D0                     L6:
  5061  0002D0  5C13               	subwf	_targPreset,w,c
  5062  0002D2  A0D8               	btfss	status,0,c
  5063  0002D4  D004               	goto	i2l779
  5064  0002D6                     i2u283_40:
  5065                           
  5066                           ;hardware.c: 334: {
  5067                           ;hardware.c: 335: targPreset = 1;
  5068  0002D6  0E00               	movlw	0
  5069  0002D8  6E14               	movwf	_targPreset+1,c
  5070  0002DA  0E01               	movlw	1
  5071  0002DC  6E13               	movwf	_targPreset,c
  5072  0002DE                     i2l779:
  5073                           
  5074                           ;hardware.c: 336: }
  5075                           ;hardware.c: 337: }
  5076                           ;hardware.c: 338: }
  5077                           ;hardware.c: 339: }
  5078                           ;hardware.c: 340: }
  5079                           ;hardware.c: 342: if (switch5)
  5080  0002DE  0100               	movlb	0	; () banked
  5081  0002E0  51AC               	movf	_switch5& (0+255),w,b
  5082  0002E2  0100               	movlb	0	; () banked
  5083  0002E4  11AD               	iorwf	(_switch5+1)& (0+255),w,b
  5084  0002E6  B4D8               	btfsc	status,2,c
  5085  0002E8  0012               	return	
  5086                           
  5087                           ; BSR set to: 0
  5088                           ;hardware.c: 343: {
  5089                           ;hardware.c: 344: switch5 = 0;
  5090  0002EA  0E00               	movlw	0
  5091  0002EC  0100               	movlb	0	; () banked
  5092  0002EE  6FAD               	movwf	(_switch5+1)& (0+255),b
  5093  0002F0  0E00               	movlw	0
  5094  0002F2  6FAC               	movwf	_switch5& (0+255),b
  5095                           
  5096                           ; BSR set to: 0
  5097                           ;hardware.c: 345: if (!shift)
  5098  0002F4  500D               	movf	_shift,w,c
  5099  0002F6  100E               	iorwf	_shift+1,w,c
  5100  0002F8  A4D8               	btfss	status,2,c
  5101  0002FA  D00B               	goto	i2l781
  5102                           
  5103                           ; BSR set to: 0
  5104                           ;hardware.c: 346: {
  5105                           ;hardware.c: 347: if (!RG3)
  5106  0002FC  B686               	btfsc	3974,3,c	;volatile
  5107  0002FE  0012               	return	
  5108                           
  5109                           ; BSR set to: 0
  5110                           ;hardware.c: 348: {
  5111                           ;hardware.c: 349: shift = 1;
  5112  000300  0E00               	movlw	0
  5113  000302  6E0E               	movwf	_shift+1,c
  5114  000304  0E01               	movlw	1
  5115  000306  6E0D               	movwf	_shift,c
  5116                           
  5117                           ; BSR set to: 0
  5118                           ;hardware.c: 351: IOCNbits.IOCN7 = 0x0;
  5119  000308  010F               	movlb	15	; () banked
  5120  00030A  9F55               	bcf	85,7,b	;volatile
  5121                           
  5122                           ; BSR set to: 15
  5123                           ;hardware.c: 352: IOCPbits.IOCP7 = 0x1;
  5124  00030C  010F               	movlb	15	; () banked
  5125  00030E  8F56               	bsf	86,7,b	;volatile
  5126                           
  5127                           ; BSR set to: 15
  5128                           ;hardware.c: 353: }
  5129                           ;hardware.c: 354: }
  5130  000310  0012               	return	
  5131  000312                     i2l781:
  5132                           
  5133                           ; BSR set to: 0
  5134                           ;hardware.c: 355: else
  5135                           ;hardware.c: 356: {
  5136                           ;hardware.c: 357: if (RG3)
  5137  000312  A686               	btfss	3974,3,c	;volatile
  5138  000314  0012               	return	
  5139                           
  5140                           ; BSR set to: 0
  5141                           ;hardware.c: 358: {
  5142                           ;hardware.c: 359: shift = 0;
  5143  000316  0E00               	movlw	0
  5144  000318  6E0E               	movwf	_shift+1,c
  5145  00031A  0E00               	movlw	0
  5146  00031C  6E0D               	movwf	_shift,c
  5147                           
  5148                           ; BSR set to: 0
  5149                           ;hardware.c: 361: IOCNbits.IOCN7 = 0x1;
  5150  00031E  010F               	movlb	15	; () banked
  5151  000320  8F55               	bsf	85,7,b	;volatile
  5152                           
  5153                           ; BSR set to: 15
  5154                           ;hardware.c: 362: IOCPbits.IOCP7 = 0x0;
  5155  000322  010F               	movlb	15	; () banked
  5156  000324  9F56               	bcf	86,7,b	;volatile
  5157                           
  5158                           ; BSR set to: 15
  5159                           ;hardware.c: 364: if (!presetPend)
  5160  000326  5011               	movf	_presetPend,w,c
  5161  000328  1012               	iorwf	_presetPend+1,w,c
  5162  00032A  A4D8               	btfss	status,2,c
  5163  00032C  D010               	goto	i2l785
  5164                           
  5165                           ; BSR set to: 15
  5166                           ;hardware.c: 365: {
  5167                           ;hardware.c: 366: swX ^= 1;
  5168  00032E  0E01               	movlw	1
  5169  000330  1A47               	xorwf	_swX,f,c
  5170                           
  5171                           ; BSR set to: 15
  5172                           ;hardware.c: 367: bypMode = swX;
  5173  000332  C047  F0F8         	movff	_swX,_bypMode
  5174  000336  C048  F0F9         	movff	_swX+1,_bypMode+1
  5175                           
  5176                           ;hardware.c: 368: if (swX)
  5177  00033A  5047               	movf	_swX,w,c
  5178  00033C  1048               	iorwf	_swX+1,w,c
  5179  00033E  B4D8               	btfsc	status,2,c
  5180  000340  D003               	goto	i2l786
  5181                           
  5182                           ; BSR set to: 15
  5183                           ;hardware.c: 369: {
  5184                           ;hardware.c: 370: LATE1 = 1;
  5185  000342  828D               	bsf	3981,1,c	;volatile
  5186                           
  5187                           ;hardware.c: 371: LATH1 = 0;
  5188  000344  9290               	bcf	3984,1,c	;volatile
  5189                           
  5190                           ;hardware.c: 372: }
  5191  000346  0012               	return	
  5192  000348                     i2l786:
  5193                           
  5194                           ; BSR set to: 15
  5195                           ;hardware.c: 373: else
  5196                           ;hardware.c: 374: {
  5197                           ;hardware.c: 375: LATE1 = 0;
  5198  000348  928D               	bcf	3981,1,c	;volatile
  5199                           
  5200                           ;hardware.c: 376: LATH1 = 1;
  5201  00034A  8290               	bsf	3984,1,c	;volatile
  5202                           
  5203                           ; BSR set to: 15
  5204                           ;hardware.c: 377: }
  5205                           ;hardware.c: 378: }
  5206  00034C  0012               	return	
  5207  00034E                     i2l785:
  5208                           
  5209                           ; BSR set to: 15
  5210                           ;hardware.c: 379: else
  5211                           ;hardware.c: 380: {
  5212                           ;hardware.c: 381: presetPend = 0;
  5213                           
  5214                           ; BSR set to: 15
  5215  00034E  0E00               	movlw	0
  5216  000350  6E12               	movwf	_presetPend+1,c
  5217  000352  0E00               	movlw	0
  5218  000354  6E11               	movwf	_presetPend,c
  5219                           
  5220                           ; BSR set to: 15
  5221                           ;hardware.c: 382: preset = targPreset;
  5222  000356  C013  F015         	movff	_targPreset,_preset
  5223  00035A  C014  F016         	movff	_targPreset+1,_preset+1
  5224                           
  5225                           ;hardware.c: 383: pFlash = 0;
  5226  00035E  0E00               	movlw	0
  5227  000360  0100               	movlb	0	; () banked
  5228  000362  6FA3               	movwf	(_pFlash+1)& (0+255),b
  5229  000364  0E00               	movlw	0
  5230  000366  6FA2               	movwf	_pFlash& (0+255),b
  5231                           
  5232                           ;hardware.c: 384: pFlashCount = 0;
  5233  000368  0E00               	movlw	0
  5234  00036A  0100               	movlb	0	; () banked
  5235  00036C  6FA5               	movwf	(_pFlashCount+1)& (0+255),b
  5236  00036E  0E00               	movlw	0
  5237  000370  6FA4               	movwf	_pFlashCount& (0+255),b
  5238                           
  5239                           ; BSR set to: 0
  5240                           ;hardware.c: 385: I2C1_Page_Write_EEPROM(preset, parameter, 12);
  5241  000372  C015  F027         	movff	_preset,I2C1_Page_Write_EEPROM@slot
  5242  000376  C016  F028         	movff	_preset+1,I2C1_Page_Write_EEPROM@slot+1
  5243  00037A  0EAE               	movlw	low _parameter
  5244  00037C  6E29               	movwf	I2C1_Page_Write_EEPROM@data,c
  5245  00037E  0E00               	movlw	high _parameter
  5246  000380  6E2A               	movwf	I2C1_Page_Write_EEPROM@data+1,c
  5247  000382  0E00               	movlw	0
  5248  000384  6E2C               	movwf	I2C1_Page_Write_EEPROM@bytes+1,c
  5249  000386  0E0C               	movlw	12
  5250  000388  6E2B               	movwf	I2C1_Page_Write_EEPROM@bytes,c
  5251  00038A  EC86  F006         	call	_I2C1_Page_Write_EEPROM	;wreg free
  5252                           
  5253                           ;hardware.c: 386: updatePresetLEDs(preset);
  5254  00038E  C015  F027         	movff	_preset,updatePresetLEDs@psNum
  5255  000392  C016  F028         	movff	_preset+1,updatePresetLEDs@psNum+1
  5256  000396  EC27  F008         	call	_updatePresetLEDs	;wreg free
  5257  00039A  0012               	return	
  5258  00039C                     __end_of_serviceSwitches:
  5259                           	opt stack 0
  5260                           pclatu	equ	0xFFB
  5261                           pclath	equ	0xFFA
  5262                           tblptru	equ	0xFF8
  5263                           tblptrh	equ	0xFF7
  5264                           tblptrl	equ	0xFF6
  5265                           tablat	equ	0xFF5
  5266                           prodh	equ	0xFF4
  5267                           prodl	equ	0xFF3
  5268                           intcon	equ	0xFF2
  5269                           postinc0	equ	0xFEE
  5270                           fsr0h	equ	0xFEA
  5271                           fsr0l	equ	0xFE9
  5272                           wreg	equ	0xFE8
  5273                           postdec1	equ	0xFE5
  5274                           fsr1h	equ	0xFE2
  5275                           fsr1l	equ	0xFE1
  5276                           indf2	equ	0xFDF
  5277                           fsr2h	equ	0xFDA
  5278                           fsr2l	equ	0xFD9
  5279                           status	equ	0xFD8
  5280                           
  5281 ;; *************** function _processTaps *****************
  5282 ;; Defined at:
  5283 ;;		line 30 in file "hardware.c"
  5284 ;; Parameters:    Size  Location     Type
  5285 ;;		None
  5286 ;; Auto vars:     Size  Location     Type
  5287 ;;  tapDiff         2   10[COMRAM] int 
  5288 ;; Return value:  Size  Location     Type
  5289 ;;                  1    wreg      void 
  5290 ;; Registers used:
  5291 ;;		wreg, status,2, status,0, cstack
  5292 ;; Tracked objects:
  5293 ;;		On entry : 0/0
  5294 ;;		On exit  : 0/0
  5295 ;;		Unchanged: 0/0
  5296 ;; Data sizes:     COMRAM   BANK0   BANK1   BANK2   BANK3   BANK4   BANK5   BANK6   BANK7   BANK8   BANK9  BANK10  BANK1
      +1  BANK12  BANK13
  5297 ;;      Params:         0       0       0       0       0       0       0       0       0       0       0       0       
      +0       0       0
  5298 ;;      Locals:         2       0       0       0       0       0       0       0       0       0       0       0       
      +0       0       0
  5299 ;;      Temps:          2       0       0       0       0       0       0       0       0       0       0       0       
      +0       0       0
  5300 ;;      Totals:         4       0       0       0       0       0       0       0       0       0       0       0       
      +0       0       0
  5301 ;;Total ram usage:        4 bytes
  5302 ;; Hardware stack levels used:    1
  5303 ;; Hardware stack levels required when called:    1
  5304 ;; This function calls:
  5305 ;;		___awdiv
  5306 ;;		_maxTapCheck
  5307 ;;		i2_absVal
  5308 ;; This function is called by:
  5309 ;;		_serviceSwitches
  5310 ;; This function uses a non-reentrant model
  5311 ;;
  5312                           
  5313                           	psect	text25
  5314  000A8A                     __ptext25:
  5315                           	opt stack 0
  5316  000A8A                     _processTaps:
  5317                           	opt stack 25
  5318                           
  5319                           ;hardware.c: 32: int tapDiff = 0;
  5320                           
  5321                           ;incstack = 0
  5322  000A8A  0E00               	movlw	0
  5323  000A8C  6E32               	movwf	processTaps@tapDiff+1,c
  5324  000A8E  0E00               	movlw	0
  5325  000A90  6E31               	movwf	processTaps@tapDiff,c
  5326                           
  5327                           ;hardware.c: 34: if (tap < 1)
  5328  000A92  BE02               	btfsc	_tap+1,7,c
  5329  000A94  D005               	goto	i2u215_40
  5330  000A96  5002               	movf	_tap+1,w,c
  5331  000A98  E114               	bnz	i2l710
  5332  000A9A  0401               	decf	_tap,w,c
  5333  000A9C  B0D8               	btfsc	status,0,c
  5334  000A9E  D011               	goto	i2l710
  5335  000AA0                     i2u215_40:
  5336                           
  5337                           ;hardware.c: 35: {
  5338                           ;hardware.c: 36: T2CONbits.TMR2ON = 0x1;
  5339  000AA0  84CA               	bsf	4042,2,c	;volatile
  5340                           
  5341                           ;hardware.c: 37: tapAccum = 0;
  5342  000AA2  0E00               	movlw	0
  5343  000AA4  0100               	movlb	0	; () banked
  5344  000AA6  6F82               	movwf	_tapAccum& (0+255),b
  5345  000AA8  0E00               	movlw	0
  5346  000AAA  6F83               	movwf	(_tapAccum+1)& (0+255),b
  5347  000AAC  0E00               	movlw	0
  5348  000AAE  6F84               	movwf	(_tapAccum+2)& (0+255),b
  5349  000AB0  0E00               	movlw	0
  5350  000AB2  6F85               	movwf	(_tapAccum+3)& (0+255),b
  5351                           
  5352                           ;hardware.c: 38: tapPrev = 0;
  5353  000AB4  0E00               	movlw	0
  5354  000AB6  6E04               	movwf	_tapPrev+1,c
  5355  000AB8  0E00               	movlw	0
  5356  000ABA  6E03               	movwf	_tapPrev,c
  5357                           
  5358                           ; BSR set to: 0
  5359                           ;hardware.c: 39: tap++;
  5360  000ABC  4A01               	infsnz	_tap,f,c
  5361  000ABE  2A02               	incf	_tap+1,f,c
  5362                           
  5363                           ;hardware.c: 40: }
  5364  000AC0  D05C               	goto	i2l711
  5365  000AC2                     i2l710:
  5366                           
  5367                           ;hardware.c: 41: else
  5368                           ;hardware.c: 42: {
  5369                           ;hardware.c: 43: T2CONbits.TMR2ON = 0;
  5370  000AC2  94CA               	bcf	4042,2,c	;volatile
  5371                           
  5372                           ;hardware.c: 44: tapFlash = 1;
  5373  000AC4  0E00               	movlw	0
  5374  000AC6  0100               	movlb	0	; () banked
  5375  000AC8  6FA1               	movwf	(_tapFlash+1)& (0+255),b
  5376  000ACA  0E01               	movlw	1
  5377  000ACC  6FA0               	movwf	_tapFlash& (0+255),b
  5378                           
  5379                           ;hardware.c: 45: tapDispCount = 0;
  5380  000ACE  0E00               	movlw	0
  5381  000AD0  6E10               	movwf	_tapDispCount+1,c
  5382  000AD2  0E00               	movlw	0
  5383  000AD4  6E0F               	movwf	_tapDispCount,c
  5384                           
  5385                           ; BSR set to: 0
  5386                           ;hardware.c: 46: LATE0 = 0x1;
  5387  000AD6  808D               	bsf	3981,0,c	;volatile
  5388                           
  5389                           ; BSR set to: 0
  5390                           ;hardware.c: 48: if (tap < 2)
  5391  000AD8  BE02               	btfsc	_tap+1,7,c
  5392  000ADA  D006               	goto	i2u216_40
  5393  000ADC  5002               	movf	_tap+1,w,c
  5394  000ADE  E111               	bnz	i2l2957
  5395  000AE0  0E02               	movlw	2
  5396  000AE2  5C01               	subwf	_tap,w,c
  5397  000AE4  B0D8               	btfsc	status,0,c
  5398  000AE6  D00D               	goto	i2l712
  5399  000AE8                     i2u216_40:
  5400                           
  5401                           ; BSR set to: 0
  5402                           ;hardware.c: 49: {
  5403                           ;hardware.c: 50: currentTapTime = tapTimeCount;
  5404  000AE8  C005  F0F6         	movff	_tapTimeCount,_currentTapTime
  5405  000AEC  C006  F0F7         	movff	_tapTimeCount+1,_currentTapTime+1
  5406                           
  5407                           ;hardware.c: 51: tapPrev = tapTimeCount;
  5408  000AF0  C005  F003         	movff	_tapTimeCount,_tapPrev
  5409  000AF4  C006  F004         	movff	_tapTimeCount+1,_tapPrev+1
  5410                           
  5411                           ; BSR set to: 0
  5412                           ;hardware.c: 52: tap++;
  5413  000AF8  4A01               	infsnz	_tap,f,c
  5414  000AFA  2A02               	incf	_tap+1,f,c
  5415                           
  5416                           ; BSR set to: 0
  5417                           ;hardware.c: 53: maxTapCheck();
  5418  000AFC  ECEC  F008         	call	_maxTapCheck	;wreg free
  5419                           
  5420                           ;hardware.c: 54: }
  5421  000B00  D03B               	goto	i2l715
  5422  000B02                     i2l712:
  5423  000B02                     i2l2957:
  5424                           
  5425                           ;hardware.c: 55: else
  5426                           ;hardware.c: 56: {
  5427                           ;hardware.c: 57: tapDiff = tapTimeCount - tapPrev;
  5428  000B02  C003  F02F         	movff	_tapPrev,??_processTaps
  5429  000B06  C004  F030         	movff	_tapPrev+1,??_processTaps+1
  5430  000B0A  1E2F               	comf	??_processTaps,f,c
  5431  000B0C  1E30               	comf	??_processTaps+1,f,c
  5432  000B0E  4A2F               	infsnz	??_processTaps,f,c
  5433  000B10  2A30               	incf	??_processTaps+1,f,c
  5434  000B12  5005               	movf	_tapTimeCount,w,c
  5435  000B14  242F               	addwf	??_processTaps,w,c
  5436  000B16  6E31               	movwf	processTaps@tapDiff,c
  5437  000B18  5006               	movf	_tapTimeCount+1,w,c
  5438  000B1A  2030               	addwfc	??_processTaps+1,w,c
  5439  000B1C  6E32               	movwf	processTaps@tapDiff+1,c
  5440                           
  5441                           ;hardware.c: 58: tapDiff = absVal(tapDiff);
  5442  000B1E  C031  F027         	movff	processTaps@tapDiff,i2absVal@val
  5443  000B22  C032  F028         	movff	processTaps@tapDiff+1,i2absVal@val+1
  5444  000B26  ECC2  F009         	call	i2_absVal	;wreg free
  5445  000B2A  C027  F031         	movff	?i2_absVal,processTaps@tapDiff
  5446  000B2E  C028  F032         	movff	?i2_absVal+1,processTaps@tapDiff+1
  5447                           
  5448                           ;hardware.c: 59: if (tapDiff >= 500)
  5449  000B32  BE32               	btfsc	processTaps@tapDiff+1,7,c
  5450  000B34  D00B               	goto	i2l714
  5451  000B36  0EF4               	movlw	244
  5452  000B38  5C31               	subwf	processTaps@tapDiff,w,c
  5453  000B3A  0E01               	movlw	1
  5454  000B3C  5832               	subwfb	processTaps@tapDiff+1,w,c
  5455  000B3E  A0D8               	btfss	status,0,c
  5456  000B40  D005               	goto	i2l714
  5457                           
  5458                           ;hardware.c: 60: {
  5459                           ;hardware.c: 61: tap = 1;
  5460  000B42  0E00               	movlw	0
  5461  000B44  6E02               	movwf	_tap+1,c
  5462  000B46  0E01               	movlw	1
  5463  000B48  6E01               	movwf	_tap,c
  5464                           
  5465                           ;hardware.c: 62: }
  5466  000B4A  D016               	goto	i2l715
  5467  000B4C                     i2l714:
  5468                           
  5469                           ;hardware.c: 63: else
  5470                           ;hardware.c: 64: {
  5471                           ;hardware.c: 65: currentTapTime = (tapTimeCount + tapPrev)/2;
  5472  000B4C  5003               	movf	_tapPrev,w,c
  5473  000B4E  2405               	addwf	_tapTimeCount,w,c
  5474  000B50  6E27               	movwf	___awdiv@dividend,c
  5475  000B52  5004               	movf	_tapPrev+1,w,c
  5476  000B54  2006               	addwfc	_tapTimeCount+1,w,c
  5477  000B56  6E28               	movwf	___awdiv@dividend+1,c
  5478  000B58  0E00               	movlw	0
  5479  000B5A  6E2A               	movwf	___awdiv@divisor+1,c
  5480  000B5C  0E02               	movlw	2
  5481  000B5E  6E29               	movwf	___awdiv@divisor,c
  5482  000B60  ECA4  F007         	call	___awdiv	;wreg free
  5483  000B64  C027  F0F6         	movff	?___awdiv,_currentTapTime
  5484  000B68  C028  F0F7         	movff	?___awdiv+1,_currentTapTime+1
  5485                           
  5486                           ;hardware.c: 66: tapPrev = tapTimeCount;
  5487  000B6C  C005  F003         	movff	_tapTimeCount,_tapPrev
  5488  000B70  C006  F004         	movff	_tapTimeCount+1,_tapPrev+1
  5489                           
  5490                           ;hardware.c: 67: tap++;
  5491  000B74  4A01               	infsnz	_tap,f,c
  5492  000B76  2A02               	incf	_tap+1,f,c
  5493  000B78                     i2l715:
  5494                           
  5495                           ;hardware.c: 68: }
  5496                           ;hardware.c: 69: }
  5497                           ;hardware.c: 70: T2CONbits.TMR2ON = 1;
  5498  000B78  84CA               	bsf	4042,2,c	;volatile
  5499  000B7A                     i2l711:
  5500                           
  5501                           ;hardware.c: 71: }
  5502                           ;hardware.c: 72: tapTimeCount = 0;
  5503  000B7A  0E00               	movlw	0
  5504  000B7C  6E06               	movwf	_tapTimeCount+1,c
  5505  000B7E  0E00               	movlw	0
  5506  000B80  6E05               	movwf	_tapTimeCount,c
  5507  000B82  0012               	return		;funcret
  5508  000B84                     __end_of_processTaps:
  5509                           	opt stack 0
  5510                           pclatu	equ	0xFFB
  5511                           pclath	equ	0xFFA
  5512                           tblptru	equ	0xFF8
  5513                           tblptrh	equ	0xFF7
  5514                           tblptrl	equ	0xFF6
  5515                           tablat	equ	0xFF5
  5516                           prodh	equ	0xFF4
  5517                           prodl	equ	0xFF3
  5518                           intcon	equ	0xFF2
  5519                           postinc0	equ	0xFEE
  5520                           fsr0h	equ	0xFEA
  5521                           fsr0l	equ	0xFE9
  5522                           wreg	equ	0xFE8
  5523                           postdec1	equ	0xFE5
  5524                           fsr1h	equ	0xFE2
  5525                           fsr1l	equ	0xFE1
  5526                           indf2	equ	0xFDF
  5527                           fsr2h	equ	0xFDA
  5528                           fsr2l	equ	0xFD9
  5529                           status	equ	0xFD8
  5530                           
  5531 ;; *************** function i2_absVal *****************
  5532 ;; Defined at:
  5533 ;;		line 167 in file "main.c"
  5534 ;; Parameters:    Size  Location     Type
  5535 ;;  val             2    0[COMRAM] int 
  5536 ;; Auto vars:     Size  Location     Type
  5537 ;;		None
  5538 ;; Return value:  Size  Location     Type
  5539 ;;                  2    0[COMRAM] int 
  5540 ;; Registers used:
  5541 ;;		wreg, status,2, status,0
  5542 ;; Tracked objects:
  5543 ;;		On entry : 0/0
  5544 ;;		On exit  : 0/0
  5545 ;;		Unchanged: 0/0
  5546 ;; Data sizes:     COMRAM   BANK0   BANK1   BANK2   BANK3   BANK4   BANK5   BANK6   BANK7   BANK8   BANK9  BANK10  BANK1
      +1  BANK12  BANK13
  5547 ;;      Params:         2       0       0       0       0       0       0       0       0       0       0       0       
      +0       0       0
  5548 ;;      Locals:         0       0       0       0       0       0       0       0       0       0       0       0       
      +0       0       0
  5549 ;;      Temps:          2       0       0       0       0       0       0       0       0       0       0       0       
      +0       0       0
  5550 ;;      Totals:         4       0       0       0       0       0       0       0       0       0       0       0       
      +0       0       0
  5551 ;;Total ram usage:        4 bytes
  5552 ;; Hardware stack levels used:    1
  5553 ;; This function calls:
  5554 ;;		Nothing
  5555 ;; This function is called by:
  5556 ;;		_processTaps
  5557 ;; This function uses a non-reentrant model
  5558 ;;
  5559                           
  5560                           	psect	text26
  5561  001384                     __ptext26:
  5562                           	opt stack 0
  5563  001384                     i2_absVal:
  5564                           	opt stack 25
  5565                           
  5566                           ;main.c: 169: if (val < 0)
  5567                           
  5568                           ;incstack = 0
  5569  001384  AE28               	btfss	i2absVal@val+1,7,c
  5570  001386  D00D               	goto	i2l142
  5571                           
  5572                           ;main.c: 170: return -val;
  5573  001388  C027  F029         	movff	i2absVal@val,??i2_absVal
  5574  00138C  C028  F02A         	movff	i2absVal@val+1,??i2_absVal+1
  5575  001390  1E29               	comf	??i2_absVal,f,c
  5576  001392  1E2A               	comf	??i2_absVal+1,f,c
  5577  001394  4A29               	infsnz	??i2_absVal,f,c
  5578  001396  2A2A               	incf	??i2_absVal+1,f,c
  5579  001398  C029  F027         	movff	??i2_absVal,?i2_absVal
  5580  00139C  C02A  F028         	movff	??i2_absVal+1,?i2_absVal+1
  5581  0013A0  0012               	return	
  5582  0013A2                     i2l142:
  5583                           
  5584                           ;main.c: 171: else return val;
  5585  0013A2  C027  F027         	movff	i2absVal@val,?i2_absVal
  5586  0013A6  C028  F028         	movff	i2absVal@val+1,?i2_absVal+1
  5587  0013AA  0012               	return	
  5588  0013AC                     __end_ofi2_absVal:
  5589                           	opt stack 0
  5590                           pclatu	equ	0xFFB
  5591                           pclath	equ	0xFFA
  5592                           tblptru	equ	0xFF8
  5593                           tblptrh	equ	0xFF7
  5594                           tblptrl	equ	0xFF6
  5595                           tablat	equ	0xFF5
  5596                           prodh	equ	0xFF4
  5597                           prodl	equ	0xFF3
  5598                           intcon	equ	0xFF2
  5599                           postinc0	equ	0xFEE
  5600                           fsr0h	equ	0xFEA
  5601                           fsr0l	equ	0xFE9
  5602                           wreg	equ	0xFE8
  5603                           postdec1	equ	0xFE5
  5604                           fsr1h	equ	0xFE2
  5605                           fsr1l	equ	0xFE1
  5606                           indf2	equ	0xFDF
  5607                           fsr2h	equ	0xFDA
  5608                           fsr2l	equ	0xFD9
  5609                           status	equ	0xFD8
  5610                           
  5611 ;; *************** function _maxTapCheck *****************
  5612 ;; Defined at:
  5613 ;;		line 15 in file "hardware.c"
  5614 ;; Parameters:    Size  Location     Type
  5615 ;;		None
  5616 ;; Auto vars:     Size  Location     Type
  5617 ;;		None
  5618 ;; Return value:  Size  Location     Type
  5619 ;;                  1    wreg      void 
  5620 ;; Registers used:
  5621 ;;		wreg, status,2, status,0
  5622 ;; Tracked objects:
  5623 ;;		On entry : 0/0
  5624 ;;		On exit  : 0/0
  5625 ;;		Unchanged: 0/0
  5626 ;; Data sizes:     COMRAM   BANK0   BANK1   BANK2   BANK3   BANK4   BANK5   BANK6   BANK7   BANK8   BANK9  BANK10  BANK1
      +1  BANK12  BANK13
  5627 ;;      Params:         0       0       0       0       0       0       0       0       0       0       0       0       
      +0       0       0
  5628 ;;      Locals:         0       0       0       0       0       0       0       0       0       0       0       0       
      +0       0       0
  5629 ;;      Temps:          0       0       0       0       0       0       0       0       0       0       0       0       
      +0       0       0
  5630 ;;      Totals:         0       0       0       0       0       0       0       0       0       0       0       0       
      +0       0       0
  5631 ;;Total ram usage:        0 bytes
  5632 ;; Hardware stack levels used:    1
  5633 ;; This function calls:
  5634 ;;		Nothing
  5635 ;; This function is called by:
  5636 ;;		_processTaps
  5637 ;; This function uses a non-reentrant model
  5638 ;;
  5639                           
  5640                           	psect	text27
  5641  0011D8                     __ptext27:
  5642                           	opt stack 0
  5643  0011D8                     _maxTapCheck:
  5644                           	opt stack 25
  5645                           
  5646                           ;hardware.c: 17: if (tapTimeCount > 3000)
  5647                           
  5648                           ;incstack = 0
  5649  0011D8  BE06               	btfsc	_tapTimeCount+1,7,c
  5650  0011DA  D00F               	goto	i2l704
  5651  0011DC  0EB9               	movlw	185
  5652  0011DE  5C05               	subwf	_tapTimeCount,w,c
  5653  0011E0  0E0B               	movlw	11
  5654  0011E2  5806               	subwfb	_tapTimeCount+1,w,c
  5655  0011E4  A0D8               	btfss	status,0,c
  5656  0011E6  D009               	goto	i2l704
  5657                           
  5658                           ;hardware.c: 18: {
  5659                           ;hardware.c: 19: tapTimeCount = 0;
  5660  0011E8  0E00               	movlw	0
  5661  0011EA  6E06               	movwf	_tapTimeCount+1,c
  5662  0011EC  0E00               	movlw	0
  5663  0011EE  6E05               	movwf	_tapTimeCount,c
  5664                           
  5665                           ;hardware.c: 20: tap = 0;
  5666  0011F0  0E00               	movlw	0
  5667  0011F2  6E02               	movwf	_tap+1,c
  5668  0011F4  0E00               	movlw	0
  5669  0011F6  6E01               	movwf	_tap,c
  5670                           
  5671                           ;hardware.c: 21: }
  5672  0011F8  0012               	return	
  5673  0011FA                     i2l704:
  5674                           
  5675                           ;hardware.c: 22: else if (tapTimeCount >= 1500)
  5676  0011FA  BE06               	btfsc	_tapTimeCount+1,7,c
  5677  0011FC  0012               	return	
  5678  0011FE  0EDC               	movlw	220
  5679  001200  5C05               	subwf	_tapTimeCount,w,c
  5680  001202  0E05               	movlw	5
  5681  001204  5806               	subwfb	_tapTimeCount+1,w,c
  5682  001206  A0D8               	btfss	status,0,c
  5683  001208  0012               	return	
  5684                           
  5685                           ;hardware.c: 23: {
  5686                           ;hardware.c: 24: newTempo = 1;
  5687  00120A  0E00               	movlw	0
  5688  00120C  0100               	movlb	0	; () banked
  5689  00120E  6F8D               	movwf	(_newTempo+1)& (0+255),b
  5690  001210  0E01               	movlw	1
  5691  001212  6F8C               	movwf	_newTempo& (0+255),b
  5692                           
  5693                           ;hardware.c: 25: tap = 0;
  5694  001214  0E00               	movlw	0
  5695  001216  6E02               	movwf	_tap+1,c
  5696  001218  0E00               	movlw	0
  5697  00121A  6E01               	movwf	_tap,c
  5698                           
  5699                           ;hardware.c: 26: currentTapTime = 1500;
  5700  00121C  0E05               	movlw	5
  5701  00121E  0100               	movlb	0	; () banked
  5702  001220  6FF7               	movwf	(_currentTapTime+1)& (0+255),b
  5703  001222  0EDC               	movlw	220
  5704  001224  6FF6               	movwf	_currentTapTime& (0+255),b
  5705                           
  5706                           ; BSR set to: 0
  5707  001226  0012               	return	
  5708  001228                     __end_of_maxTapCheck:
  5709                           	opt stack 0
  5710                           pclatu	equ	0xFFB
  5711                           pclath	equ	0xFFA
  5712                           tblptru	equ	0xFF8
  5713                           tblptrh	equ	0xFF7
  5714                           tblptrl	equ	0xFF6
  5715                           tablat	equ	0xFF5
  5716                           prodh	equ	0xFF4
  5717                           prodl	equ	0xFF3
  5718                           intcon	equ	0xFF2
  5719                           postinc0	equ	0xFEE
  5720                           fsr0h	equ	0xFEA
  5721                           fsr0l	equ	0xFE9
  5722                           wreg	equ	0xFE8
  5723                           postdec1	equ	0xFE5
  5724                           fsr1h	equ	0xFE2
  5725                           fsr1l	equ	0xFE1
  5726                           indf2	equ	0xFDF
  5727                           fsr2h	equ	0xFDA
  5728                           fsr2l	equ	0xFD9
  5729                           status	equ	0xFD8
  5730                           
  5731 ;; *************** function ___awdiv *****************
  5732 ;; Defined at:
  5733 ;;		line 8 in file "/Applications/microchip/xc8/v1.43/sources/common/awdiv.c"
  5734 ;; Parameters:    Size  Location     Type
  5735 ;;  dividend        2    0[COMRAM] int 
  5736 ;;  divisor         2    2[COMRAM] int 
  5737 ;; Auto vars:     Size  Location     Type
  5738 ;;  quotient        2    6[COMRAM] int 
  5739 ;;  sign            1    5[COMRAM] unsigned char 
  5740 ;;  counter         1    4[COMRAM] unsigned char 
  5741 ;; Return value:  Size  Location     Type
  5742 ;;                  2    0[COMRAM] int 
  5743 ;; Registers used:
  5744 ;;		wreg, status,2, status,0
  5745 ;; Tracked objects:
  5746 ;;		On entry : 0/0
  5747 ;;		On exit  : 0/0
  5748 ;;		Unchanged: 0/0
  5749 ;; Data sizes:     COMRAM   BANK0   BANK1   BANK2   BANK3   BANK4   BANK5   BANK6   BANK7   BANK8   BANK9  BANK10  BANK1
      +1  BANK12  BANK13
  5750 ;;      Params:         4       0       0       0       0       0       0       0       0       0       0       0       
      +0       0       0
  5751 ;;      Locals:         4       0       0       0       0       0       0       0       0       0       0       0       
      +0       0       0
  5752 ;;      Temps:          0       0       0       0       0       0       0       0       0       0       0       0       
      +0       0       0
  5753 ;;      Totals:         8       0       0       0       0       0       0       0       0       0       0       0       
      +0       0       0
  5754 ;;Total ram usage:        8 bytes
  5755 ;; Hardware stack levels used:    1
  5756 ;; This function calls:
  5757 ;;		Nothing
  5758 ;; This function is called by:
  5759 ;;		_processTaps
  5760 ;; This function uses a non-reentrant model
  5761 ;;
  5762                           
  5763                           	psect	text28
  5764  000F48                     __ptext28:
  5765                           	opt stack 0
  5766  000F48                     ___awdiv:
  5767                           	opt stack 25
  5768                           
  5769                           ;incstack = 0
  5770  000F48  0E00               	movlw	0
  5771  000F4A  6E2C               	movwf	___awdiv@sign,c
  5772  000F4C  AE2A               	btfss	___awdiv@divisor+1,7,c
  5773  000F4E  D006               	goto	i2l1299
  5774  000F50  6C29               	negf	___awdiv@divisor,c
  5775  000F52  1E2A               	comf	___awdiv@divisor+1,f,c
  5776  000F54  B0D8               	btfsc	status,0,c
  5777  000F56  2A2A               	incf	___awdiv@divisor+1,f,c
  5778  000F58  0E01               	movlw	1
  5779  000F5A  6E2C               	movwf	___awdiv@sign,c
  5780  000F5C                     i2l1299:
  5781  000F5C  AE28               	btfss	___awdiv@dividend+1,7,c
  5782  000F5E  D006               	goto	i2l1300
  5783  000F60  6C27               	negf	___awdiv@dividend,c
  5784  000F62  1E28               	comf	___awdiv@dividend+1,f,c
  5785  000F64  B0D8               	btfsc	status,0,c
  5786  000F66  2A28               	incf	___awdiv@dividend+1,f,c
  5787  000F68  0E01               	movlw	1
  5788  000F6A  1A2C               	xorwf	___awdiv@sign,f,c
  5789  000F6C                     i2l1300:
  5790  000F6C  0E00               	movlw	0
  5791  000F6E  6E2E               	movwf	___awdiv@quotient+1,c
  5792  000F70  0E00               	movlw	0
  5793  000F72  6E2D               	movwf	___awdiv@quotient,c
  5794  000F74  5029               	movf	___awdiv@divisor,w,c
  5795  000F76  102A               	iorwf	___awdiv@divisor+1,w,c
  5796  000F78  B4D8               	btfsc	status,2,c
  5797  000F7A  D01C               	goto	i2l1307
  5798  000F7C  0E01               	movlw	1
  5799  000F7E  6E2B               	movwf	___awdiv@counter,c
  5800  000F80  D004               	goto	i2l1302
  5801  000F82  90D8               	bcf	status,0,c
  5802  000F84  3629               	rlcf	___awdiv@divisor,f,c
  5803  000F86  362A               	rlcf	___awdiv@divisor+1,f,c
  5804  000F88  2A2B               	incf	___awdiv@counter,f,c
  5805  000F8A                     i2l1302:
  5806  000F8A  AE2A               	btfss	___awdiv@divisor+1,7,c
  5807  000F8C  D7FA               	goto	i2l1303
  5808  000F8E                     i2u198_40:
  5809  000F8E  90D8               	bcf	status,0,c
  5810  000F90  362D               	rlcf	___awdiv@quotient,f,c
  5811  000F92  362E               	rlcf	___awdiv@quotient+1,f,c
  5812  000F94  5029               	movf	___awdiv@divisor,w,c
  5813  000F96  5C27               	subwf	___awdiv@dividend,w,c
  5814  000F98  502A               	movf	___awdiv@divisor+1,w,c
  5815  000F9A  5828               	subwfb	___awdiv@dividend+1,w,c
  5816  000F9C  A0D8               	btfss	status,0,c
  5817  000F9E  D005               	goto	i2l1306
  5818  000FA0  5029               	movf	___awdiv@divisor,w,c
  5819  000FA2  5E27               	subwf	___awdiv@dividend,f,c
  5820  000FA4  502A               	movf	___awdiv@divisor+1,w,c
  5821  000FA6  5A28               	subwfb	___awdiv@dividend+1,f,c
  5822  000FA8  802D               	bsf	___awdiv@quotient,0,c
  5823  000FAA                     i2l1306:
  5824  000FAA  90D8               	bcf	status,0,c
  5825  000FAC  322A               	rrcf	___awdiv@divisor+1,f,c
  5826  000FAE  3229               	rrcf	___awdiv@divisor,f,c
  5827  000FB0  2E2B               	decfsz	___awdiv@counter,f,c
  5828  000FB2  D7ED               	goto	i2u198_40
  5829  000FB4                     i2l1307:
  5830  000FB4  502C               	movf	___awdiv@sign,w,c
  5831  000FB6  B4D8               	btfsc	status,2,c
  5832  000FB8  D004               	goto	i2l1308
  5833  000FBA  6C2D               	negf	___awdiv@quotient,c
  5834  000FBC  1E2E               	comf	___awdiv@quotient+1,f,c
  5835  000FBE  B0D8               	btfsc	status,0,c
  5836  000FC0  2A2E               	incf	___awdiv@quotient+1,f,c
  5837  000FC2                     i2l1308:
  5838  000FC2  C02D  F027         	movff	___awdiv@quotient,?___awdiv
  5839  000FC6  C02E  F028         	movff	___awdiv@quotient+1,?___awdiv+1
  5840  000FCA  0012               	return	
  5841  000FCC                     __end_of___awdiv:
  5842                           	opt stack 0
  5843                           pclatu	equ	0xFFB
  5844                           pclath	equ	0xFFA
  5845                           tblptru	equ	0xFF8
  5846                           tblptrh	equ	0xFF7
  5847                           tblptrl	equ	0xFF6
  5848                           tablat	equ	0xFF5
  5849                           prodh	equ	0xFF4
  5850                           prodl	equ	0xFF3
  5851                           intcon	equ	0xFF2
  5852                           postinc0	equ	0xFEE
  5853                           fsr0h	equ	0xFEA
  5854                           fsr0l	equ	0xFE9
  5855                           wreg	equ	0xFE8
  5856                           postdec1	equ	0xFE5
  5857                           fsr1h	equ	0xFE2
  5858                           fsr1l	equ	0xFE1
  5859                           indf2	equ	0xFDF
  5860                           fsr2h	equ	0xFDA
  5861                           fsr2l	equ	0xFD9
  5862                           status	equ	0xFD8
  5863                           
  5864 ;; *************** function _I2C1_Page_Write_EEPROM *****************
  5865 ;; Defined at:
  5866 ;;		line 64 in file "serial.c"
  5867 ;; Parameters:    Size  Location     Type
  5868 ;;  slot            2    0[COMRAM] int 
  5869 ;;  data            2    2[COMRAM] PTR unsigned char 
  5870 ;;		 -> parameter(24), 
  5871 ;;  bytes           2    4[COMRAM] int 
  5872 ;; Auto vars:     Size  Location     Type
  5873 ;;  n               2    9[COMRAM] int 
  5874 ;;  memValue        1    8[COMRAM] unsigned char 
  5875 ;;  wrDevAddr       1    7[COMRAM] unsigned char 
  5876 ;; Return value:  Size  Location     Type
  5877 ;;                  1    wreg      void 
  5878 ;; Registers used:
  5879 ;;		wreg, fsr2l, fsr2h, status,2, status,0
  5880 ;; Tracked objects:
  5881 ;;		On entry : 0/0
  5882 ;;		On exit  : 0/0
  5883 ;;		Unchanged: 0/0
  5884 ;; Data sizes:     COMRAM   BANK0   BANK1   BANK2   BANK3   BANK4   BANK5   BANK6   BANK7   BANK8   BANK9  BANK10  BANK1
      +1  BANK12  BANK13
  5885 ;;      Params:         6       0       0       0       0       0       0       0       0       0       0       0       
      +0       0       0
  5886 ;;      Locals:         4       0       0       0       0       0       0       0       0       0       0       0       
      +0       0       0
  5887 ;;      Temps:          1       0       0       0       0       0       0       0       0       0       0       0       
      +0       0       0
  5888 ;;      Totals:        11       0       0       0       0       0       0       0       0       0       0       0       
      +0       0       0
  5889 ;;Total ram usage:       11 bytes
  5890 ;; Hardware stack levels used:    1
  5891 ;; This function calls:
  5892 ;;		Nothing
  5893 ;; This function is called by:
  5894 ;;		_serviceSwitches
  5895 ;; This function uses a non-reentrant model
  5896 ;;
  5897                           
  5898                           	psect	text29
  5899  000D0C                     __ptext29:
  5900                           	opt stack 0
  5901  000D0C                     _I2C1_Page_Write_EEPROM:
  5902                           	opt stack 26
  5903                           
  5904                           ;serial.c: 66: char wrDevAddr = 0b10100000;
  5905                           
  5906                           ;incstack = 0
  5907  000D0C  0EA0               	movlw	160
  5908  000D0E  6E2E               	movwf	I2C1_Page_Write_EEPROM@wrDevAddr,c
  5909                           
  5910                           ;serial.c: 67: char memValue = presetAdd[slot];
  5911  000D10  90D8               	bcf	status,0,c
  5912  000D12  3427               	rlcf	I2C1_Page_Write_EEPROM@slot,w,c
  5913  000D14  6ED9               	movwf	fsr2l,c
  5914  000D16  3428               	rlcf	I2C1_Page_Write_EEPROM@slot+1,w,c
  5915  000D18  6EDA               	movwf	fsr2h,c
  5916  000D1A  0E78               	movlw	low _presetAdd
  5917  000D1C  26D9               	addwf	fsr2l,f,c
  5918  000D1E  0E00               	movlw	high _presetAdd
  5919  000D20  22DA               	addwfc	fsr2h,f,c
  5920  000D22  50DF               	movf	indf2,w,c
  5921  000D24  6E2F               	movwf	I2C1_Page_Write_EEPROM@memValue,c
  5922                           
  5923                           ;serial.c: 68: int n = 0;
  5924  000D26  0E00               	movlw	0
  5925  000D28  6E31               	movwf	I2C1_Page_Write_EEPROM@n+1,c
  5926  000D2A  0E00               	movlw	0
  5927  000D2C  6E30               	movwf	I2C1_Page_Write_EEPROM@n,c
  5928                           
  5929                           ;serial.c: 70: SSP1CON1bits.SSPEN = 0x1;
  5930  000D2E  8AC6               	bsf	4038,5,c	;volatile
  5931                           
  5932                           ;serial.c: 71: _delay((unsigned long)((5)*(32000000/4000000.0)));
  5933  000D30  0E0D               	movlw	13
  5934  000D32                     i2u398_47:
  5935  000D32  2EE8               	decfsz	wreg,f,c
  5936  000D34  D7FE               	bra	i2u398_47
  5937  000D36  F000               	nop	
  5938                           
  5939                           ;serial.c: 73: SSP1CON2bits.SEN = 0x1;
  5940  000D38  80C5               	bsf	4037,0,c	;volatile
  5941  000D3A  B0C5               	btfsc	4037,0,c	;volatile
  5942  000D3C  D7FE               	goto	i2l989
  5943                           
  5944                           ;serial.c: 75: PIR1bits.SSP1IF = 0x0;
  5945  000D3E  969E               	bcf	3998,3,c	;volatile
  5946                           
  5947                           ;serial.c: 76: SSP1BUF = wrDevAddr;
  5948  000D40  C02E  FFC9         	movff	I2C1_Page_Write_EEPROM@wrDevAddr,4041	;volatile
  5949  000D44  BCC5               	btfsc	4037,6,c	;volatile
  5950  000D46  D7FE               	goto	i2l992
  5951  000D48                     i2u224_40:
  5952                           
  5953                           ;serial.c: 79: while(!PIR1bits.SSP1IF);
  5954  000D48  A69E               	btfss	3998,3,c	;volatile
  5955  000D4A  D7FE               	goto	i2u224_40
  5956                           
  5957                           ;serial.c: 80: PIR1bits.SSP1IF = 0x0;
  5958  000D4C  969E               	bcf	3998,3,c	;volatile
  5959                           
  5960                           ;serial.c: 81: SSP1BUF = memValue;
  5961  000D4E  C02F  FFC9         	movff	I2C1_Page_Write_EEPROM@memValue,4041	;volatile
  5962                           
  5963                           ;serial.c: 83: for (n = 0; n < bytes; n++)
  5964  000D52  0E00               	movlw	0
  5965  000D54  6E31               	movwf	I2C1_Page_Write_EEPROM@n+1,c
  5966  000D56  0E00               	movlw	0
  5967  000D58  6E30               	movwf	I2C1_Page_Write_EEPROM@n,c
  5968  000D5A  D00F               	goto	i2l997
  5969  000D5C                     
  5970                           ;serial.c: 84: {
  5971                           ;serial.c: 85: while (SSP1CON2bits.ACKSTAT);
  5972  000D5C  BCC5               	btfsc	4037,6,c	;volatile
  5973  000D5E  D7FE               	goto	i2l998
  5974  000D60                     i2u226_40:
  5975                           
  5976                           ;serial.c: 86: while(!PIR1bits.SSP1IF);
  5977  000D60  A69E               	btfss	3998,3,c	;volatile
  5978  000D62  D7FE               	goto	i2u226_40
  5979                           
  5980                           ;serial.c: 87: PIR1bits.SSP1IF = 0x0;
  5981  000D64  969E               	bcf	3998,3,c	;volatile
  5982                           
  5983                           ;serial.c: 88: SSP1BUF = data[n];
  5984  000D66  5030               	movf	I2C1_Page_Write_EEPROM@n,w,c
  5985  000D68  2429               	addwf	I2C1_Page_Write_EEPROM@data,w,c
  5986  000D6A  6ED9               	movwf	fsr2l,c
  5987  000D6C  5031               	movf	I2C1_Page_Write_EEPROM@n+1,w,c
  5988  000D6E  202A               	addwfc	I2C1_Page_Write_EEPROM@data+1,w,c
  5989  000D70  6EDA               	movwf	fsr2h,c
  5990  000D72  50DF               	movf	indf2,w,c
  5991  000D74  6EC9               	movwf	4041,c	;volatile
  5992  000D76  4A30               	infsnz	I2C1_Page_Write_EEPROM@n,f,c
  5993  000D78  2A31               	incf	I2C1_Page_Write_EEPROM@n+1,f,c
  5994  000D7A                     i2l997:
  5995  000D7A  502B               	movf	I2C1_Page_Write_EEPROM@bytes,w,c
  5996  000D7C  5C30               	subwf	I2C1_Page_Write_EEPROM@n,w,c
  5997  000D7E  5031               	movf	I2C1_Page_Write_EEPROM@n+1,w,c
  5998  000D80  0A80               	xorlw	128
  5999  000D82  6E2D               	movwf	??_I2C1_Page_Write_EEPROM& (0+255),c
  6000  000D84  502C               	movf	I2C1_Page_Write_EEPROM@bytes+1,w,c
  6001  000D86  0A80               	xorlw	128
  6002  000D88  582D               	subwfb	??_I2C1_Page_Write_EEPROM& (0+255),w,c
  6003  000D8A  A0D8               	btfss	status,0,c
  6004  000D8C  D7E7               	goto	i2l998
  6005  000D8E                     i2u228_40:
  6006                           
  6007                           ;serial.c: 89: }
  6008                           ;serial.c: 91: while (SSP1CON2bits.ACKSTAT);
  6009  000D8E  BCC5               	btfsc	4037,6,c	;volatile
  6010  000D90  D7FE               	goto	i2u228_40
  6011  000D92                     i2u229_40:
  6012                           
  6013                           ;serial.c: 92: while(!PIR1bits.SSP1IF);
  6014  000D92  A69E               	btfss	3998,3,c	;volatile
  6015  000D94  D7FE               	goto	i2u229_40
  6016                           
  6017                           ;serial.c: 93: SSP1CON2bits.PEN = 0x1;
  6018  000D96  84C5               	bsf	4037,2,c	;volatile
  6019  000D98  B4C5               	btfsc	4037,2,c	;volatile
  6020  000D9A  D7FE               	goto	i2l1013
  6021                           
  6022                           ;serial.c: 96: PIR1bits.SSP1IF = 0x0;
  6023  000D9C  969E               	bcf	3998,3,c	;volatile
  6024                           
  6025                           ;serial.c: 97: SSP1CON1bits.SSPEN = 0x1;
  6026  000D9E  8AC6               	bsf	4038,5,c	;volatile
  6027  000DA0  0012               	return		;funcret
  6028  000DA2                     __end_of_I2C1_Page_Write_EEPROM:
  6029                           	opt stack 0
  6030                           pclatu	equ	0xFFB
  6031                           pclath	equ	0xFFA
  6032                           tblptru	equ	0xFF8
  6033                           tblptrh	equ	0xFF7
  6034                           tblptrl	equ	0xFF6
  6035                           tablat	equ	0xFF5
  6036                           prodh	equ	0xFF4
  6037                           prodl	equ	0xFF3
  6038                           intcon	equ	0xFF2
  6039                           postinc0	equ	0xFEE
  6040                           fsr0h	equ	0xFEA
  6041                           fsr0l	equ	0xFE9
  6042                           wreg	equ	0xFE8
  6043                           postdec1	equ	0xFE5
  6044                           fsr1h	equ	0xFE2
  6045                           fsr1l	equ	0xFE1
  6046                           indf2	equ	0xFDF
  6047                           fsr2h	equ	0xFDA
  6048                           fsr2l	equ	0xFD9
  6049                           status	equ	0xFD8
  6050                           
  6051 ;; *************** function _sendParam *****************
  6052 ;; Defined at:
  6053 ;;		line 240 in file "serial.c"
  6054 ;; Parameters:    Size  Location     Type
  6055 ;;		None
  6056 ;; Auto vars:     Size  Location     Type
  6057 ;;  n               2    2[COMRAM] int 
  6058 ;; Return value:  Size  Location     Type
  6059 ;;                  1    wreg      void 
  6060 ;; Registers used:
  6061 ;;		wreg, fsr2l, fsr2h, status,2, status,0
  6062 ;; Tracked objects:
  6063 ;;		On entry : 0/0
  6064 ;;		On exit  : 0/0
  6065 ;;		Unchanged: 0/0
  6066 ;; Data sizes:     COMRAM   BANK0   BANK1   BANK2   BANK3   BANK4   BANK5   BANK6   BANK7   BANK8   BANK9  BANK10  BANK1
      +1  BANK12  BANK13
  6067 ;;      Params:         0       0       0       0       0       0       0       0       0       0       0       0       
      +0       0       0
  6068 ;;      Locals:         2       0       0       0       0       0       0       0       0       0       0       0       
      +0       0       0
  6069 ;;      Temps:          2       0       0       0       0       0       0       0       0       0       0       0       
      +0       0       0
  6070 ;;      Totals:         4       0       0       0       0       0       0       0       0       0       0       0       
      +0       0       0
  6071 ;;Total ram usage:        4 bytes
  6072 ;; Hardware stack levels used:    1
  6073 ;; This function calls:
  6074 ;;		Nothing
  6075 ;; This function is called by:
  6076 ;;		_highPriorityISR
  6077 ;; This function uses a non-reentrant model
  6078 ;;
  6079                           
  6080                           	psect	text30
  6081  000FCC                     __ptext30:
  6082                           	opt stack 0
  6083  000FCC                     _sendParam:
  6084                           	opt stack 27
  6085                           
  6086                           ;serial.c: 242: int n = 0;
  6087                           
  6088                           ;incstack = 0
  6089  000FCC  0E00               	movlw	0
  6090  000FCE  6E2A               	movwf	sendParam@n+1,c
  6091  000FD0  0E00               	movlw	0
  6092  000FD2  6E29               	movwf	sendParam@n,c
  6093                           
  6094                           ;serial.c: 244: dataTarget = SSP2BUF;
  6095  000FD4  CF03 F09E          	movff	3843,_dataTarget	;volatile
  6096  000FD8  0100               	movlb	0	; () banked
  6097  000FDA  6B9F               	clrf	(_dataTarget+1)& (0+255),b
  6098                           
  6099                           ;serial.c: 248: for (n = 0; n < 12; n++)
  6100  000FDC  0E00               	movlw	0
  6101  000FDE  6E2A               	movwf	sendParam@n+1,c
  6102  000FE0  0E00               	movlw	0
  6103  000FE2  6E29               	movwf	sendParam@n,c
  6104                           
  6105                           ; BSR set to: 0
  6106  000FE4  BE2A               	btfsc	sendParam@n+1,7,c
  6107  000FE6  D003               	goto	i2l1128
  6108  000FE8  502A               	movf	sendParam@n+1,w,c
  6109  000FEA  E12B               	bnz	i2l1129
  6110  000FEC  D026               	goto	L4
  6111  000FEE                     i2l1128:
  6112                           
  6113                           ; BSR set to: 0
  6114                           ;serial.c: 249: {
  6115                           ;serial.c: 250: if (dataTarget == paramAddress[n])
  6116                           
  6117                           ; BSR set to: 0
  6118  000FEE  90D8               	bcf	status,0,c
  6119  000FF0  3429               	rlcf	sendParam@n,w,c
  6120  000FF2  6ED9               	movwf	fsr2l,c
  6121  000FF4  342A               	rlcf	sendParam@n+1,w,c
  6122  000FF6  6EDA               	movwf	fsr2h,c
  6123  000FF8  0EC6               	movlw	low _paramAddress
  6124  000FFA  26D9               	addwf	fsr2l,f,c
  6125  000FFC  0E00               	movlw	high _paramAddress
  6126  000FFE  22DA               	addwfc	fsr2h,f,c
  6127  001000  0100               	movlb	0	; () banked
  6128  001002  519E               	movf	_dataTarget& (0+255),w,b
  6129  001004  18DE               	xorwf	postinc2,w,c
  6130  001006  E113               	bnz	i2l3027
  6131  001008  0100               	movlb	0	; () banked
  6132  00100A  519F               	movf	(_dataTarget+1)& (0+255),w,b
  6133  00100C  18DE               	xorwf	postinc2,w,c
  6134  00100E  A4D8               	btfss	status,2,c
  6135  001010  D00E               	goto	i2l1130
  6136                           
  6137                           ; BSR set to: 0
  6138                           ;serial.c: 251: {
  6139                           ;serial.c: 252: dataPtr = parameter[n];
  6140  001012  90D8               	bcf	status,0,c
  6141  001014  3429               	rlcf	sendParam@n,w,c
  6142  001016  6ED9               	movwf	fsr2l,c
  6143  001018  342A               	rlcf	sendParam@n+1,w,c
  6144  00101A  6EDA               	movwf	fsr2h,c
  6145  00101C  0EAE               	movlw	low _parameter
  6146  00101E  26D9               	addwf	fsr2l,f,c
  6147  001020  0E00               	movlw	high _parameter
  6148  001022  22DA               	addwfc	fsr2h,f,c
  6149  001024  CFDE F09C          	movff	postinc2,_dataPtr
  6150  001028  CFDD F09D          	movff	postdec2,_dataPtr+1
  6151                           
  6152                           ;serial.c: 253: break;
  6153  00102C  D00A               	goto	i2u234_40
  6154  00102E                     i2l1130:
  6155  00102E                     i2l3027:
  6156                           
  6157                           ; BSR set to: 0
  6158  00102E  4A29               	infsnz	sendParam@n,f,c
  6159  001030  2A2A               	incf	sendParam@n+1,f,c
  6160                           
  6161                           ; BSR set to: 0
  6162  001032  BE2A               	btfsc	sendParam@n+1,7,c
  6163  001034  D7DC               	goto	i2l1128
  6164  001036  502A               	movf	sendParam@n+1,w,c
  6165  001038  E104               	bnz	i2u234_40
  6166  00103A                     L4:
  6167  00103A  0E0C               	movlw	12
  6168  00103C  5C29               	subwf	sendParam@n,w,c
  6169  00103E  A0D8               	btfss	status,0,c
  6170  001040  D7D6               	goto	i2l1128
  6171  001042                     i2u234_40:
  6172  001042                     i2l1129:
  6173                           
  6174                           ; BSR set to: 0
  6175                           ;serial.c: 254: }
  6176                           ;serial.c: 255: }
  6177                           ;serial.c: 257: SSP2BUF = dataPtr;
  6178  001042  C09C  FF03         	movff	_dataPtr,3843	;volatile
  6179                           
  6180                           ;serial.c: 258: SSP2CON1bits.CKP = 0x1;
  6181  001046  010F               	movlb	15	; () banked
  6182  001048  8919               	bsf	25,4,b	;volatile
  6183                           
  6184                           ;serial.c: 259: PIR2bits.SSP2IF = 0x0;
  6185  00104A  9CA1               	bcf	4001,6,c	;volatile
  6186                           
  6187                           ; BSR set to: 15
  6188  00104C  0012               	return		;funcret
  6189  00104E                     __end_of_sendParam:
  6190                           	opt stack 0
  6191                           pclatu	equ	0xFFB
  6192                           pclath	equ	0xFFA
  6193                           tblptru	equ	0xFF8
  6194                           tblptrh	equ	0xFF7
  6195                           tblptrl	equ	0xFF6
  6196                           tablat	equ	0xFF5
  6197                           prodh	equ	0xFF4
  6198                           prodl	equ	0xFF3
  6199                           intcon	equ	0xFF2
  6200                           postinc0	equ	0xFEE
  6201                           fsr0h	equ	0xFEA
  6202                           fsr0l	equ	0xFE9
  6203                           wreg	equ	0xFE8
  6204                           postdec1	equ	0xFE5
  6205                           fsr1h	equ	0xFE2
  6206                           fsr1l	equ	0xFE1
  6207                           indf2	equ	0xFDF
  6208                           postinc2	equ	0xFDE
  6209                           postdec2	equ	0xFDD
  6210                           fsr2h	equ	0xFDA
  6211                           fsr2l	equ	0xFD9
  6212                           status	equ	0xFD8
  6213                           
  6214 ;; *************** function _flashLED *****************
  6215 ;; Defined at:
  6216 ;;		line 106 in file "hardware.c"
  6217 ;; Parameters:    Size  Location     Type
  6218 ;;		None
  6219 ;; Auto vars:     Size  Location     Type
  6220 ;;		None
  6221 ;; Return value:  Size  Location     Type
  6222 ;;                  1    wreg      void 
  6223 ;; Registers used:
  6224 ;;		wreg, status,2, status,0, cstack
  6225 ;; Tracked objects:
  6226 ;;		On entry : 0/0
  6227 ;;		On exit  : 0/0
  6228 ;;		Unchanged: 0/0
  6229 ;; Data sizes:     COMRAM   BANK0   BANK1   BANK2   BANK3   BANK4   BANK5   BANK6   BANK7   BANK8   BANK9  BANK10  BANK1
      +1  BANK12  BANK13
  6230 ;;      Params:         0       0       0       0       0       0       0       0       0       0       0       0       
      +0       0       0
  6231 ;;      Locals:         0       0       0       0       0       0       0       0       0       0       0       0       
      +0       0       0
  6232 ;;      Temps:          0       0       0       0       0       0       0       0       0       0       0       0       
      +0       0       0
  6233 ;;      Totals:         0       0       0       0       0       0       0       0       0       0       0       0       
      +0       0       0
  6234 ;;Total ram usage:        0 bytes
  6235 ;; Hardware stack levels used:    1
  6236 ;; Hardware stack levels required when called:    1
  6237 ;; This function calls:
  6238 ;;		_updatePresetLEDs
  6239 ;; This function is called by:
  6240 ;;		_highPriorityISR
  6241 ;; This function uses a non-reentrant model
  6242 ;;
  6243                           
  6244                           	psect	text31
  6245  001128                     __ptext31:
  6246                           	opt stack 0
  6247  001128                     _flashLED:
  6248                           	opt stack 26
  6249                           
  6250                           ;hardware.c: 108: if (presetPend)
  6251                           
  6252                           ; BSR set to: 15
  6253                           ;incstack = 0
  6254  001128  5011               	movf	_presetPend,w,c
  6255  00112A  1012               	iorwf	_presetPend+1,w,c
  6256  00112C  B4D8               	btfsc	status,2,c
  6257  00112E  0012               	return	
  6258                           
  6259                           ;hardware.c: 109: {
  6260                           ;hardware.c: 110: pFlashCount++;
  6261  001130  0100               	movlb	0	; () banked
  6262  001132  4BA4               	infsnz	_pFlashCount& (0+255),f,b
  6263  001134  2BA5               	incf	(_pFlashCount+1)& (0+255),f,b
  6264                           
  6265                           ; BSR set to: 0
  6266                           ;hardware.c: 111: if (pFlashCount > 200)
  6267  001136  0100               	movlb	0	; () banked
  6268  001138  BFA5               	btfsc	(_pFlashCount+1)& (0+255),7,b
  6269  00113A  0012               	return	
  6270  00113C  0100               	movlb	0	; () banked
  6271  00113E  51A5               	movf	(_pFlashCount+1)& (0+255),w,b
  6272  001140  E105               	bnz	i2u239_40
  6273  001142  0EC9               	movlw	201
  6274  001144  0100               	movlb	0	; () banked
  6275  001146  5DA4               	subwf	_pFlashCount& (0+255),w,b
  6276  001148  A0D8               	btfss	status,0,c
  6277  00114A  0012               	return	
  6278  00114C                     i2u239_40:
  6279                           
  6280                           ; BSR set to: 0
  6281                           ;hardware.c: 112: {
  6282                           ;hardware.c: 113: if (pFlash)
  6283  00114C  0100               	movlb	0	; () banked
  6284  00114E  51A2               	movf	_pFlash& (0+255),w,b
  6285  001150  0100               	movlb	0	; () banked
  6286  001152  11A3               	iorwf	(_pFlash+1)& (0+255),w,b
  6287  001154  B4D8               	btfsc	status,2,c
  6288  001156  D007               	goto	i2l728
  6289                           
  6290                           ; BSR set to: 0
  6291                           ;hardware.c: 114: {
  6292                           ;hardware.c: 115: updatePresetLEDs(targPreset);
  6293  001158  C013  F027         	movff	_targPreset,updatePresetLEDs@psNum
  6294  00115C  C014  F028         	movff	_targPreset+1,updatePresetLEDs@psNum+1
  6295  001160  EC27  F008         	call	_updatePresetLEDs	;wreg free
  6296                           
  6297                           ;hardware.c: 116: }
  6298  001164  D006               	goto	i2l729
  6299  001166                     i2l728:
  6300                           
  6301                           ;hardware.c: 117: else
  6302                           ;hardware.c: 118: {
  6303                           ;hardware.c: 119: updatePresetLEDs(0);
  6304  001166  0E00               	movlw	0
  6305  001168  6E28               	movwf	updatePresetLEDs@psNum+1,c
  6306  00116A  0E00               	movlw	0
  6307  00116C  6E27               	movwf	updatePresetLEDs@psNum,c
  6308  00116E  EC27  F008         	call	_updatePresetLEDs	;wreg free
  6309  001172                     i2l729:
  6310                           
  6311                           ;hardware.c: 120: }
  6312                           ;hardware.c: 121: pFlash ^= 1;
  6313  001172  0E01               	movlw	1
  6314  001174  0100               	movlb	0	; () banked
  6315  001176  1BA2               	xorwf	_pFlash& (0+255),f,b
  6316                           
  6317                           ; BSR set to: 0
  6318                           ;hardware.c: 122: pFlashCount = 0;
  6319  001178  0E00               	movlw	0
  6320  00117A  0100               	movlb	0	; () banked
  6321  00117C  6FA5               	movwf	(_pFlashCount+1)& (0+255),b
  6322  00117E  0E00               	movlw	0
  6323  001180  6FA4               	movwf	_pFlashCount& (0+255),b
  6324                           
  6325                           ; BSR set to: 0
  6326  001182  0012               	return	
  6327  001184                     __end_of_flashLED:
  6328                           	opt stack 0
  6329                           pclatu	equ	0xFFB
  6330                           pclath	equ	0xFFA
  6331                           tblptru	equ	0xFF8
  6332                           tblptrh	equ	0xFF7
  6333                           tblptrl	equ	0xFF6
  6334                           tablat	equ	0xFF5
  6335                           prodh	equ	0xFF4
  6336                           prodl	equ	0xFF3
  6337                           intcon	equ	0xFF2
  6338                           postinc0	equ	0xFEE
  6339                           fsr0h	equ	0xFEA
  6340                           fsr0l	equ	0xFE9
  6341                           wreg	equ	0xFE8
  6342                           postdec1	equ	0xFE5
  6343                           fsr1h	equ	0xFE2
  6344                           fsr1l	equ	0xFE1
  6345                           indf2	equ	0xFDF
  6346                           postinc2	equ	0xFDE
  6347                           postdec2	equ	0xFDD
  6348                           fsr2h	equ	0xFDA
  6349                           fsr2l	equ	0xFD9
  6350                           status	equ	0xFD8
  6351                           
  6352 ;; *************** function _updatePresetLEDs *****************
  6353 ;; Defined at:
  6354 ;;		line 532 in file "hardware.c"
  6355 ;; Parameters:    Size  Location     Type
  6356 ;;  psNum           2    0[COMRAM] int 
  6357 ;; Auto vars:     Size  Location     Type
  6358 ;;		None
  6359 ;; Return value:  Size  Location     Type
  6360 ;;                  1    wreg      void 
  6361 ;; Registers used:
  6362 ;;		wreg, status,2, status,0
  6363 ;; Tracked objects:
  6364 ;;		On entry : 0/0
  6365 ;;		On exit  : 0/0
  6366 ;;		Unchanged: 0/0
  6367 ;; Data sizes:     COMRAM   BANK0   BANK1   BANK2   BANK3   BANK4   BANK5   BANK6   BANK7   BANK8   BANK9  BANK10  BANK1
      +1  BANK12  BANK13
  6368 ;;      Params:         2       0       0       0       0       0       0       0       0       0       0       0       
      +0       0       0
  6369 ;;      Locals:         0       0       0       0       0       0       0       0       0       0       0       0       
      +0       0       0
  6370 ;;      Temps:          0       0       0       0       0       0       0       0       0       0       0       0       
      +0       0       0
  6371 ;;      Totals:         2       0       0       0       0       0       0       0       0       0       0       0       
      +0       0       0
  6372 ;;Total ram usage:        2 bytes
  6373 ;; Hardware stack levels used:    1
  6374 ;; This function calls:
  6375 ;;		Nothing
  6376 ;; This function is called by:
  6377 ;;		_flashLED
  6378 ;;		_serviceSwitches
  6379 ;; This function uses a non-reentrant model
  6380 ;;
  6381                           
  6382                           	psect	text32
  6383  00104E                     __ptext32:
  6384                           	opt stack 0
  6385  00104E                     _updatePresetLEDs:
  6386                           	opt stack 26
  6387                           
  6388                           ;hardware.c: 534: if (psNum == 1)
  6389                           
  6390                           ;incstack = 0
  6391  00104E  0427               	decf	updatePresetLEDs@psNum,w,c
  6392  001050  1028               	iorwf	updatePresetLEDs@psNum+1,w,c
  6393  001052  A4D8               	btfss	status,2,c
  6394  001054  D006               	goto	i2l828
  6395                           
  6396                           ;hardware.c: 535: {
  6397                           ;hardware.c: 536: LATD0 = 1;
  6398  001056  808C               	bsf	3980,0,c	;volatile
  6399                           
  6400                           ;hardware.c: 537: LATE7 = 0;
  6401  001058  9E8D               	bcf	3981,7,c	;volatile
  6402                           
  6403                           ;hardware.c: 538: LATE5 = 0;
  6404  00105A  9A8D               	bcf	3981,5,c	;volatile
  6405                           
  6406                           ;hardware.c: 539: LATE4 = 0;
  6407  00105C  988D               	bcf	3981,4,c	;volatile
  6408                           
  6409                           ;hardware.c: 540: LATH2 = 0;
  6410  00105E  9490               	bcf	3984,2,c	;volatile
  6411                           
  6412                           ;hardware.c: 541: }
  6413  001060  0012               	return	
  6414  001062                     i2l828:
  6415                           
  6416                           ;hardware.c: 542: else if (psNum == 2)
  6417  001062  0E02               	movlw	2
  6418  001064  1827               	xorwf	updatePresetLEDs@psNum,w,c
  6419  001066  1028               	iorwf	updatePresetLEDs@psNum+1,w,c
  6420  001068  A4D8               	btfss	status,2,c
  6421  00106A  D006               	goto	i2l830
  6422                           
  6423                           ;hardware.c: 543: {
  6424                           ;hardware.c: 544: LATD0 = 0;
  6425  00106C  908C               	bcf	3980,0,c	;volatile
  6426                           
  6427                           ;hardware.c: 545: LATE7 = 1;
  6428  00106E  8E8D               	bsf	3981,7,c	;volatile
  6429                           
  6430                           ;hardware.c: 546: LATE5 = 0;
  6431  001070  9A8D               	bcf	3981,5,c	;volatile
  6432                           
  6433                           ;hardware.c: 547: LATE4 = 0;
  6434  001072  988D               	bcf	3981,4,c	;volatile
  6435                           
  6436                           ;hardware.c: 548: LATH2 = 0;
  6437  001074  9490               	bcf	3984,2,c	;volatile
  6438                           
  6439                           ;hardware.c: 549: }
  6440  001076  0012               	return	
  6441  001078                     i2l830:
  6442                           
  6443                           ;hardware.c: 550: else if (psNum == 3)
  6444  001078  0E03               	movlw	3
  6445  00107A  1827               	xorwf	updatePresetLEDs@psNum,w,c
  6446  00107C  1028               	iorwf	updatePresetLEDs@psNum+1,w,c
  6447  00107E  A4D8               	btfss	status,2,c
  6448  001080  D006               	goto	i2l832
  6449                           
  6450                           ;hardware.c: 551: {
  6451                           ;hardware.c: 552: LATD0 = 0;
  6452  001082  908C               	bcf	3980,0,c	;volatile
  6453                           
  6454                           ;hardware.c: 553: LATE7 = 0;
  6455  001084  9E8D               	bcf	3981,7,c	;volatile
  6456                           
  6457                           ;hardware.c: 554: LATE5 = 1;
  6458  001086  8A8D               	bsf	3981,5,c	;volatile
  6459                           
  6460                           ;hardware.c: 555: LATE4 = 0;
  6461  001088  988D               	bcf	3981,4,c	;volatile
  6462                           
  6463                           ;hardware.c: 556: LATH2 = 0;
  6464  00108A  9490               	bcf	3984,2,c	;volatile
  6465                           
  6466                           ;hardware.c: 557: }
  6467  00108C  0012               	return	
  6468  00108E                     i2l832:
  6469                           
  6470                           ;hardware.c: 558: else if (psNum == 4)
  6471  00108E  0E04               	movlw	4
  6472  001090  1827               	xorwf	updatePresetLEDs@psNum,w,c
  6473  001092  1028               	iorwf	updatePresetLEDs@psNum+1,w,c
  6474  001094  A4D8               	btfss	status,2,c
  6475  001096  D006               	goto	i2l834
  6476                           
  6477                           ;hardware.c: 559: {
  6478                           ;hardware.c: 560: LATD0 = 0;
  6479  001098  908C               	bcf	3980,0,c	;volatile
  6480                           
  6481                           ;hardware.c: 561: LATE7 = 0;
  6482  00109A  9E8D               	bcf	3981,7,c	;volatile
  6483                           
  6484                           ;hardware.c: 562: LATE5 = 0;
  6485  00109C  9A8D               	bcf	3981,5,c	;volatile
  6486                           
  6487                           ;hardware.c: 563: LATE4 = 1;
  6488  00109E  888D               	bsf	3981,4,c	;volatile
  6489                           
  6490                           ;hardware.c: 564: LATH2 = 0;
  6491  0010A0  9490               	bcf	3984,2,c	;volatile
  6492                           
  6493                           ;hardware.c: 565: }
  6494  0010A2  0012               	return	
  6495  0010A4                     i2l834:
  6496                           
  6497                           ;hardware.c: 566: else if (psNum == 5)
  6498  0010A4  0E05               	movlw	5
  6499  0010A6  1827               	xorwf	updatePresetLEDs@psNum,w,c
  6500  0010A8  1028               	iorwf	updatePresetLEDs@psNum+1,w,c
  6501  0010AA  A4D8               	btfss	status,2,c
  6502  0010AC  D006               	goto	i2l836
  6503                           
  6504                           ;hardware.c: 567: {
  6505                           ;hardware.c: 568: LATD0 = 0;
  6506  0010AE  908C               	bcf	3980,0,c	;volatile
  6507                           
  6508                           ;hardware.c: 569: LATE7 = 0;
  6509  0010B0  9E8D               	bcf	3981,7,c	;volatile
  6510                           
  6511                           ;hardware.c: 570: LATE5 = 0;
  6512  0010B2  9A8D               	bcf	3981,5,c	;volatile
  6513                           
  6514                           ;hardware.c: 571: LATE4 = 0;
  6515  0010B4  988D               	bcf	3981,4,c	;volatile
  6516                           
  6517                           ;hardware.c: 572: LATH2 = 1;
  6518  0010B6  8490               	bsf	3984,2,c	;volatile
  6519                           
  6520                           ;hardware.c: 573: }
  6521  0010B8  0012               	return	
  6522  0010BA                     i2l836:
  6523                           
  6524                           ;hardware.c: 574: else
  6525                           ;hardware.c: 575: {
  6526                           ;hardware.c: 576: LATD0 = 0;
  6527  0010BA  908C               	bcf	3980,0,c	;volatile
  6528                           
  6529                           ;hardware.c: 577: LATE7 = 0;
  6530  0010BC  9E8D               	bcf	3981,7,c	;volatile
  6531                           
  6532                           ;hardware.c: 578: LATE5 = 0;
  6533  0010BE  9A8D               	bcf	3981,5,c	;volatile
  6534                           
  6535                           ;hardware.c: 579: LATE4 = 0;
  6536  0010C0  988D               	bcf	3981,4,c	;volatile
  6537                           
  6538                           ;hardware.c: 580: LATH2 = 0;
  6539  0010C2  9490               	bcf	3984,2,c	;volatile
  6540  0010C4  0012               	return	
  6541  0010C6                     __end_of_updatePresetLEDs:
  6542                           	opt stack 0
  6543                           pclatu	equ	0xFFB
  6544                           pclath	equ	0xFFA
  6545                           tblptru	equ	0xFF8
  6546                           tblptrh	equ	0xFF7
  6547                           tblptrl	equ	0xFF6
  6548                           tablat	equ	0xFF5
  6549                           prodh	equ	0xFF4
  6550                           prodl	equ	0xFF3
  6551                           intcon	equ	0xFF2
  6552                           postinc0	equ	0xFEE
  6553                           fsr0h	equ	0xFEA
  6554                           fsr0l	equ	0xFE9
  6555                           wreg	equ	0xFE8
  6556                           postdec1	equ	0xFE5
  6557                           fsr1h	equ	0xFE2
  6558                           fsr1l	equ	0xFE1
  6559                           indf2	equ	0xFDF
  6560                           postinc2	equ	0xFDE
  6561                           postdec2	equ	0xFDD
  6562                           fsr2h	equ	0xFDA
  6563                           fsr2l	equ	0xFD9
  6564                           status	equ	0xFD8
  6565                           
  6566 ;; *************** function _checkSwitches *****************
  6567 ;; Defined at:
  6568 ;;		line 127 in file "hardware.c"
  6569 ;; Parameters:    Size  Location     Type
  6570 ;;		None
  6571 ;; Auto vars:     Size  Location     Type
  6572 ;;  flag            1    0[COMRAM] unsigned char 
  6573 ;; Return value:  Size  Location     Type
  6574 ;;                  1    wreg      void 
  6575 ;; Registers used:
  6576 ;;		wreg, status,2
  6577 ;; Tracked objects:
  6578 ;;		On entry : 0/0
  6579 ;;		On exit  : 0/0
  6580 ;;		Unchanged: 0/0
  6581 ;; Data sizes:     COMRAM   BANK0   BANK1   BANK2   BANK3   BANK4   BANK5   BANK6   BANK7   BANK8   BANK9  BANK10  BANK1
      +1  BANK12  BANK13
  6582 ;;      Params:         0       0       0       0       0       0       0       0       0       0       0       0       
      +0       0       0
  6583 ;;      Locals:         1       0       0       0       0       0       0       0       0       0       0       0       
      +0       0       0
  6584 ;;      Temps:          0       0       0       0       0       0       0       0       0       0       0       0       
      +0       0       0
  6585 ;;      Totals:         1       0       0       0       0       0       0       0       0       0       0       0       
      +0       0       0
  6586 ;;Total ram usage:        1 bytes
  6587 ;; Hardware stack levels used:    1
  6588 ;; This function calls:
  6589 ;;		Nothing
  6590 ;; This function is called by:
  6591 ;;		_highPriorityISR
  6592 ;; This function uses a non-reentrant model
  6593 ;;
  6594                           
  6595                           	psect	text33
  6596  000DA2                     __ptext33:
  6597                           	opt stack 0
  6598  000DA2                     _checkSwitches:
  6599                           	opt stack 27
  6600                           
  6601                           ;hardware.c: 129: char flag = 0;
  6602                           
  6603                           ;incstack = 0
  6604  000DA2  0E00               	movlw	0
  6605  000DA4  6E27               	movwf	checkSwitches@flag,c
  6606                           
  6607                           ;hardware.c: 131: if(IOCF1)
  6608  000DA6  A2D1               	btfss	4049,1,c	;volatile
  6609  000DA8  D007               	goto	i2l733
  6610                           
  6611                           ;hardware.c: 132: {
  6612                           ;hardware.c: 133: switch4 = 1;
  6613  000DAA  0E00               	movlw	0
  6614  000DAC  6E1A               	movwf	_switch4+1,c
  6615  000DAE  0E01               	movlw	1
  6616  000DB0  6E19               	movwf	_switch4,c
  6617                           
  6618                           ;hardware.c: 134: flag = 1;
  6619  000DB2  0E01               	movlw	1
  6620  000DB4  6E27               	movwf	checkSwitches@flag,c
  6621                           
  6622                           ;hardware.c: 135: IOCFbits.IOCF1 = 0;
  6623  000DB6  92D1               	bcf	4049,1,c	;volatile
  6624  000DB8                     i2l733:
  6625                           
  6626                           ;hardware.c: 136: }
  6627                           ;hardware.c: 138: if (IOCF2)
  6628  000DB8  A4D1               	btfss	4049,2,c	;volatile
  6629  000DBA  D007               	goto	i2l734
  6630                           
  6631                           ;hardware.c: 139: {
  6632                           ;hardware.c: 140: switch2 = 1;
  6633  000DBC  0E00               	movlw	0
  6634  000DBE  6E1E               	movwf	_switch2+1,c
  6635  000DC0  0E01               	movlw	1
  6636  000DC2  6E1D               	movwf	_switch2,c
  6637                           
  6638                           ;hardware.c: 141: flag = 1;
  6639  000DC4  0E01               	movlw	1
  6640  000DC6  6E27               	movwf	checkSwitches@flag,c
  6641                           
  6642                           ;hardware.c: 142: IOCFbits.IOCF2 = 0;
  6643  000DC8  94D1               	bcf	4049,2,c	;volatile
  6644  000DCA                     i2l734:
  6645                           
  6646                           ;hardware.c: 143: }
  6647                           ;hardware.c: 145: if (IOCF3)
  6648  000DCA  A6D1               	btfss	4049,3,c	;volatile
  6649  000DCC  D007               	goto	i2l735
  6650                           
  6651                           ;hardware.c: 146: {
  6652                           ;hardware.c: 147: switch1 = 1;
  6653  000DCE  0E00               	movlw	0
  6654  000DD0  6E20               	movwf	_switch1+1,c
  6655  000DD2  0E01               	movlw	1
  6656  000DD4  6E1F               	movwf	_switch1,c
  6657                           
  6658                           ;hardware.c: 148: flag = 1;
  6659  000DD6  0E01               	movlw	1
  6660  000DD8  6E27               	movwf	checkSwitches@flag,c
  6661                           
  6662                           ;hardware.c: 149: IOCFbits.IOCF3 = 0;
  6663  000DDA  96D1               	bcf	4049,3,c	;volatile
  6664  000DDC                     i2l735:
  6665                           
  6666                           ;hardware.c: 150: }
  6667                           ;hardware.c: 152: if (IOCF4)
  6668  000DDC  A8D1               	btfss	4049,4,c	;volatile
  6669  000DDE  D008               	goto	i2l736
  6670                           
  6671                           ;hardware.c: 153: {
  6672                           ;hardware.c: 154: fsw1 = 1;
  6673  000DE0  0E00               	movlw	0
  6674  000DE2  0100               	movlb	0	; () banked
  6675  000DE4  6FAB               	movwf	(_fsw1+1)& (0+255),b
  6676  000DE6  0E01               	movlw	1
  6677  000DE8  6FAA               	movwf	_fsw1& (0+255),b
  6678                           
  6679                           ;hardware.c: 155: flag = 1;
  6680  000DEA  0E01               	movlw	1
  6681  000DEC  6E27               	movwf	checkSwitches@flag,c
  6682                           
  6683                           ; BSR set to: 0
  6684                           ;hardware.c: 156: IOCFbits.IOCF4 = 0;
  6685  000DEE  98D1               	bcf	4049,4,c	;volatile
  6686  000DF0                     i2l736:
  6687                           
  6688                           ;hardware.c: 157: }
  6689                           ;hardware.c: 159: if (IOCF5)
  6690                           
  6691                           ; BSR set to: 0
  6692  000DF0  AAD1               	btfss	4049,5,c	;volatile
  6693  000DF2  D008               	goto	i2l737
  6694                           
  6695                           ;hardware.c: 160: {
  6696                           ;hardware.c: 161: fsw2 = 1;
  6697  000DF4  0E00               	movlw	0
  6698  000DF6  0100               	movlb	0	; () banked
  6699  000DF8  6FA9               	movwf	(_fsw2+1)& (0+255),b
  6700  000DFA  0E01               	movlw	1
  6701  000DFC  6FA8               	movwf	_fsw2& (0+255),b
  6702                           
  6703                           ;hardware.c: 162: flag = 1;
  6704  000DFE  0E01               	movlw	1
  6705  000E00  6E27               	movwf	checkSwitches@flag,c
  6706                           
  6707                           ; BSR set to: 0
  6708                           ;hardware.c: 163: IOCFbits.IOCF5 = 0;
  6709  000E02  9AD1               	bcf	4049,5,c	;volatile
  6710  000E04                     i2l737:
  6711                           
  6712                           ;hardware.c: 164: }
  6713                           ;hardware.c: 166: if (IOCF6)
  6714                           
  6715                           ; BSR set to: 0
  6716  000E04  ACD1               	btfss	4049,6,c	;volatile
  6717  000E06  D007               	goto	i2l738
  6718                           
  6719                           ;hardware.c: 167: {
  6720                           ;hardware.c: 168: switch3 = 1;
  6721  000E08  0E00               	movlw	0
  6722  000E0A  6E1C               	movwf	_switch3+1,c
  6723  000E0C  0E01               	movlw	1
  6724  000E0E  6E1B               	movwf	_switch3,c
  6725                           
  6726                           ;hardware.c: 169: flag = 1;
  6727  000E10  0E01               	movlw	1
  6728  000E12  6E27               	movwf	checkSwitches@flag,c
  6729                           
  6730                           ;hardware.c: 170: IOCFbits.IOCF6 = 0;
  6731  000E14  9CD1               	bcf	4049,6,c	;volatile
  6732  000E16                     i2l738:
  6733                           
  6734                           ;hardware.c: 171: }
  6735                           ;hardware.c: 173: if (IOCF7)
  6736  000E16  AED1               	btfss	4049,7,c	;volatile
  6737  000E18  D008               	goto	i2l739
  6738                           
  6739                           ;hardware.c: 174: {
  6740                           ;hardware.c: 175: switch5 = 1;
  6741  000E1A  0E00               	movlw	0
  6742  000E1C  0100               	movlb	0	; () banked
  6743  000E1E  6FAD               	movwf	(_switch5+1)& (0+255),b
  6744  000E20  0E01               	movlw	1
  6745  000E22  6FAC               	movwf	_switch5& (0+255),b
  6746                           
  6747                           ;hardware.c: 176: flag = 1;
  6748  000E24  0E01               	movlw	1
  6749  000E26  6E27               	movwf	checkSwitches@flag,c
  6750                           
  6751                           ; BSR set to: 0
  6752                           ;hardware.c: 177: IOCFbits.IOCF7 = 0;
  6753  000E28  9ED1               	bcf	4049,7,c	;volatile
  6754  000E2A                     i2l739:
  6755                           
  6756                           ;hardware.c: 178: }
  6757                           ;hardware.c: 180: if (flag)
  6758  000E2A  5027               	movf	checkSwitches@flag,w,c
  6759  000E2C  B4D8               	btfsc	status,2,c
  6760  000E2E  0012               	return	
  6761                           
  6762                           ;hardware.c: 181: {
  6763                           ;hardware.c: 182: T0CONbits.TMR0ON = 0x1;
  6764  000E30  8ED5               	bsf	4053,7,c	;volatile
  6765  000E32  0012               	return	
  6766  000E34                     __end_of_checkSwitches:
  6767                           	opt stack 0
  6768  0000                     pclatu	equ	0xFFB
  6769                           pclath	equ	0xFFA
  6770                           tblptru	equ	0xFF8
  6771                           tblptrh	equ	0xFF7
  6772                           tblptrl	equ	0xFF6
  6773                           tablat	equ	0xFF5
  6774                           prodh	equ	0xFF4
  6775                           prodl	equ	0xFF3
  6776                           intcon	equ	0xFF2
  6777                           postinc0	equ	0xFEE
  6778                           fsr0h	equ	0xFEA
  6779                           fsr0l	equ	0xFE9
  6780                           wreg	equ	0xFE8
  6781                           postdec1	equ	0xFE5
  6782                           fsr1h	equ	0xFE2
  6783                           fsr1l	equ	0xFE1
  6784                           indf2	equ	0xFDF
  6785                           postinc2	equ	0xFDE
  6786                           postdec2	equ	0xFDD
  6787                           fsr2h	equ	0xFDA
  6788                           fsr2l	equ	0xFD9
  6789                           status	equ	0xFD8
  6790                           pclatu	equ	0xFFB
  6791                           pclath	equ	0xFFA
  6792                           tblptru	equ	0xFF8
  6793                           tblptrh	equ	0xFF7
  6794                           tblptrl	equ	0xFF6
  6795                           tablat	equ	0xFF5
  6796                           prodh	equ	0xFF4
  6797                           prodl	equ	0xFF3
  6798                           intcon	equ	0xFF2
  6799                           postinc0	equ	0xFEE
  6800                           fsr0h	equ	0xFEA
  6801                           fsr0l	equ	0xFE9
  6802                           wreg	equ	0xFE8
  6803                           postdec1	equ	0xFE5
  6804                           fsr1h	equ	0xFE2
  6805                           fsr1l	equ	0xFE1
  6806                           indf2	equ	0xFDF
  6807                           postinc2	equ	0xFDE
  6808                           postdec2	equ	0xFDD
  6809                           fsr2h	equ	0xFDA
  6810                           fsr2l	equ	0xFD9
  6811                           status	equ	0xFD8
  6812                           
  6813                           	psect	rparam
  6814  0000                     pclatu	equ	0xFFB
  6815                           pclath	equ	0xFFA
  6816                           tblptru	equ	0xFF8
  6817                           tblptrh	equ	0xFF7
  6818                           tblptrl	equ	0xFF6
  6819                           tablat	equ	0xFF5
  6820                           prodh	equ	0xFF4
  6821                           prodl	equ	0xFF3
  6822                           intcon	equ	0xFF2
  6823                           postinc0	equ	0xFEE
  6824                           fsr0h	equ	0xFEA
  6825                           fsr0l	equ	0xFE9
  6826                           wreg	equ	0xFE8
  6827                           postdec1	equ	0xFE5
  6828                           fsr1h	equ	0xFE2
  6829                           fsr1l	equ	0xFE1
  6830                           indf2	equ	0xFDF
  6831                           postinc2	equ	0xFDE
  6832                           postdec2	equ	0xFDD
  6833                           fsr2h	equ	0xFDA
  6834                           fsr2l	equ	0xFD9
  6835                           status	equ	0xFD8
  6836                           
  6837                           	psect	temp
  6838  000049                     btemp:
  6839                           	opt stack 0
  6840  000049                     	ds	1
  6841  0000                     int$flags	set	btemp
  6842  0000                     wtemp6	set	btemp+1
  6843                           pclatu	equ	0xFFB
  6844                           pclath	equ	0xFFA
  6845                           tblptru	equ	0xFF8
  6846                           tblptrh	equ	0xFF7
  6847                           tblptrl	equ	0xFF6
  6848                           tablat	equ	0xFF5
  6849                           prodh	equ	0xFF4
  6850                           prodl	equ	0xFF3
  6851                           intcon	equ	0xFF2
  6852                           postinc0	equ	0xFEE
  6853                           fsr0h	equ	0xFEA
  6854                           fsr0l	equ	0xFE9
  6855                           wreg	equ	0xFE8
  6856                           postdec1	equ	0xFE5
  6857                           fsr1h	equ	0xFE2
  6858                           fsr1l	equ	0xFE1
  6859                           indf2	equ	0xFDF
  6860                           postinc2	equ	0xFDE
  6861                           postdec2	equ	0xFDD
  6862                           fsr2h	equ	0xFDA
  6863                           fsr2l	equ	0xFD9
  6864                           status	equ	0xFD8


Data Sizes:
    Strings     0
    Constant    0
    Data        56
    BSS         140
    Persistent  0
    Stack       0

Auto Spaces:
    Space          Size  Autos    Used
    COMRAM           94     30      72
    BANK0           160      6     160
    BANK1           256     15      15
    BANK2           256      0       0
    BANK3           256      0       0
    BANK4           256      0       0
    BANK5           256      0       0
    BANK6           256      0       0
    BANK7           256      0       0
    BANK8           256      0       0
    BANK9           256      0       0
    BANK10          256      0       0
    BANK11          256      0       0
    BANK12          256      0       0
    BANK13          250      0       0

Pointer List with Targets:

    dataPtr	PTR int  size(2) Largest target is 3577
		 -> NULL(NULL[0]), RAM(DATA[3577]), 

    I2C1_Block_Read_EERPOM@data	PTR unsigned char  size(2) Largest target is 24
		 -> parameter(BANK0[24]), 

    I2C1_Page_Write_EEPROM@data	PTR unsigned char  size(2) Largest target is 24
		 -> parameter(BANK0[24]), 


Critical Paths under _main in COMRAM

    None.

Critical Paths under _highPriorityISR in COMRAM

    _serviceSwitches->_processTaps
    _processTaps->___awdiv
    _flashLED->_updatePresetLEDs

Critical Paths under _main in BANK0

    _main->_I2C1_Block_Read_EERPOM
    _systemInit->_startupSequence
    _readControls->_ADC_Read

Critical Paths under _highPriorityISR in BANK0

    None.

Critical Paths under _main in BANK1

    _main->_I2C1_Block_Read_EERPOM

Critical Paths under _highPriorityISR in BANK1

    None.

Critical Paths under _main in BANK2

    None.

Critical Paths under _highPriorityISR in BANK2

    None.

Critical Paths under _main in BANK3

    None.

Critical Paths under _highPriorityISR in BANK3

    None.

Critical Paths under _main in BANK4

    None.

Critical Paths under _highPriorityISR in BANK4

    None.

Critical Paths under _main in BANK5

    None.

Critical Paths under _highPriorityISR in BANK5

    None.

Critical Paths under _main in BANK6

    None.

Critical Paths under _highPriorityISR in BANK6

    None.

Critical Paths under _main in BANK7

    None.

Critical Paths under _highPriorityISR in BANK7

    None.

Critical Paths under _main in BANK8

    None.

Critical Paths under _highPriorityISR in BANK8

    None.

Critical Paths under _main in BANK9

    None.

Critical Paths under _highPriorityISR in BANK9

    None.

Critical Paths under _main in BANK10

    None.

Critical Paths under _highPriorityISR in BANK10

    None.

Critical Paths under _main in BANK11

    None.

Critical Paths under _highPriorityISR in BANK11

    None.

Critical Paths under _main in BANK12

    None.

Critical Paths under _highPriorityISR in BANK12

    None.

Critical Paths under _main in BANK13

    None.

Critical Paths under _highPriorityISR in BANK13

    None.

Call Graph Tables:

 ---------------------------------------------------------------------------------
 (Depth) Function   	        Calls       Base Space   Used Autos Params    Refs
 ---------------------------------------------------------------------------------
 (0) _main                                                 9     9      0    3721
                                              6 BANK1      9     9      0
                           _ADC_Read
             _I2C1_Block_Read_EERPOM
                 _I2C1_Write_DigiPot
                             _absVal
                       _readControls
                         _systemInit
 ---------------------------------------------------------------------------------
 (1) _systemInit                                           0     0      0       0
                        _bypassSetup
                        _clockSwitch
                         _defaultLED
                      _interfaceInit
                      _interruptInit
                           _killLEDs
                  _mapPeripheralPins
                           _setupADC
                          _setupI2C1
                          _setupI2C2
                          _setupTMR0
                          _setupTMR1
                          _setupTMR2
                          _setupTMR4
                    _startupSequence
 ---------------------------------------------------------------------------------
 (2) _startupSequence                                      2     2      0       0
                                              0 BANK0      2     2      0
 ---------------------------------------------------------------------------------
 (2) _setupTMR4                                            0     0      0       0
 ---------------------------------------------------------------------------------
 (2) _setupTMR2                                            0     0      0       0
 ---------------------------------------------------------------------------------
 (2) _setupTMR1                                            0     0      0       0
 ---------------------------------------------------------------------------------
 (2) _setupTMR0                                            0     0      0       0
 ---------------------------------------------------------------------------------
 (2) _setupI2C2                                            0     0      0       0
 ---------------------------------------------------------------------------------
 (2) _setupI2C1                                            0     0      0       0
 ---------------------------------------------------------------------------------
 (2) _setupADC                                             0     0      0       0
 ---------------------------------------------------------------------------------
 (2) _mapPeripheralPins                                    0     0      0       0
 ---------------------------------------------------------------------------------
 (2) _killLEDs                                             0     0      0       0
 ---------------------------------------------------------------------------------
 (2) _interruptInit                                        0     0      0       0
 ---------------------------------------------------------------------------------
 (2) _interfaceInit                                        0     0      0       0
 ---------------------------------------------------------------------------------
 (2) _defaultLED                                           0     0      0       0
 ---------------------------------------------------------------------------------
 (2) _clockSwitch                                          0     0      0       0
 ---------------------------------------------------------------------------------
 (2) _bypassSetup                                          0     0      0       0
 ---------------------------------------------------------------------------------
 (1) _readControls                                         3     3      0    1305
                                              0 BANK1      3     3      0
                           _ADC_Read
 ---------------------------------------------------------------------------------
 (2) _ADC_Read                                             4     2      2    1305
                                              0 BANK0      4     2      2
 ---------------------------------------------------------------------------------
 (1) _absVal                                               4     2      2     238
                                              0 BANK0      4     2      2
 ---------------------------------------------------------------------------------
 (1) _I2C1_Write_DigiPot                                   2     2      0      65
                                              0 BANK0      2     2      0
 ---------------------------------------------------------------------------------
 (1) _I2C1_Block_Read_EERPOM                              12     6      6     567
                                              0 BANK0      6     0      6
                                              0 BANK1      6     6      0
 ---------------------------------------------------------------------------------
 Estimated maximum stack depth 2
 ---------------------------------------------------------------------------------
 (Depth) Function   	        Calls       Base Space   Used Autos Params    Refs
 ---------------------------------------------------------------------------------
 (3) _highPriorityISR                                     18    18      0    1927
                                             12 COMRAM    18    18      0
                      _checkSwitches
                           _flashLED
                          _sendParam
                    _serviceSwitches
                             _tapLED
 ---------------------------------------------------------------------------------
 (4) _tapLED                                               3     3      0       0
                                              0 COMRAM     3     3      0
 ---------------------------------------------------------------------------------
 (4) _serviceSwitches                                      0     0      0    1392
             _I2C1_Page_Write_EEPROM
                        _processTaps
                   _updatePresetLEDs
 ---------------------------------------------------------------------------------
 (5) _processTaps                                          4     4      0     591
                                              8 COMRAM     4     4      0
                            ___awdiv
                        _maxTapCheck
                           i2_absVal
 ---------------------------------------------------------------------------------
 (6) i2_absVal                                             4     2      2      92
                                              0 COMRAM     4     2      2
 ---------------------------------------------------------------------------------
 (6) _maxTapCheck                                          0     0      0       0
 ---------------------------------------------------------------------------------
 (6) ___awdiv                                              8     4      4     452
                                              0 COMRAM     8     4      4
 ---------------------------------------------------------------------------------
 (5) _I2C1_Page_Write_EEPROM                              11     5      6     387
                                              0 COMRAM    11     5      6
 ---------------------------------------------------------------------------------
 (4) _sendParam                                            4     4      0      91
                                              0 COMRAM     4     4      0
 ---------------------------------------------------------------------------------
 (4) _flashLED                                             0     0      0     414
                   _updatePresetLEDs
 ---------------------------------------------------------------------------------
 (5) _updatePresetLEDs                                     2     0      2     414
                                              0 COMRAM     2     0      2
 ---------------------------------------------------------------------------------
 (4) _checkSwitches                                        1     1      0      30
                                              0 COMRAM     1     1      0
 ---------------------------------------------------------------------------------
 Estimated maximum stack depth 6
 ---------------------------------------------------------------------------------

 Call Graph Graphs:

 _main (ROOT)
   _ADC_Read
   _I2C1_Block_Read_EERPOM
   _I2C1_Write_DigiPot
   _absVal
   _readControls
     _ADC_Read
   _systemInit
     _bypassSetup
     _clockSwitch
     _defaultLED
     _interfaceInit
     _interruptInit
     _killLEDs
     _mapPeripheralPins
     _setupADC
     _setupI2C1
     _setupI2C2
     _setupTMR0
     _setupTMR1
     _setupTMR2
     _setupTMR4
     _startupSequence

 _highPriorityISR (ROOT)
   _checkSwitches
   _flashLED
     _updatePresetLEDs
   _sendParam
   _serviceSwitches
     _I2C1_Page_Write_EEPROM
     _processTaps
       ___awdiv
       _maxTapCheck
       i2_absVal
     _updatePresetLEDs
   _tapLED

 Address spaces:
Name               Size   Autos  Total    Cost      Usage
BIGRAM             DF9      0       0      33        0.0%
BITBANK12          100      0       0      29        0.0%
BANK12             100      0       0      30        0.0%
BITBANK11          100      0       0      27        0.0%
BANK11             100      0       0      28        0.0%
BITBANK10          100      0       0      25        0.0%
BANK10             100      0       0      26        0.0%
BITBANK9           100      0       0      23        0.0%
BANK9              100      0       0      24        0.0%
BITBANK8           100      0       0      21        0.0%
BANK8              100      0       0      22        0.0%
BITBANK7           100      0       0      19        0.0%
BANK7              100      0       0      20        0.0%
BITBANK6           100      0       0      17        0.0%
BANK6              100      0       0      18        0.0%
BITBANK5           100      0       0      15        0.0%
BANK5              100      0       0      16        0.0%
BITBANK4           100      0       0      13        0.0%
BANK4              100      0       0      14        0.0%
BITBANK3           100      0       0      11        0.0%
BANK3              100      0       0      12        0.0%
BITBANK2           100      0       0       9        0.0%
BANK2              100      0       0      10        0.0%
BITBANK1           100      0       0       6        0.0%
BANK1              100      F       F       7        5.9%
BITBANK13           FA      0       0      31        0.0%
BANK13              FA      0       0      32        0.0%
BITBANK0            A0      0       0       4        0.0%
BANK0               A0      6      A0       5      100.0%
BITCOMRAM           5E      0       0       0        0.0%
COMRAM              5E     1E      48       1       76.6%
BITSFR_3             0      0       0     200        0.0%
SFR_3                0      0       0     200        0.0%
BITSFR_2             0      0       0     200        0.0%
SFR_2                0      0       0     200        0.0%
BITSFR_1             0      0       0     200        0.0%
SFR_1                0      0       0     200        0.0%
BITSFR               0      0       0     200        0.0%
SFR                  0      0       0     200        0.0%
STACK                0      0       0       2        0.0%
NULL                 0      0       0       0        0.0%
ABS                  0      0      F7       8        0.0%
DATA                 0      0      F7       3        0.0%
CODE                 0      0       0       0        0.0%


Microchip Technology PIC18 Macro Assembler V1.43 build -156212558 
Symbol Table                                                                                   Fri Oct  5 20:38:03 2018

                      __CFG_BW$16 000000                __end_of_systemInit 126E  
           __end_of_interruptInit 1358                      ___awdiv@sign 002C  
  I2C1_Page_Write_EEPROM@memValue 002F                       __CFG_BORV$1 000000  
                    __CFG_CP0$OFF 000000            _I2C1_Page_Write_EEPROM 0D0C  
                             l142 137A                               l152 0852  
                             l153 0874                               l155 08A4  
                             l157 0946                               l443 13C0  
                             l801 09E6                               l811 0A5E  
                             l803 09FE                               l813 0A76  
                             l805 0A16                               l814 0A80  
                             l807 0A2E                               l809 0A46  
                             l793 0984                               l795 09A0  
                             l797 09B6                               l799 09CE  
                             _RC0 007C10                               _RC1 007C11  
                             _RD1 007C19                               _RD4 007C1C  
                             _RC6 007C16                               _RE3 007C23  
                             _RC7 007C17                               _RG1 007C31  
                             _RF3 007C2B                               _RD7 007C1F  
                             _RG2 007C32                               _RE6 007C26  
                             _RG3 007C33                               _RH4 007C3C  
                             _RJ0 007C40                               _RH5 007C3D  
                             _RJ1 007C41                               _RJ4 007C44  
                             _RJ5 007C45                               _PR2 000FCB  
                             _tap 0001                               _swX 0047  
                             wreg 000FE8             __end_of_checkSwitches 0E34  
 __size_of_I2C1_Block_Read_EERPOM 00EA                     __CFG_ABW$XM16 000000  
                    ?_maxTapCheck 0027                              l1111 12D2  
                            l1024 0BD6                              l1041 0BFA  
                            l1035 0BEC                              l1019 0BC6  
                            l1123 12EA                              l1108 12C8  
                            l1029 0BE0                              l1117 12E0  
                            l1046 0C38                              l1047 0C12  
                            l1056 0C5C                              l1059 0C64  
                            u3500 12E4                              u3415 0688  
                            u3600 0BFE                              u3425 06C2  
                            u3530 0BCA                              u3435 072E  
                            u3620 0C16                              u3380 13CA  
                            u3700 0936                              u3445 0768  
                            u3455 07D4                              u3560 0BE4  
                            u3480 12D6                              u3465 080E  
                            u3580 0BF0                              u3807 049C  
                            u3727 03AC                              u3817 04BA  
                            u3737 03CA                              u3907 05C8  
                            u3827 04D8                              u3747 03E8  
                            u3917 05E6                              u3837 04F6  
                            u3757 0406                              u3927 0604  
                            u3847 0514                              u3767 0424  
                            u3695 08CC                              u3937 0622  
                            u3857 0532                              u3777 0442  
                            u3947 0970                              u3867 0550  
                            u3787 0460                              u3957 097C  
                            u3877 056E                              u3797 047E  
                            u3967 12C0                              u3887 058C  
                            u3977 0BBE                              u3897 05AA  
                            _fbkA 009A                              _fbkB 0096  
                            _fbkC 0092                              _fsw1 00AA  
                            _fsw2 00A8                              _intA 0025  
                            _intB 0023                              _intC 0021  
                            _main 0826                              _lvlA 0098  
                            _lvlB 0094                              _lvlC 0090  
                            fsr0h 000FEA                              fsr1h 000FE2  
                            fsr2h 000FDA                              fsr0l 000FE9  
                            indf2 000FDF                              fsr1l 000FE1  
                            fsr2l 000FD9                       main@prevDry 0109  
                            btemp 0049                              _sync 0086  
                __end_of_ADC_Read 0A8A                              prodh 000FF4  
                            prodl 000FF3                __CFG_WDTWIN$PS25_0 000000  
                            start 00FC          __size_of_serviceSwitches 029C  
 I2C1_Page_Write_EEPROM@wrDevAddr 002E                     __CFG_IESO$OFF 000000  
              __CFG_LS48MHZ$SYSX2 000000                      ___param_bank 000000  
                     i2absVal@val 0027                      ?_bypassSetup 0027  
                   __CFG_WAIT$OFF 000000                             ?_main 0027  
                 __end_of___awdiv 0FCC                      main@dryLevel 010D  
         I2C1_Block_Read_EERPOM@n 0104                   ___awdiv@divisor 0029  
                           _T2CON 000FCA                             _LATD0 007C60  
                           _LATB5 007C55                             _IOCF1 007E89  
                           _LATD2 007C62                             _LATE0 007C68  
                           _IOCF2 007E8A                             _LATD3 007C63  
                           _LATE1 007C69                             _IOCF3 007E8B  
                           _IOCF4 007E8C                             _IOCF5 007E8D  
                           _LATF2 007C72                             _LATE4 007C6C  
                           _IOCF6 007E8E                             _LATE5 007C6D  
                           _IOCF7 007E8F                             _LATH0 007C80  
                           _LATF5 007C75                             _LATE7 007C6F  
                           _LATH1 007C81                             _LATF6 007C76  
                           _LATG4 007C7C                             _LATH2 007C82  
                           _LATH7 007C87                             i2l133 0066  
                           i2l142 13A2                             i2l134 0078  
                           i2l136 009E                             i2l137 00A0  
                           i2l138 00B0                             i2l710 0AC2  
                           i2l711 0B7A                             i2l704 11FA  
                           i2l712 0B02                             i2l714 0B4C  
                           i2l715 0B78                             i2l733 0DB8  
                           i2l734 0DCA                             i2l830 1078  
                           i2l735 0DDC                             i2l719 0EFE  
                           i2l736 0DF0                             i2l832 108E  
                           i2l728 1166                             i2l760 01FA  
                           i2l752 019E                             i2l737 0E04  
                           i2l729 1172                             i2l753 01AC  
                           i2l738 0E16                             i2l834 10A4  
                           i2l770 0258                             i2l762 0206  
                           i2l746 0140                             i2l739 0E2A  
                           i2l763 020A                             i2l755 01B8  
                           i2l836 10BA                             i2l828 1062  
                           i2l756 01BC                             i2l781 0312  
                           i2l773 029E                             i2l749 016E  
                           i2l774 0290                             i2l766 023A  
                           i2l767 0248                             i2l759 01EC  
                           i2l776 02C2                             i2l785 034E  
                           i2l769 0254                             i2l786 0348  
                           i2l779 02DE                   ___awdiv@counter 002B  
                           i2l992 0D44                             i2l997 0D7A  
                           i2l989 0D3A                             i2l998 0D5C  
                   __CFG_WPSA$128 000000                    __CFG_EASHFT$ON 000000  
                           _timeA 000B                             _timeB 0009  
                           _timeC 0007                             _shift 000D  
                  __CFG_BOREN$OFF 000000                             pclath 000FFA  
                           tablat 000FF5                  __end_ofi2_absVal 13AC  
                           status 000FD8                             wtemp6 004A  
      __size_of_mapPeripheralPins 0054            _I2C1_Block_Read_EERPOM 0B84  
                 __initialization 10C6                      __end_of_main 095E  
     __size_of_I2C1_Write_DigiPot 0042                            ??_main 0106  
                   ?_readControls 0027                     __activetblptr 000000  
             __CFG_WPEND$WPENDMEM 000000                    __CFG_RETEN$OFF 000000  
                          _CCPR4H 000F12                            _CCPR4L 000F11  
                ___awdiv@dividend 0027          __size_of_startupSequence 0296  
            __size_of_clockSwitch 0024                            _LCDSE0 000ECE  
                          _LCDSE1 000ECF                            _LCDSE2 000ED0  
                          _LCDSE3 000ED1                            _LCDSE4 000ED2  
                          _LCDSE5 000ED3                            _LCDSE6 000ED4  
                          _LCDSE7 000ED5          __size_of_highPriorityISR 00F4  
                          i2l1013 0D98                            i2l1130 102E  
                          i2l1300 0F6C                            i2l1302 0F8A  
                          i2l1303 0F82                            i2l1128 0FEE  
                          i2l1129 1042                            i2l1306 0FAA  
                          i2l1307 0FB4                            i2l1308 0FC2  
                          i2l3027 102E                            i2l1299 0F5C  
                  __CFG_WDTEN$OFF 000000                            i2l2957 0B02  
                          _OSCCON 000FD3                            _TMR0IF 007F92  
                          _TMR2IF 007CF1                            _TMR4IF 007DC0  
                          _TMR2ON 007E52                            _SSP2IF 007D0E  
                  __CFG_XINST$OFF 000000                  __end_of_flashLED 1184  
                    _CCPTMRS1bits 000F35                            _absVal 1358  
                __end_of_killLEDs 13F0                            _pFlash 00A2  
                       ??___awdiv 002B          __end_of_updatePresetLEDs 10C6  
               ??_serviceSwitches 0033                   ADC_Read@channel 00FA  
                          _tapLED 0EC4                            _bypass 0017  
                          _muxADC 00A6                            clear_0 110C  
                          clear_1 1118                  ___awdiv@quotient 002D  
                  _RPINR20_21bits 000E34                   __CFG_CLKOEN$OFF 000000  
                          _preset 0015                    ??_readControls 0100  
                  _RPINR22_23bits 000E35                      __pdataCOMRAM 0045  
                  _RPINR24_25bits 000E36                  __end_of_setupADC 0EC4  
                       ?_ADC_Read 00FA                    _RPINR18_19bits 000E33  
              processTaps@tapDiff 0031                            tblptrh 000FF7  
                          tblptrl 000FF6                            tblptru 000FF8  
                    ?_processTaps 0027              __size_of_maxTapCheck 0050  
                      __accesstop 0060           __end_of__initialization 111E  
              __CFG_DSWDTOSC$LPRC 000000                     ___rparam_used 000001  
                 __CFG_T5GSEL$T5G 000000                   __CFG_IOL1WAY$ON 000000  
                  __pcstackCOMRAM 0027                      __pidataBANK0 12F4  
         ?_I2C1_Page_Write_EEPROM 0027        I2C1_Page_Write_EEPROM@data 0029  
      I2C1_Page_Write_EEPROM@slot 0027              __size_of_bypassSetup 000C  
                       ?i2_absVal 0027                 __CFG_PLLDIV$PLL8X 000000  
                      ??_ADC_Read 00FC                        _dataTarget 009E  
                      __pbssBANK0 0060                        _defaultLED 1422  
          __size_of_interfaceInit 009E                 ??_startupSequence 00FA  
               ??_highPriorityISR 0033    __end_of_I2C1_Page_Write_EEPROM 0DA2  
                         ?_absVal 00FA                __size_of_sendParam 0082  
                         _ADCBUF0 000FC2                           _ADCBUF1 000E48  
                         _ADCBUF2 000E4A                           _ADCBUF3 000E4C  
                         _ADCBUF4 000E4E                           _ADCBUF5 000E50  
                         _ADCBUF6 000E52                           _ADCBUF8 000E56  
                         _ADCBUF9 000E58                           ?_tapLED 0027  
                 __CFG_VBTBOR$OFF 000000                        ??i2_absVal 0029  
              __size_of_setupI2C1 001A                __size_of_setupI2C2 0044  
              __size_of_setupTMR0 0018                __size_of_setupTMR1 000E  
              __size_of_setupTMR2 0010                __size_of_setupTMR4 0016  
                 __CFG_WDTCLK$FRC 000000                           _SSP1ADD 000FC8  
                         _SSP2ADD 000F02                           _SSP1BUF 000FC9  
                         _SSP2BUF 000F03                         ?_flashLED 0027  
                         _SSP2MSK 000F17                         ?_killLEDs 0027  
          __size_of_interruptInit 0030           ?_I2C1_Block_Read_EERPOM 00FA  
            __end_of_readControls 0826                           __Hparam 0000  
                         __Lparam 0000                         ?_setupADC 0027  
          __size_of_checkSwitches 0092                           ___awdiv 0F48  
                 __size_of_absVal 002C                   __CFG_STVREN$OFF 000000  
                         _dataPtr 009C                   __size_of_tapLED 0084  
                         __pcinit 10C6                           __ramtop 0E00  
                         __ptext0 0826                           __ptext1 1228  
                         __ptext2 039C                           __ptext3 143A  
                         __ptext4 1450                           __ptext5 1460  
                         __ptext6 140A                           __ptext7 126E  
                         __ptext8 13F0                           __ptext9 0E34  
                   _interfaceInit 0C6E                         _T0CONbits 000FD5  
                         _bypMode 00F8                         _T1CONbits 000FCD  
                       _T2CONbits 000FCA                         _T3CONbits 000FB1  
                         _tapTime 008E                           _tapPrev 0003  
                       _T4CONbits 000F04                         _T5CONbits 000F14  
                      ??_flashLED 0029                           _switch1 001F  
                         _switch2 001D                           _switch3 001B  
                         _switch4 0019                           _switch5 00AC  
               __end_of_sendParam 104E              end_of_initialization 111E  
                      ??_killLEDs 00FA    __end_of_I2C1_Block_Read_EERPOM 0C6E  
               checkSwitches@flag 0027                       ?_defaultLED 0027  
                      _targPreset 0013              __size_of_processTaps 00FA  
                 _serviceSwitches 0100                 __end_of_setupI2C1 140A  
               __end_of_setupI2C2 12B2                 __end_of_setupTMR0 1422  
               __end_of_setupTMR1 146E                 __end_of_setupTMR2 1460  
               __end_of_setupTMR4 1450                        ??_setupADC 00FA  
                         postdec1 000FE5                           postdec2 000FDD  
                         postinc0 000FEE                           postinc2 000FDE  
      __end_of_I2C1_Write_DigiPot 12F4                  __CFG_FSCM$CSECMD 000000  
                __CFG_DSBITEN$OFF 000000                     _interruptInit 1328  
               ?_updatePresetLEDs 0027                        _presetPend 0011  
                  ?_interfaceInit 0027                  __CFG_DSBOREN$OFF 000000  
                     _ADCHS0Lbits 000E86                ??_updatePresetLEDs 0029  
                __CFG_FOSC$FRCDIV 000000                       _ADCON1Hbits 000FC1  
                     _ADCON2Hbits 000E8D                       _ADCON1Lbits 000FC0  
                     _ADCON3Hbits 000E8B                         _TRISAbits 000F92  
                       _TRISBbits 000F93                         _TRISCbits 000F94  
                   ??_clockSwitch 00FA                         _TRISDbits 000F95  
                     _ADCON3Lbits 000E8A                       _ADCON5Hbits 000E89  
                       _TRISEbits 000F96                         _TRISFbits 000F97  
                       _TRISGbits 000F98                         _TRISHbits 000F99  
                       _TRISJbits 000F9A                     _checkSwitches 0DA2  
               __size_of_ADC_Read 012C              __CFG_CINASEL$DEFAULT 000000  
                      _userParams 0060                       _CCP4CONbits 000F10  
    I2C1_Block_Read_EERPOM@rdAddr 0101                 __CFG_WPFP$WPFP255 000000  
                  ?_interruptInit 0027                    __end_of_absVal 1384  
                   __pidataCOMRAM 147A                    __end_of_tapLED 0F48  
     I2C1_Page_Write_EEPROM@bytes 002B               __size_of_defaultLED 0018  
                __CFG_DSWDTEN$OFF 000000               start_initialization 10C6  
               __size_ofi2_absVal 0028                        _systemInit 1228  
                  ?_checkSwitches 0027                   _startupSequence 039C  
                   ??_maxTapCheck 0027           __end_of_serviceSwitches 039C  
                 _highPriorityISR 0008             __size_of_readControls 01F4  
             __end_of_clockSwitch 13D0           I2C1_Write_DigiPot@value 00FA  
                     _pFlashCount 00A4                          ??_absVal 00FC  
                  _currentTapTime 00F6                     ??_bypassSetup 00FA  
                 ??_interfaceInit 00FA                       __pdataBANK0 00C6  
                        ??_tapLED 0027                      _readControls 0632  
                     __pbssCOMRAM 0001                     __pcstackBANK0 00FA  
                   __pcstackBANK1 0100           I2C1_Page_Write_EEPROM@n 0030  
               __size_of_flashLED 005C                      _paramAddress 00C6  
               __size_of_killLEDs 0020             updatePresetLEDs@psNum 0027  
             __end_of_maxTapCheck 1228                   ??_interruptInit 00FA  
                       __pintcode 0008                        sendParam@n 0029  
                       absVal@val 00FA                          ?___awdiv 0027  
               __size_of_setupADC 0090                          _ADCBUF14 000E62  
                    _tapDispCount 000F           __end_of_startupSequence 0632  
         __end_of_highPriorityISR 00FC                  __CFG_POSCMD$NONE 000000  
                 ??_checkSwitches 0027               __end_of_bypassSetup 147A  
                        _ADC_Read 095E                       ?_systemInit 0027  
                     _PADCFG1bits 000F54                       _clockSwitch 13AC  
                ?_serviceSwitches 0027                         _parameter 00AE  
                       _tapOnTime 0045                      ??_defaultLED 00FA  
                        _IOCFbits 000FD1                         _sendParam 0FCC  
                        _IOCNbits 000F55                          _IOCPbits 000F56  
                        _PIE1bits 000F9D                          _PIE2bits 000FA0  
                        _PIE5bits 000FB7    I2C1_Block_Read_EERPOM@memValue 0102  
                        i2u215_40 0AA0                          i2u224_40 0D48  
                        i2u216_40 0AE8                          i2u234_40 1042  
                        i2u226_40 0D60                          i2u228_40 0D8E  
                        i2u252_40 0136                          i2u229_40 0D92  
                        i2u253_45 0138                          i2u254_41 013C  
                        i2u239_40 114C                          i2u280_40 0288  
                        i2u264_40 0196                          _PIR1bits 000F9E  
                        i2u257_45 0148                          i2u274_40 0232  
                        i2u258_40 0150                          i2u283_40 02D6  
                        _PIR2bits 000FA1                          i2u259_45 0152  
                        i2u269_40 01E4                          i2u198_40 0F8E  
                        i2u398_47 0D32                         _setupI2C1 13F0  
                       _setupI2C2 126E                  __CFG_WDTPS$32768 000000  
                       _presetAdd 0078                         _setupTMR0 140A  
                       _setupTMR1 1460                         _setupTMR2 1450  
                       _setupTMR4 143A                          _UCONbits 000F75  
                    _tapTimeCount 0005                  __CFG_SOSCSEL$DIG 000000  
     I2C1_Write_DigiPot@wrCommand 00FB                          i2_absVal 1384  
              __end_of_defaultLED 143A                        _CM1CONbits 000F53  
              _I2C1_Write_DigiPot 12B2                        _CM2CONbits 000F38  
     I2C1_Block_Read_EERPOM@bytes 00FC                        _CM3CONbits 000F37  
                __CFG_WPDIS$WPDIS 000000                       _maxTapCheck 11D8  
                       copy_data0 10DA                         copy_data1 10FA  
                   ??_processTaps 002F         __size_of_updatePresetLEDs 0078  
             ?_I2C1_Write_DigiPot 0027          ??_I2C1_Page_Write_EEPROM 002D  
                      ?_sendParam 0027                        _ANCON1bits 000E47  
                      _ANCON2bits 000E46                        _ANCON3bits 000E45  
                        __Hrparam 0000                          __Lrparam 0000  
                      ?_setupI2C1 0027                        ?_setupI2C2 0027  
             __size_of_systemInit 0046                        ?_setupTMR0 0027  
                      ?_setupTMR1 0027                        ?_setupTMR2 0027  
                      ?_setupTMR4 0027                     ADC_Read@value 00FC  
                     _bypassSetup 146E                  __size_of___awdiv 0084  
            ??_I2C1_Write_DigiPot 00FA                  ?_startupSequence 0027  
                ?_highPriorityISR 0027                          __ptext10 1184  
                        __ptext11 13D0                          __ptext20 12B2  
                        __ptext12 1328                          __ptext21 0B84  
                        __ptext13 0C6E                          __ptext30 0FCC  
                        __ptext14 1422                          __ptext31 1128  
                        __ptext23 0EC4                          __ptext15 13AC  
                        __ptext32 104E                          __ptext24 0100  
                        __ptext16 146E                          __ptext33 0DA2  
                        __ptext25 0A8A                          __ptext17 0632  
                        __ptext26 1384                          __ptext18 095E  
                        __ptext27 11D8                          __ptext19 1358  
                        __ptext28 0F48                          __ptext29 0D0C  
                        _flashLED 1128                      _SSP1CON1bits 000FC6  
                    _SSP1CON2bits 000FC5                        _LCDCONbits 000ED9  
                    _SSP2CON1bits 000F19                      _SSP2CON2bits 000F18  
                    _SSP2CON3bits 000F39                          _killLEDs 13D0  
                     _OSCCON2bits 000F66                       _OSCCON3bits 000F65  
                     _OSCCON4bits 000F64                     __size_of_main 0138  
                        _tapAccum 0082                          _newTempo 008C  
                        _tapFlash 00A0                __CFG_MSSPMSK1$MSK7 000000  
              __CFG_MSSPMSK2$MSK7 000000               __end_of_processTaps 0B84  
                        _setupADC 0E34                     _setupComplete 0088  
                        int$flags 0049                        _MEMCONbits 000EE3  
                        main@diff 010B                      _SSP1STATbits 000FC7  
      I2C1_Block_Read_EERPOM@data 00FE        I2C1_Block_Read_EERPOM@slot 00FA  
                      _INTCONbits 000FF2          ??_I2C1_Block_Read_EERPOM 0100  
                        intlevel2 0000                       ??_sendParam 0027  
 __size_of_I2C1_Page_Write_EEPROM 0096                      _presetParams 00DE  
                      _OSCCONbits 000FD3                       ??_setupI2C1 00FA  
                     ??_setupI2C2 00FA  I2C1_Block_Read_EERPOM@dummyWrite 0103  
                     ??_setupTMR0 00FA                       ??_setupTMR1 00FA  
                     ??_setupTMR2 00FA                       ??_setupTMR4 00FA  
               _mapPeripheralPins 1184                ?_mapPeripheralPins 0027  
           __end_of_interfaceInit 0D0C                      _timeoutCount 008A  
             ??_mapPeripheralPins 00FA                      ??_systemInit 00FC  
                    ?_clockSwitch 0027                  _updatePresetLEDs 104E  
             __CFG_WPCFG$WPCFGDIS 000000                       _processTaps 0A8A  
              __CFG_WINDIS$WDTSTD 000000            __CFG_DSWDTPS$DSWDTPS1F 000000  
       __end_of_mapPeripheralPins 11D8  
