

Microchip Technology PIC18 LITE Macro Assembler V1.43 build -156212558 
                                                                                               Sun Sep 23 16:08:53 2018

Microchip Technology Omniscient Code Generator v1.43 (Free mode) build 201707250354
     1                           	processor	18F85J94
     2                           	fnconf	rparam,??,?,0
     3                           	opt	pw 120
     4                           	opt	lm
     5                           	psect	idataCOMRAM,global,class=CODE,delta=1,noexec
     6                           	psect	idataBANK0,global,class=CODE,delta=1,noexec
     7                           	psect	cinit,global,reloc=2,class=CODE,delta=1
     8                           	psect	bssCOMRAM,global,class=COMRAM,space=1,delta=1,noexec
     9                           	psect	dataCOMRAM,global,class=COMRAM,space=1,delta=1,noexec
    10                           	psect	bssBANK0,global,class=BANK0,space=1,delta=1,lowdata,noexec
    11                           	psect	dataBANK0,global,class=BANK0,space=1,delta=1,lowdata,noexec
    12                           	psect	cstackBANK0,global,class=BANK0,space=1,delta=1,noexec
    13                           	psect	cstackCOMRAM,global,class=COMRAM,space=1,delta=1,noexec
    14                           	psect	text0,global,reloc=2,class=CODE,delta=1
    15                           	psect	text1,global,reloc=2,class=CODE,delta=1
    16                           	psect	text2,global,reloc=2,class=CODE,delta=1
    17                           	psect	text3,global,reloc=2,class=CODE,delta=1
    18                           	psect	text4,global,reloc=2,class=CODE,delta=1
    19                           	psect	text5,global,reloc=2,class=CODE,delta=1
    20                           	psect	text6,global,reloc=2,class=CODE,delta=1
    21                           	psect	text7,global,reloc=2,class=CODE,delta=1
    22                           	psect	text8,global,reloc=2,class=CODE,delta=1
    23                           	psect	text9,global,reloc=2,class=CODE,delta=1
    24                           	psect	text10,global,reloc=2,class=CODE,delta=1
    25                           	psect	text11,global,reloc=2,class=CODE,delta=1
    26                           	psect	text12,global,reloc=2,class=CODE,delta=1
    27                           	psect	text13,global,reloc=2,class=CODE,delta=1
    28                           	psect	text14,global,reloc=2,class=CODE,delta=1
    29                           	psect	text15,global,reloc=2,class=CODE,delta=1
    30                           	psect	text16,global,reloc=2,class=CODE,delta=1
    31                           	psect	text17,global,reloc=2,class=CODE,delta=1
    32                           	psect	text18,global,reloc=2,class=CODE,delta=1
    33                           	psect	intcode,global,reloc=2,class=CODE,delta=1
    34                           	psect	text20,global,reloc=2,class=CODE,delta=1
    35                           	psect	text21,global,reloc=2,class=CODE,delta=1
    36                           	psect	text22,global,reloc=2,class=CODE,delta=1
    37                           	psect	text23,global,reloc=2,class=CODE,delta=1
    38                           	psect	text24,global,reloc=2,class=CODE,delta=1
    39                           	psect	text25,global,reloc=2,class=CODE,delta=1
    40                           	psect	text26,global,reloc=2,class=CODE,delta=1,group=1
    41                           	psect	text27,global,reloc=2,class=CODE,delta=1
    42                           	psect	text28,global,reloc=2,class=CODE,delta=1
    43                           	psect	intsave_regs,global,class=BIGRAM,space=1,delta=1,noexec
    44                           	psect	rparam,global,class=COMRAM,space=1,delta=1,noexec
    45                           	psect	temp,global,ovrld,common,class=COMRAM,space=1,delta=1
    46  0000                     
    47                           ; Version 1.43
    48                           ; Generated 25/07/2017 GMT
    49                           ; 
    50                           ; Copyright © 2017, Microchip Technology Inc. and its subsidiaries ("Microchip")
    51                           ; All rights reserved.
    52                           ; 
    53                           ; This software is developed by Microchip Technology Inc. and its subsidiaries ("Microch
      +                          ip").
    54                           ; 
    55                           ; Redistribution and use in source and binary forms, with or without modification, are
    56                           ; permitted provided that the following conditions are met:
    57                           ; 
    58                           ;     1. Redistributions of source code must retain the above copyright notice, this lis
      +                          t of
    59                           ;        conditions and the following disclaimer.
    60                           ; 
    61                           ;     2. Redistributions in binary form must reproduce the above copyright notice, this 
      +                          list
    62                           ;        of conditions and the following disclaimer in the documentation and/or other
    63                           ;        materials provided with the distribution.
    64                           ; 
    65                           ;     3. Microchip's name may not be used to endorse or promote products derived from th
      +                          is
    66                           ;        software without specific prior written permission.
    67                           ; 
    68                           ; THIS SOFTWARE IS PROVIDED BY MICROCHIP "AS IS" AND ANY EXPRESS OR IMPLIED WARRANTIES,
    69                           ; INCLUDING, BUT NOT LIMITED TO, THE IMPLIED WARRANTIES OF MERCHANTABILITY AND FITNESS F
      +                          OR
    70                           ; PURPOSE ARE DISCLAIMED.  IN NO EVENT SHALL MICROCHIP BE LIABLE FOR ANY DIRECT, INDIREC
      +                          T,
    71                           ; INCIDENTAL, SPECIAL, EXEMPLARY, OR CONSEQUENTIAL DAMAGES (INCLUDING BUT NOT LIMITED TO
    72                           ; PROCUREMENT OF SUBSTITUTE GOODS OR SERVICES; LOSS OF USE, DATA OR PROFITS; OR BUSINESS
    73                           ; INTERRUPTION) HOWSOEVER CAUSED AND ON ANY THEORY OF LIABILITY, WHETHER IN CONTRACT, ST
      +                          RICT
    74                           ; LIABILITY, OR TORT (INCLUDING NEGLIGENCE OR OTHERWISE) ARISING IN ANY WAY OUT OF THE U
      +                          SE OF
    75                           ; THIS SOFTWARE, EVEN IF ADVISED OF THE POSSIBILITY OF SUCH DAMAGE.
    76                           ; 
    77                           ; 
    78                           ; Code-generator required, PIC18F85J94 Definitions
    79                           ; 
    80                           ; SFR Addresses
    81  0000                     
    82                           	psect	idataCOMRAM
    83  00113E                     __pidataCOMRAM:
    84                           	opt stack 0
    85                           
    86                           ;initializer for _tapOnTime
    87  00113E  0005               	dw	5
    88                           
    89                           	psect	idataBANK0
    90  001134                     __pidataBANK0:
    91                           	opt stack 0
    92                           
    93                           ;initializer for _presetParams
    94  001134  0000               	dw	0
    95  001136  0080               	dw	128
    96  001138  0080               	dw	128
    97                           
    98                           ;initializer for _currentTapTime
    99  00113A  01F4               	dw	500
   100                           
   101                           ;initializer for _bypMode
   102  00113C  0001               	dw	1
   103  0000                     _ADCBUF9	set	3672
   104  0000                     _ADCBUF8	set	3670
   105  0000                     _ADCBUF14	set	3682
   106  0000                     _ADCBUF6	set	3666
   107  0000                     _ADCBUF5	set	3664
   108  0000                     _ADCBUF4	set	3662
   109  0000                     _ADCBUF3	set	3660
   110  0000                     _ADCBUF2	set	3658
   111  0000                     _ADCBUF1	set	3656
   112  0000                     _MEMCONbits	set	3811
   113  0000                     _LCDSE7	set	3797
   114  0000                     _LCDSE6	set	3796
   115  0000                     _LCDSE5	set	3795
   116  0000                     _LCDSE4	set	3794
   117  0000                     _LCDSE3	set	3793
   118  0000                     _LCDSE2	set	3792
   119  0000                     _LCDSE1	set	3791
   120  0000                     _LCDSE0	set	3790
   121  0000                     _LCDCONbits	set	3801
   122  0000                     _RPINR22_23bits	set	3637
   123  0000                     _RPINR18_19bits	set	3635
   124  0000                     _RPINR24_25bits	set	3638
   125  0000                     _RPINR20_21bits	set	3636
   126  0000                     _ANCON3bits	set	3653
   127  0000                     _ANCON2bits	set	3654
   128  0000                     _ANCON1bits	set	3655
   129  0000                     _ADCHS0Lbits	set	3718
   130  0000                     _ADCON5Hbits	set	3721
   131  0000                     _ADCON3Lbits	set	3722
   132  0000                     _ADCON3Hbits	set	3723
   133  0000                     _ADCON2Hbits	set	3725
   134  0000                     _SSP2STATbits	set	3866
   135  0000                     _IOCNbits	set	3925
   136  0000                     _T5CONbits	set	3860
   137  0000                     _CM3CONbits	set	3895
   138  0000                     _CM2CONbits	set	3896
   139  0000                     _CM1CONbits	set	3923
   140  0000                     _SSP2BUF	set	3843
   141  0000                     _SSP2CON3bits	set	3897
   142  0000                     _SSP2CON2bits	set	3864
   143  0000                     _SSP2MSK	set	3863
   144  0000                     _SSP2ADD	set	3842
   145  0000                     _SSP2CON1bits	set	3865
   146  0000                     _CCPR4H	set	3858
   147  0000                     _CCPTMRS1bits	set	3893
   148  0000                     _CCP4CONbits	set	3856
   149  0000                     _CCPR4L	set	3857
   150  0000                     _T4CONbits	set	3844
   151  0000                     _ADCBUF0	set	4034
   152  0000                     _SSP1STATbits	set	4039
   153  0000                     _PIR1bits	set	3998
   154  0000                     _SSP1CON2bits	set	4037
   155  0000                     _IOCFbits	set	4049
   156  0000                     _PIE5bits	set	4023
   157  0000                     _PIE2bits	set	4000
   158  0000                     _PIE1bits	set	3997
   159  0000                     _INTCONbits	set	4082
   160  0000                     _TRISBbits	set	3987
   161  0000                     _TRISJbits	set	3994
   162  0000                     _TRISEbits	set	3990
   163  0000                     _T3CONbits	set	4017
   164  0000                     _UCONbits	set	3957
   165  0000                     _OSCCON	set	4051
   166  0000                     _TRISGbits	set	3992
   167  0000                     _TRISHbits	set	3993
   168  0000                     _TRISFbits	set	3991
   169  0000                     _TRISAbits	set	3986
   170  0000                     _ADCON1Lbits	set	4032
   171  0000                     _ADCON1Hbits	set	4033
   172  0000                     _TRISDbits	set	3989
   173  0000                     _SSP1BUF	set	4041
   174  0000                     _SSP1ADD	set	4040
   175  0000                     _SSP1CON1bits	set	4038
   176  0000                     _T2CON	set	4042
   177  0000                     _TRISCbits	set	3988
   178  0000                     _PR2	set	4043
   179  0000                     _OSCCONbits	set	4051
   180  0000                     _OSCCON2bits	set	3942
   181  0000                     _OSCCON3bits	set	3941
   182  0000                     _OSCCON4bits	set	3940
   183  0000                     _T1CONbits	set	4045
   184  0000                     _T0CONbits	set	4053
   185  0000                     _T2CONbits	set	4042
   186  0000                     _PIR2bits	set	4001
   187  0000                     _RD7	set	31775
   188  0000                     _RJ0	set	31808
   189  0000                     _RJ1	set	31809
   190  0000                     _RH4	set	31804
   191  0000                     _RH5	set	31805
   192  0000                     _RF3	set	31787
   193  0000                     _RC6	set	31766
   194  0000                     _RC0	set	31760
   195  0000                     _RC1	set	31761
   196  0000                     _RJ5	set	31813
   197  0000                     _RJ4	set	31812
   198  0000                     _RC7	set	31767
   199  0000                     _LATH2	set	31874
   200  0000                     _LATE4	set	31852
   201  0000                     _LATE5	set	31853
   202  0000                     _LATE7	set	31855
   203  0000                     _LATD0	set	31840
   204  0000                     _RG3	set	31795
   205  0000                     _RD1	set	31769
   206  0000                     _LATH0	set	31872
   207  0000                     _LATG4	set	31868
   208  0000                     _RE6	set	31782
   209  0000                     _LATF6	set	31862
   210  0000                     _LATF5	set	31861
   211  0000                     _RG2	set	31794
   212  0000                     _LATF2	set	31858
   213  0000                     _LATH7	set	31879
   214  0000                     _RG1	set	31793
   215  0000                     _RE3	set	31779
   216  0000                     _RD4	set	31772
   217  0000                     _IOCF7	set	32399
   218  0000                     _IOCF6	set	32398
   219  0000                     _IOCF5	set	32397
   220  0000                     _IOCF4	set	32396
   221  0000                     _IOCF3	set	32395
   222  0000                     _IOCF2	set	32394
   223  0000                     _IOCF1	set	32393
   224  0000                     _LATE0	set	31848
   225  0000                     _LATD2	set	31842
   226  0000                     _LATH1	set	31873
   227  0000                     _LATE1	set	31849
   228  0000                     _LATD3	set	31843
   229  0000                     _LATB5	set	31829
   230  0000                     _TMR2ON	set	32338
   231  0000                     _TMR0IF	set	32658
   232  0000                     _TMR2IF	set	31985
   233  0000                     _TMR4IF	set	32192
   234  0000                     _SSP2IF	set	32014
   235                           
   236                           ; #config settings
   237  0000                     
   238                           	psect	cinit
   239  000E34                     __pcinit:
   240                           	opt stack 0
   241  000E34                     start_initialization:
   242                           	opt stack 0
   243  000E34                     __initialization:
   244                           	opt stack 0
   245                           
   246                           ; Initialize objects allocated to BANK0 (10 bytes)
   247                           ; load TBLPTR registers with __pidataBANK0
   248  000E34  0E34               	movlw	low __pidataBANK0
   249  000E36  6EF6               	movwf	tblptrl,c
   250  000E38  0E11               	movlw	high __pidataBANK0
   251  000E3A  6EF7               	movwf	tblptrh,c
   252  000E3C  0E00               	movlw	low (__pidataBANK0 shr (0+16))
   253  000E3E  6EF8               	movwf	tblptru,c
   254  000E40  EE00  F09B         	lfsr	0,__pdataBANK0
   255  000E44  EE10 F00A          	lfsr	1,10
   256  000E48                     copy_data0:
   257  000E48  0009               	tblrd		*+
   258  000E4A  CFF5 FFEE          	movff	tablat,postinc0
   259  000E4E  50E5               	movf	postdec1,w,c
   260  000E50  50E1               	movf	fsr1l,w,c
   261  000E52  E1FA               	bnz	copy_data0
   262                           
   263                           ; Initialize objects allocated to COMRAM (2 bytes)
   264                           ; load TBLPTR registers with __pidataCOMRAM
   265  000E54  0E3E               	movlw	low __pidataCOMRAM
   266  000E56  6EF6               	movwf	tblptrl,c
   267  000E58  0E11               	movlw	high __pidataCOMRAM
   268  000E5A  6EF7               	movwf	tblptrh,c
   269  000E5C  0E00               	movlw	low (__pidataCOMRAM shr (0+16))
   270  000E5E  6EF8               	movwf	tblptru,c
   271  000E60  0009               	tblrd		*+	;fetch initializer
   272  000E62  CFF5 F03F          	movff	tablat,__pdataCOMRAM
   273  000E66  0009               	tblrd		*+	;fetch initializer
   274  000E68  CFF5 F040          	movff	tablat,__pdataCOMRAM+1
   275                           
   276                           ; Clear objects allocated to BANK0 (30 bytes)
   277  000E6C  EE00  F060         	lfsr	0,__pbssBANK0
   278  000E70  0E1E               	movlw	30
   279  000E72                     clear_0:
   280  000E72  6AEE               	clrf	postinc0,c
   281  000E74  06E8               	decf	wreg,f,c
   282  000E76  E1FD               	bnz	clear_0
   283                           
   284                           ; Clear objects allocated to COMRAM (32 bytes)
   285  000E78  EE00  F001         	lfsr	0,__pbssCOMRAM
   286  000E7C  0E20               	movlw	32
   287  000E7E                     clear_1:
   288  000E7E  6AEE               	clrf	postinc0,c
   289  000E80  06E8               	decf	wreg,f,c
   290  000E82  E1FD               	bnz	clear_1
   291  000E84                     end_of_initialization:
   292                           	opt stack 0
   293  000E84                     __end_of__initialization:
   294                           	opt stack 0
   295  000E84  9041               	bcf	int$flags,0,c	;clear compiler interrupt flag (level 1)
   296  000E86  9241               	bcf	int$flags,1,c	;clear compiler interrupt flag (level 2)
   297  000E88  0100               	movlb	0
   298  000E8A  EF31  F003         	goto	_main	;jump to C main() function
   299                           tblptru	equ	0xFF8
   300                           tblptrh	equ	0xFF7
   301                           tblptrl	equ	0xFF6
   302                           tablat	equ	0xFF5
   303                           postinc0	equ	0xFEE
   304                           wreg	equ	0xFE8
   305                           postdec1	equ	0xFE5
   306                           fsr1l	equ	0xFE1
   307                           
   308                           	psect	bssCOMRAM
   309  000001                     __pbssCOMRAM:
   310                           	opt stack 0
   311  000001                     _setupComplete:
   312                           	opt stack 0
   313  000001                     	ds	2
   314  000003                     _tap:
   315                           	opt stack 0
   316  000003                     	ds	2
   317  000005                     _tapPrev:
   318                           	opt stack 0
   319  000005                     	ds	2
   320  000007                     _tapTimeCount:
   321                           	opt stack 0
   322  000007                     	ds	2
   323  000009                     _timeValue:
   324                           	opt stack 0
   325  000009                     	ds	2
   326  00000B                     _levelValue:
   327                           	opt stack 0
   328  00000B                     	ds	2
   329  00000D                     _feedbackValue:
   330                           	opt stack 0
   331  00000D                     	ds	2
   332  00000F                     _dataTarget:
   333                           	opt stack 0
   334  00000F                     	ds	2
   335  000011                     _tapDispCount:
   336                           	opt stack 0
   337  000011                     	ds	2
   338  000013                     _preset:
   339                           	opt stack 0
   340  000013                     	ds	2
   341  000015                     _bypass:
   342                           	opt stack 0
   343  000015                     	ds	2
   344  000017                     _switch1:
   345                           	opt stack 0
   346  000017                     	ds	2
   347  000019                     _swX:
   348                           	opt stack 0
   349  000019                     	ds	2
   350  00001B                     _intC:
   351                           	opt stack 0
   352  00001B                     	ds	2
   353  00001D                     _intB:
   354                           	opt stack 0
   355  00001D                     	ds	2
   356  00001F                     _intA:
   357                           	opt stack 0
   358  00001F                     	ds	2
   359                           tblptru	equ	0xFF8
   360                           tblptrh	equ	0xFF7
   361                           tblptrl	equ	0xFF6
   362                           tablat	equ	0xFF5
   363                           postinc0	equ	0xFEE
   364                           wreg	equ	0xFE8
   365                           postdec1	equ	0xFE5
   366                           fsr1l	equ	0xFE1
   367                           
   368                           	psect	dataCOMRAM
   369  00003F                     __pdataCOMRAM:
   370                           	opt stack 0
   371  00003F                     _tapOnTime:
   372                           	opt stack 0
   373  00003F                     	ds	2
   374                           tblptru	equ	0xFF8
   375                           tblptrh	equ	0xFF7
   376                           tblptrl	equ	0xFF6
   377                           tablat	equ	0xFF5
   378                           postinc0	equ	0xFEE
   379                           wreg	equ	0xFE8
   380                           postdec1	equ	0xFE5
   381                           fsr1l	equ	0xFE1
   382                           
   383                           	psect	bssBANK0
   384  000060                     __pbssBANK0:
   385                           	opt stack 0
   386  000060                     _tapAccum:
   387                           	opt stack 0
   388  000060                     	ds	4
   389  000064                     _timeoutCount:
   390                           	opt stack 0
   391  000064                     	ds	2
   392  000066                     _newTempo:
   393                           	opt stack 0
   394  000066                     	ds	2
   395  000068                     _tapTime:
   396                           	opt stack 0
   397  000068                     	ds	2
   398  00006A                     _dataPtr:
   399                           	opt stack 0
   400  00006A                     	ds	2
   401  00006C                     _hiLo:
   402                           	opt stack 0
   403  00006C                     	ds	2
   404  00006E                     _tapFlash:
   405                           	opt stack 0
   406  00006E                     	ds	2
   407  000070                     _muxADC:
   408                           	opt stack 0
   409  000070                     	ds	2
   410  000072                     _fsw2:
   411                           	opt stack 0
   412  000072                     	ds	2
   413  000074                     _fsw1:
   414                           	opt stack 0
   415  000074                     	ds	2
   416  000076                     _switch5:
   417                           	opt stack 0
   418  000076                     	ds	2
   419  000078                     _switch4:
   420                           	opt stack 0
   421  000078                     	ds	2
   422  00007A                     _switch3:
   423                           	opt stack 0
   424  00007A                     	ds	2
   425  00007C                     _switch2:
   426                           	opt stack 0
   427  00007C                     	ds	2
   428                           tblptru	equ	0xFF8
   429                           tblptrh	equ	0xFF7
   430                           tblptrl	equ	0xFF6
   431                           tablat	equ	0xFF5
   432                           postinc0	equ	0xFEE
   433                           wreg	equ	0xFE8
   434                           postdec1	equ	0xFE5
   435                           fsr1l	equ	0xFE1
   436                           
   437                           	psect	dataBANK0
   438  00009B                     __pdataBANK0:
   439                           	opt stack 0
   440  00009B                     _presetParams:
   441                           	opt stack 0
   442  00009B                     	ds	6
   443  0000A1                     _currentTapTime:
   444                           	opt stack 0
   445  0000A1                     	ds	2
   446  0000A3                     _bypMode:
   447                           	opt stack 0
   448  0000A3                     	ds	2
   449                           tblptru	equ	0xFF8
   450                           tblptrh	equ	0xFF7
   451                           tblptrl	equ	0xFF6
   452                           tablat	equ	0xFF5
   453                           postinc0	equ	0xFEE
   454                           wreg	equ	0xFE8
   455                           postdec1	equ	0xFE5
   456                           fsr1l	equ	0xFE1
   457                           
   458                           	psect	cstackBANK0
   459  00007E                     __pcstackBANK0:
   460                           	opt stack 0
   461  00007E                     ??_startupSequence:
   462  00007E                     ?_ADC_Read:
   463                           	opt stack 0
   464  00007E                     ?_absVal:
   465                           	opt stack 0
   466  00007E                     I2C1_Write_DigiPot@value:
   467                           	opt stack 0
   468  00007E                     absVal@val:
   469                           	opt stack 0
   470  00007E                     ADC_Read@channel:
   471                           	opt stack 0
   472                           
   473                           ; 2 bytes @ 0x0
   474  00007E                     	ds	1
   475  00007F                     I2C1_Write_DigiPot@wrCommand:
   476                           	opt stack 0
   477                           
   478                           ; 1 bytes @ 0x1
   479  00007F                     	ds	1
   480  000080                     ??_absVal:
   481  000080                     ADC_Read@value:
   482                           	opt stack 0
   483                           
   484                           ; 2 bytes @ 0x2
   485  000080                     	ds	2
   486  000082                     ??_main:
   487                           
   488                           ; 1 bytes @ 0x4
   489  000082                     	ds	3
   490  000085                     main@result:
   491                           	opt stack 0
   492                           
   493                           ; 2 bytes @ 0x7
   494  000085                     	ds	2
   495  000087                     main@i:
   496                           	opt stack 0
   497                           
   498                           ; 2 bytes @ 0x9
   499  000087                     	ds	2
   500  000089                     main@byte:
   501                           	opt stack 0
   502                           
   503                           ; 2 bytes @ 0xB
   504  000089                     	ds	2
   505  00008B                     main@dir:
   506                           	opt stack 0
   507                           
   508                           ; 2 bytes @ 0xD
   509  00008B                     	ds	2
   510  00008D                     main@temp:
   511                           	opt stack 0
   512                           
   513                           ; 2 bytes @ 0xF
   514  00008D                     	ds	2
   515  00008F                     main@bitA:
   516                           	opt stack 0
   517                           
   518                           ; 2 bytes @ 0x11
   519  00008F                     	ds	2
   520  000091                     main@bitB:
   521                           	opt stack 0
   522                           
   523                           ; 2 bytes @ 0x13
   524  000091                     	ds	2
   525  000093                     main@bitC:
   526                           	opt stack 0
   527                           
   528                           ; 2 bytes @ 0x15
   529  000093                     	ds	2
   530  000095                     main@prevDry:
   531                           	opt stack 0
   532                           
   533                           ; 2 bytes @ 0x17
   534  000095                     	ds	2
   535  000097                     main@diff:
   536                           	opt stack 0
   537                           
   538                           ; 2 bytes @ 0x19
   539  000097                     	ds	2
   540  000099                     main@dryLevel:
   541                           	opt stack 0
   542                           
   543                           ; 2 bytes @ 0x1B
   544  000099                     	ds	2
   545                           tblptru	equ	0xFF8
   546                           tblptrh	equ	0xFF7
   547                           tblptrl	equ	0xFF6
   548                           tablat	equ	0xFF5
   549                           postinc0	equ	0xFEE
   550                           wreg	equ	0xFE8
   551                           postdec1	equ	0xFE5
   552                           fsr1l	equ	0xFE1
   553                           
   554                           	psect	cstackCOMRAM
   555  000021                     __pcstackCOMRAM:
   556                           	opt stack 0
   557  000021                     ??_sendParam:
   558  000021                     ??_tapLED:
   559  000021                     ?___awdiv:
   560                           	opt stack 0
   561  000021                     ?i2_absVal:
   562                           	opt stack 0
   563  000021                     checkSwitches@flag:
   564                           	opt stack 0
   565  000021                     updatePresetLEDs@psNum:
   566                           	opt stack 0
   567  000021                     ___awdiv@dividend:
   568                           	opt stack 0
   569  000021                     i2absVal@val:
   570                           	opt stack 0
   571                           
   572                           ; 2 bytes @ 0x0
   573  000021                     	ds	2
   574  000023                     ??i2_absVal:
   575  000023                     sendParam@byte:
   576                           	opt stack 0
   577  000023                     ___awdiv@divisor:
   578                           	opt stack 0
   579                           
   580                           ; 2 bytes @ 0x2
   581  000023                     	ds	2
   582  000025                     ___awdiv@counter:
   583                           	opt stack 0
   584                           
   585                           ; 1 bytes @ 0x4
   586  000025                     	ds	1
   587  000026                     ___awdiv@sign:
   588                           	opt stack 0
   589                           
   590                           ; 1 bytes @ 0x5
   591  000026                     	ds	1
   592  000027                     ___awdiv@quotient:
   593                           	opt stack 0
   594                           
   595                           ; 2 bytes @ 0x6
   596  000027                     	ds	2
   597  000029                     ??_processTaps:
   598                           
   599                           ; 1 bytes @ 0x8
   600  000029                     	ds	2
   601  00002B                     processTaps@tapDiff:
   602                           	opt stack 0
   603                           
   604                           ; 2 bytes @ 0xA
   605  00002B                     	ds	2
   606  00002D                     ??_highPriorityISR:
   607                           
   608                           ; 1 bytes @ 0xC
   609  00002D                     	ds	18
   610  00003F                     tblptru	equ	0xFF8
   611                           tblptrh	equ	0xFF7
   612                           tblptrl	equ	0xFF6
   613                           tablat	equ	0xFF5
   614                           postinc0	equ	0xFEE
   615                           wreg	equ	0xFE8
   616                           postdec1	equ	0xFE5
   617                           fsr1l	equ	0xFE1
   618                           
   619                           ; 1 bytes @ 0x1E
   620 ;;
   621 ;;Main: autosize = 0, tempsize = 3, incstack = 0, save=0
   622 ;;
   623 ;; *************** function _main *****************
   624 ;; Defined at:
   625 ;;		line 167 in file "main.c"
   626 ;; Parameters:    Size  Location     Type
   627 ;;		None
   628 ;; Auto vars:     Size  Location     Type
   629 ;;  dryLevel        2   27[BANK0 ] int 
   630 ;;  diff            2   25[BANK0 ] int 
   631 ;;  prevDry         2   23[BANK0 ] int 
   632 ;;  bitC            2   21[BANK0 ] int 
   633 ;;  bitB            2   19[BANK0 ] int 
   634 ;;  bitA            2   17[BANK0 ] int 
   635 ;;  temp            2   15[BANK0 ] int 
   636 ;;  dir             2   13[BANK0 ] int 
   637 ;;  byte            2   11[BANK0 ] int 
   638 ;;  i               2    9[BANK0 ] int 
   639 ;;  result          2    7[BANK0 ] int 
   640 ;; Return value:  Size  Location     Type
   641 ;;                  1    wreg      void 
   642 ;; Registers used:
   643 ;;		wreg, status,2, status,0, cstack
   644 ;; Tracked objects:
   645 ;;		On entry : 0/0
   646 ;;		On exit  : 0/0
   647 ;;		Unchanged: 0/0
   648 ;; Data sizes:     COMRAM   BANK0   BANK1   BANK2   BANK3   BANK4   BANK5   BANK6   BANK7   BANK8   BANK9  BANK10  BANK1
      +1  BANK12  BANK13
   649 ;;      Params:         0       0       0       0       0       0       0       0       0       0       0       0       
      +0       0       0
   650 ;;      Locals:         0      22       0       0       0       0       0       0       0       0       0       0       
      +0       0       0
   651 ;;      Temps:          0       3       0       0       0       0       0       0       0       0       0       0       
      +0       0       0
   652 ;;      Totals:         0      25       0       0       0       0       0       0       0       0       0       0       
      +0       0       0
   653 ;;Total ram usage:       25 bytes
   654 ;; Hardware stack levels required when called:    6
   655 ;; This function calls:
   656 ;;		_ADC_Read
   657 ;;		_I2C1_Write_DigiPot
   658 ;;		_absVal
   659 ;;		_systemInit
   660 ;; This function is called by:
   661 ;;		Startup code after reset
   662 ;; This function uses a non-reentrant model
   663 ;;
   664                           
   665                           	psect	text0
   666  000662                     __ptext0:
   667                           	opt stack 0
   668  000662                     _main:
   669                           	opt stack 25
   670                           
   671                           ;main.c: 169: int result = 0;
   672                           
   673                           ;incstack = 0
   674  000662  0E00               	movlw	0
   675  000664  0100               	movlb	0	; () banked
   676  000666  6F86               	movwf	(main@result+1)& (0+255),b
   677  000668  0E00               	movlw	0
   678  00066A  6F85               	movwf	main@result& (0+255),b
   679                           
   680                           ;main.c: 170: int i = 0;
   681  00066C  0E00               	movlw	0
   682  00066E  0100               	movlb	0	; () banked
   683  000670  6F88               	movwf	(main@i+1)& (0+255),b
   684  000672  0E00               	movlw	0
   685  000674  6F87               	movwf	main@i& (0+255),b
   686                           
   687                           ;main.c: 171: int byte = 0;
   688  000676  0E00               	movlw	0
   689  000678  0100               	movlb	0	; () banked
   690  00067A  6F8A               	movwf	(main@byte+1)& (0+255),b
   691  00067C  0E00               	movlw	0
   692  00067E  6F89               	movwf	main@byte& (0+255),b
   693                           
   694                           ;main.c: 172: int dryLevel = 50;
   695  000680  0E00               	movlw	0
   696  000682  0100               	movlb	0	; () banked
   697  000684  6F9A               	movwf	(main@dryLevel+1)& (0+255),b
   698  000686  0E32               	movlw	50
   699  000688  6F99               	movwf	main@dryLevel& (0+255),b
   700                           
   701                           ;main.c: 173: int prevDry = 50;
   702  00068A  0E00               	movlw	0
   703  00068C  0100               	movlb	0	; () banked
   704  00068E  6F96               	movwf	(main@prevDry+1)& (0+255),b
   705  000690  0E32               	movlw	50
   706  000692  6F95               	movwf	main@prevDry& (0+255),b
   707                           
   708                           ;main.c: 174: int diff = 0;
   709  000694  0E00               	movlw	0
   710  000696  0100               	movlb	0	; () banked
   711  000698  6F98               	movwf	(main@diff+1)& (0+255),b
   712  00069A  0E00               	movlw	0
   713  00069C  6F97               	movwf	main@diff& (0+255),b
   714                           
   715                           ;main.c: 175: int dir = 1;
   716  00069E  0E00               	movlw	0
   717  0006A0  0100               	movlb	0	; () banked
   718  0006A2  6F8C               	movwf	(main@dir+1)& (0+255),b
   719  0006A4  0E01               	movlw	1
   720  0006A6  6F8B               	movwf	main@dir& (0+255),b
   721                           
   722                           ;main.c: 177: int temp = 0;
   723  0006A8  0E00               	movlw	0
   724  0006AA  0100               	movlb	0	; () banked
   725  0006AC  6F8E               	movwf	(main@temp+1)& (0+255),b
   726  0006AE  0E00               	movlw	0
   727  0006B0  6F8D               	movwf	main@temp& (0+255),b
   728                           
   729                           ;main.c: 179: int bitA = 1;
   730  0006B2  0E00               	movlw	0
   731  0006B4  0100               	movlb	0	; () banked
   732  0006B6  6F90               	movwf	(main@bitA+1)& (0+255),b
   733  0006B8  0E01               	movlw	1
   734  0006BA  6F8F               	movwf	main@bitA& (0+255),b
   735                           
   736                           ;main.c: 180: int bitB = 1;
   737  0006BC  0E00               	movlw	0
   738  0006BE  0100               	movlb	0	; () banked
   739  0006C0  6F92               	movwf	(main@bitB+1)& (0+255),b
   740  0006C2  0E01               	movlw	1
   741  0006C4  6F91               	movwf	main@bitB& (0+255),b
   742                           
   743                           ;main.c: 181: int bitC = 1;
   744  0006C6  0E00               	movlw	0
   745  0006C8  0100               	movlb	0	; () banked
   746  0006CA  6F94               	movwf	(main@bitC+1)& (0+255),b
   747  0006CC  0E01               	movlw	1
   748  0006CE  6F93               	movwf	main@bitC& (0+255),b
   749                           
   750                           ; BSR set to: 0
   751                           ;main.c: 183: systemInit();
   752  0006D0  ECBB  F007         	call	_systemInit	;wreg free
   753                           
   754                           ;main.c: 187: I2C1_Write_DigiPot(127);
   755  0006D4  0E7F               	movlw	127
   756  0006D6  ECDC  F007         	call	_I2C1_Write_DigiPot
   757  0006DA                     l119:
   758                           
   759                           ;main.c: 190: {
   760                           ;main.c: 191: if (preset == 1)
   761  0006DA  0413               	decf	_preset,w,c
   762  0006DC  1014               	iorwf	_preset+1,w,c
   763  0006DE  A4D8               	btfss	status,2,c
   764  0006E0  D00D               	goto	l120
   765                           
   766                           ;main.c: 192: {
   767                           ;main.c: 193: timeValue = presetParams[0];
   768  0006E2  C09B  F009         	movff	_presetParams,_timeValue
   769  0006E6  C09C  F00A         	movff	_presetParams+1,_timeValue+1
   770                           
   771                           ;main.c: 194: feedbackValue = presetParams[1];
   772  0006EA  C09D  F00D         	movff	_presetParams+2,_feedbackValue
   773  0006EE  C09E  F00E         	movff	_presetParams+3,_feedbackValue+1
   774                           
   775                           ;main.c: 195: levelValue = presetParams[2];
   776  0006F2  C09F  F00B         	movff	_presetParams+4,_levelValue
   777  0006F6  C0A0  F00C         	movff	_presetParams+5,_levelValue+1
   778                           
   779                           ;main.c: 196: }
   780  0006FA  D094               	goto	l122
   781  0006FC                     l120:
   782                           
   783                           ;main.c: 197: else
   784                           ;main.c: 198: {
   785                           ;main.c: 199: feedbackValue = ADC_Read(4);
   786  0006FC  0E00               	movlw	0
   787  0006FE  0100               	movlb	0	; () banked
   788  000700  6F7F               	movwf	(ADC_Read@channel+1)& (0+255),b
   789  000702  0E04               	movlw	4
   790  000704  6F7E               	movwf	ADC_Read@channel& (0+255),b
   791  000706  EC1B  F004         	call	_ADC_Read	;wreg free
   792  00070A  C07E  F00D         	movff	?_ADC_Read,_feedbackValue
   793  00070E  C07F  F00E         	movff	?_ADC_Read+1,_feedbackValue+1
   794                           
   795                           ;main.c: 200: feedbackValue = feedbackValue>>4;
   796  000712  C00D  F082         	movff	_feedbackValue,??_main
   797  000716  C00E  F083         	movff	_feedbackValue+1,??_main+1
   798  00071A  0E04               	movlw	4
   799  00071C  0100               	movlb	0	; () banked
   800  00071E  6F84               	movwf	(??_main+2)& (0+255),b
   801  000720                     u2785:
   802  000720  0100               	movlb	0	; () banked
   803  000722  3583               	rlcf	(??_main+1)& (0+255),w,b
   804  000724  3383               	rrcf	(??_main+1)& (0+255),f,b
   805  000726  3382               	rrcf	??_main& (0+255),f,b
   806  000728  0100               	movlb	0	; () banked
   807  00072A  2F84               	decfsz	(??_main+2)& (0+255),f,b
   808  00072C  D7F9               	goto	u2785
   809  00072E  C082  F00D         	movff	??_main,_feedbackValue
   810  000732  C083  F00E         	movff	??_main+1,_feedbackValue+1
   811                           
   812                           ; BSR set to: 0
   813                           ;main.c: 202: levelValue = ADC_Read(3);
   814  000736  0E00               	movlw	0
   815  000738  0100               	movlb	0	; () banked
   816  00073A  6F7F               	movwf	(ADC_Read@channel+1)& (0+255),b
   817  00073C  0E03               	movlw	3
   818  00073E  6F7E               	movwf	ADC_Read@channel& (0+255),b
   819  000740  EC1B  F004         	call	_ADC_Read	;wreg free
   820  000744  C07E  F00B         	movff	?_ADC_Read,_levelValue
   821  000748  C07F  F00C         	movff	?_ADC_Read+1,_levelValue+1
   822                           
   823                           ;main.c: 203: levelValue = levelValue>>4;
   824  00074C  C00B  F082         	movff	_levelValue,??_main
   825  000750  C00C  F083         	movff	_levelValue+1,??_main+1
   826  000754  0E04               	movlw	4
   827  000756  0100               	movlb	0	; () banked
   828  000758  6F84               	movwf	(??_main+2)& (0+255),b
   829  00075A                     u2795:
   830  00075A  0100               	movlb	0	; () banked
   831  00075C  3583               	rlcf	(??_main+1)& (0+255),w,b
   832  00075E  3383               	rrcf	(??_main+1)& (0+255),f,b
   833  000760  3382               	rrcf	??_main& (0+255),f,b
   834  000762  0100               	movlb	0	; () banked
   835  000764  2F84               	decfsz	(??_main+2)& (0+255),f,b
   836  000766  D7F9               	goto	u2795
   837  000768  C082  F00B         	movff	??_main,_levelValue
   838  00076C  C083  F00C         	movff	??_main+1,_levelValue+1
   839                           
   840                           ; BSR set to: 0
   841                           ;main.c: 205: timeValue = ADC_Read(14);
   842  000770  0E00               	movlw	0
   843  000772  0100               	movlb	0	; () banked
   844  000774  6F7F               	movwf	(ADC_Read@channel+1)& (0+255),b
   845  000776  0E0E               	movlw	14
   846  000778  6F7E               	movwf	ADC_Read@channel& (0+255),b
   847  00077A  EC1B  F004         	call	_ADC_Read	;wreg free
   848  00077E  C07E  F009         	movff	?_ADC_Read,_timeValue
   849  000782  C07F  F00A         	movff	?_ADC_Read+1,_timeValue+1
   850                           
   851                           ;main.c: 207: dryLevel = ADC_Read(8);
   852  000786  0E00               	movlw	0
   853  000788  0100               	movlb	0	; () banked
   854  00078A  6F7F               	movwf	(ADC_Read@channel+1)& (0+255),b
   855  00078C  0E08               	movlw	8
   856  00078E  6F7E               	movwf	ADC_Read@channel& (0+255),b
   857  000790  EC1B  F004         	call	_ADC_Read	;wreg free
   858  000794  C07E  F099         	movff	?_ADC_Read,main@dryLevel
   859  000798  C07F  F09A         	movff	?_ADC_Read+1,main@dryLevel+1
   860                           
   861                           ;main.c: 208: dryLevel = dryLevel>>5;
   862  00079C  C099  F082         	movff	main@dryLevel,??_main
   863  0007A0  C09A  F083         	movff	main@dryLevel+1,??_main+1
   864  0007A4  0E05               	movlw	5
   865  0007A6  0100               	movlb	0	; () banked
   866  0007A8  6F84               	movwf	(??_main+2)& (0+255),b
   867  0007AA                     u2805:
   868  0007AA  0100               	movlb	0	; () banked
   869  0007AC  3583               	rlcf	(??_main+1)& (0+255),w,b
   870  0007AE  3383               	rrcf	(??_main+1)& (0+255),f,b
   871  0007B0  3382               	rrcf	??_main& (0+255),f,b
   872  0007B2  0100               	movlb	0	; () banked
   873  0007B4  2F84               	decfsz	(??_main+2)& (0+255),f,b
   874  0007B6  D7F9               	goto	u2805
   875  0007B8  C082  F099         	movff	??_main,main@dryLevel
   876  0007BC  C083  F09A         	movff	??_main+1,main@dryLevel+1
   877                           
   878                           ;main.c: 209: diff = dryLevel - prevDry;
   879  0007C0  C095  F082         	movff	main@prevDry,??_main
   880  0007C4  C096  F083         	movff	main@prevDry+1,??_main+1
   881  0007C8  0100               	movlb	0	; () banked
   882  0007CA  1F82               	comf	??_main& (0+255),f,b
   883  0007CC  1F83               	comf	(??_main+1)& (0+255),f,b
   884  0007CE  4B82               	infsnz	??_main& (0+255),f,b
   885  0007D0  2B83               	incf	(??_main+1)& (0+255),f,b
   886  0007D2  0100               	movlb	0	; () banked
   887  0007D4  5199               	movf	main@dryLevel& (0+255),w,b
   888  0007D6  0100               	movlb	0	; () banked
   889  0007D8  2582               	addwf	??_main& (0+255),w,b
   890  0007DA  0100               	movlb	0	; () banked
   891  0007DC  6F97               	movwf	main@diff& (0+255),b
   892  0007DE  0100               	movlb	0	; () banked
   893  0007E0  519A               	movf	(main@dryLevel+1)& (0+255),w,b
   894  0007E2  0100               	movlb	0	; () banked
   895  0007E4  2183               	addwfc	(??_main+1)& (0+255),w,b
   896  0007E6  0100               	movlb	0	; () banked
   897  0007E8  6F98               	movwf	(main@diff+1)& (0+255),b
   898                           
   899                           ; BSR set to: 0
   900                           ;main.c: 210: diff = absVal(diff);
   901  0007EA  C097  F07E         	movff	main@diff,absVal@val
   902  0007EE  C098  F07F         	movff	main@diff+1,absVal@val+1
   903  0007F2  EC15  F008         	call	_absVal	;wreg free
   904  0007F6  C07E  F097         	movff	?_absVal,main@diff
   905  0007FA  C07F  F098         	movff	?_absVal+1,main@diff+1
   906                           
   907                           ;main.c: 212: if (diff >= 2)
   908  0007FE  0100               	movlb	0	; () banked
   909  000800  BF98               	btfsc	(main@diff+1)& (0+255),7,b
   910  000802  D010               	goto	l122
   911  000804  0100               	movlb	0	; () banked
   912  000806  5198               	movf	(main@diff+1)& (0+255),w,b
   913  000808  E105               	bnz	u2810
   914  00080A  0E02               	movlw	2
   915  00080C  0100               	movlb	0	; () banked
   916  00080E  5D97               	subwf	main@diff& (0+255),w,b
   917  000810  A0D8               	btfss	status,0,c
   918  000812  D008               	goto	l122
   919  000814                     u2810:
   920                           
   921                           ; BSR set to: 0
   922                           ;main.c: 213: {
   923                           ;main.c: 214: I2C1_Write_DigiPot(dryLevel);
   924  000814  0100               	movlb	0	; () banked
   925  000816  5199               	movf	main@dryLevel& (0+255),w,b
   926  000818  ECDC  F007         	call	_I2C1_Write_DigiPot
   927                           
   928                           ;main.c: 215: prevDry = dryLevel;
   929  00081C  C099  F095         	movff	main@dryLevel,main@prevDry
   930  000820  C09A  F096         	movff	main@dryLevel+1,main@prevDry+1
   931  000824                     l122:
   932                           
   933                           ;main.c: 216: }
   934                           ;main.c: 217: }
   935                           ;main.c: 220: if (!setupComplete)
   936  000824  5001               	movf	_setupComplete,w,c
   937  000826  1002               	iorwf	_setupComplete+1,w,c
   938  000828  A4D8               	btfss	status,2,c
   939  00082A  D757               	goto	l119
   940                           
   941                           ;main.c: 221: {
   942                           ;main.c: 222: setupComplete = 1;
   943  00082C  0E00               	movlw	0
   944  00082E  6E02               	movwf	_setupComplete+1,c
   945  000830  0E01               	movlw	1
   946  000832  6E01               	movwf	_setupComplete,c
   947  000834  D752               	goto	l119
   948  000836                     __end_of_main:
   949                           	opt stack 0
   950                           tblptru	equ	0xFF8
   951                           tblptrh	equ	0xFF7
   952                           tblptrl	equ	0xFF6
   953                           tablat	equ	0xFF5
   954                           postinc0	equ	0xFEE
   955                           wreg	equ	0xFE8
   956                           postdec1	equ	0xFE5
   957                           fsr1l	equ	0xFE1
   958                           status	equ	0xFD8
   959                           
   960 ;; *************** function _systemInit *****************
   961 ;; Defined at:
   962 ;;		line 320 in file "systemConfig.c"
   963 ;; Parameters:    Size  Location     Type
   964 ;;		None
   965 ;; Auto vars:     Size  Location     Type
   966 ;;		None
   967 ;; Return value:  Size  Location     Type
   968 ;;                  1    wreg      void 
   969 ;; Registers used:
   970 ;;		wreg, status,2, status,0, cstack
   971 ;; Tracked objects:
   972 ;;		On entry : 0/0
   973 ;;		On exit  : 0/0
   974 ;;		Unchanged: 0/0
   975 ;; Data sizes:     COMRAM   BANK0   BANK1   BANK2   BANK3   BANK4   BANK5   BANK6   BANK7   BANK8   BANK9  BANK10  BANK1
      +1  BANK12  BANK13
   976 ;;      Params:         0       0       0       0       0       0       0       0       0       0       0       0       
      +0       0       0
   977 ;;      Locals:         0       0       0       0       0       0       0       0       0       0       0       0       
      +0       0       0
   978 ;;      Temps:          0       0       0       0       0       0       0       0       0       0       0       0       
      +0       0       0
   979 ;;      Totals:         0       0       0       0       0       0       0       0       0       0       0       0       
      +0       0       0
   980 ;;Total ram usage:        0 bytes
   981 ;; Hardware stack levels used:    1
   982 ;; Hardware stack levels required when called:    5
   983 ;; This function calls:
   984 ;;		_bypassSetup
   985 ;;		_clockSwitch
   986 ;;		_interfaceInit
   987 ;;		_interruptInit
   988 ;;		_killLEDs
   989 ;;		_mapPeripheralPins
   990 ;;		_setupADC
   991 ;;		_setupI2C1
   992 ;;		_setupI2C2
   993 ;;		_setupTMR0
   994 ;;		_setupTMR1
   995 ;;		_setupTMR2
   996 ;;		_setupTMR4
   997 ;;		_startupSequence
   998 ;; This function is called by:
   999 ;;		_main
  1000 ;; This function uses a non-reentrant model
  1001 ;;
  1002                           
  1003                           	psect	text1
  1004  000F76                     __ptext1:
  1005                           	opt stack 0
  1006  000F76                     _systemInit:
  1007                           	opt stack 25
  1008                           
  1009                           ;systemConfig.c: 322: clockSwitch();
  1010                           
  1011                           ;incstack = 0
  1012  000F76  EC3F  F008         	call	_clockSwitch	;wreg free
  1013                           
  1014                           ;systemConfig.c: 324: setupTMR0();
  1015  000F7A  EC6E  F008         	call	_setupTMR0	;wreg free
  1016                           
  1017                           ;systemConfig.c: 325: setupTMR1();
  1018  000F7E  EC8D  F008         	call	_setupTMR1	;wreg free
  1019                           
  1020                           ;systemConfig.c: 326: setupTMR2();
  1021  000F82  EC85  F008         	call	_setupTMR2	;wreg free
  1022                           
  1023                           ;systemConfig.c: 327: setupTMR4();
  1024  000F86  EC7A  F008         	call	_setupTMR4	;wreg free
  1025                           
  1026                           ;systemConfig.c: 329: setupI2C1();
  1027  000F8A  EC61  F008         	call	_setupI2C1	;wreg free
  1028                           
  1029                           ;systemConfig.c: 330: setupI2C2();
  1030  000F8E  EC99  F007         	call	_setupI2C2	;wreg free
  1031                           
  1032                           ;systemConfig.c: 332: setupADC();
  1033  000F92  EC12  F006         	call	_setupADC	;wreg free
  1034                           
  1035                           ;systemConfig.c: 335: mapPeripheralPins();
  1036  000F96  EC47  F007         	call	_mapPeripheralPins	;wreg free
  1037                           
  1038                           ;systemConfig.c: 336: interfaceInit();
  1039  000F9A  ECC9  F005         	call	_interfaceInit	;wreg free
  1040                           
  1041                           ;systemConfig.c: 337: bypassSetup();
  1042  000F9E  EC94  F008         	call	_bypassSetup	;wreg free
  1043                           
  1044                           ;systemConfig.c: 338: killLEDs();
  1045  000FA2  EC51  F008         	call	_killLEDs	;wreg free
  1046                           
  1047                           ;systemConfig.c: 339: startupSequence();
  1048  000FA6  EC79  F000         	call	_startupSequence	;wreg free
  1049                           
  1050                           ;systemConfig.c: 340: killLEDs();
  1051  000FAA  EC51  F008         	call	_killLEDs	;wreg free
  1052                           
  1053                           ;systemConfig.c: 342: bypassSetup();
  1054  000FAE  EC94  F008         	call	_bypassSetup	;wreg free
  1055                           
  1056                           ;systemConfig.c: 344: interruptInit();
  1057  000FB2  ECFD  F007         	call	_interruptInit	;wreg free
  1058  000FB6  0012               	return		;funcret
  1059  000FB8                     __end_of_systemInit:
  1060                           	opt stack 0
  1061                           tblptru	equ	0xFF8
  1062                           tblptrh	equ	0xFF7
  1063                           tblptrl	equ	0xFF6
  1064                           tablat	equ	0xFF5
  1065                           postinc0	equ	0xFEE
  1066                           wreg	equ	0xFE8
  1067                           postdec1	equ	0xFE5
  1068                           fsr1l	equ	0xFE1
  1069                           status	equ	0xFD8
  1070                           
  1071 ;; *************** function _startupSequence *****************
  1072 ;; Defined at:
  1073 ;;		line 375 in file "hardware.c"
  1074 ;; Parameters:    Size  Location     Type
  1075 ;;		None
  1076 ;; Auto vars:     Size  Location     Type
  1077 ;;		None
  1078 ;; Return value:  Size  Location     Type
  1079 ;;                  1    wreg      void 
  1080 ;; Registers used:
  1081 ;;		wreg
  1082 ;; Tracked objects:
  1083 ;;		On entry : 0/0
  1084 ;;		On exit  : 0/0
  1085 ;;		Unchanged: 0/0
  1086 ;; Data sizes:     COMRAM   BANK0   BANK1   BANK2   BANK3   BANK4   BANK5   BANK6   BANK7   BANK8   BANK9  BANK10  BANK1
      +1  BANK12  BANK13
  1087 ;;      Params:         0       0       0       0       0       0       0       0       0       0       0       0       
      +0       0       0
  1088 ;;      Locals:         0       0       0       0       0       0       0       0       0       0       0       0       
      +0       0       0
  1089 ;;      Temps:          0       2       0       0       0       0       0       0       0       0       0       0       
      +0       0       0
  1090 ;;      Totals:         0       2       0       0       0       0       0       0       0       0       0       0       
      +0       0       0
  1091 ;;Total ram usage:        2 bytes
  1092 ;; Hardware stack levels used:    1
  1093 ;; Hardware stack levels required when called:    4
  1094 ;; This function calls:
  1095 ;;		Nothing
  1096 ;; This function is called by:
  1097 ;;		_systemInit
  1098 ;; This function uses a non-reentrant model
  1099 ;;
  1100                           
  1101                           	psect	text2
  1102  0000F2                     __ptext2:
  1103                           	opt stack 0
  1104  0000F2                     _startupSequence:
  1105                           	opt stack 25
  1106                           
  1107                           ;hardware.c: 380: LATD0 = 1;
  1108                           
  1109                           ;incstack = 0
  1110  0000F2  808C               	bsf	3980,0,c	;volatile
  1111                           
  1112                           ;hardware.c: 381: _delay((unsigned long)((75)*(32000000/4000.0)));
  1113  0000F4  0E04               	movlw	4
  1114  0000F6  0100               	movlb	0	; () banked
  1115  0000F8  6F7F               	movwf	(??_startupSequence+1)& (0+255),b
  1116  0000FA  0E0C               	movlw	12
  1117  0000FC  0100               	movlb	0	; () banked
  1118  0000FE  6F7E               	movwf	??_startupSequence& (0+255),b
  1119  000100  0E33               	movlw	51
  1120  000102                     u2837:
  1121  000102  2EE8               	decfsz	wreg,f,c
  1122  000104  D7FE               	bra	u2837
  1123  000106  2F7E               	decfsz	??_startupSequence& (0+255),f,b
  1124  000108  D7FC               	bra	u2837
  1125  00010A  2F7F               	decfsz	(??_startupSequence+1)& (0+255),f,b
  1126  00010C  D7FA               	bra	u2837
  1127  00010E  D000               	nop2	
  1128                           
  1129                           ;hardware.c: 382: LATE7 = 1;
  1130  000110  8E8D               	bsf	3981,7,c	;volatile
  1131                           
  1132                           ;hardware.c: 383: _delay((unsigned long)((75)*(32000000/4000.0)));
  1133  000112  0E04               	movlw	4
  1134  000114  0100               	movlb	0	; () banked
  1135  000116  6F7F               	movwf	(??_startupSequence+1)& (0+255),b
  1136  000118  0E0C               	movlw	12
  1137  00011A  0100               	movlb	0	; () banked
  1138  00011C  6F7E               	movwf	??_startupSequence& (0+255),b
  1139  00011E  0E33               	movlw	51
  1140  000120                     u2847:
  1141  000120  2EE8               	decfsz	wreg,f,c
  1142  000122  D7FE               	bra	u2847
  1143  000124  2F7E               	decfsz	??_startupSequence& (0+255),f,b
  1144  000126  D7FC               	bra	u2847
  1145  000128  2F7F               	decfsz	(??_startupSequence+1)& (0+255),f,b
  1146  00012A  D7FA               	bra	u2847
  1147  00012C  D000               	nop2	
  1148                           
  1149                           ;hardware.c: 384: LATE5 = 1;
  1150  00012E  8A8D               	bsf	3981,5,c	;volatile
  1151                           
  1152                           ;hardware.c: 385: _delay((unsigned long)((75)*(32000000/4000.0)));
  1153  000130  0E04               	movlw	4
  1154  000132  0100               	movlb	0	; () banked
  1155  000134  6F7F               	movwf	(??_startupSequence+1)& (0+255),b
  1156  000136  0E0C               	movlw	12
  1157  000138  0100               	movlb	0	; () banked
  1158  00013A  6F7E               	movwf	??_startupSequence& (0+255),b
  1159  00013C  0E33               	movlw	51
  1160  00013E                     u2857:
  1161  00013E  2EE8               	decfsz	wreg,f,c
  1162  000140  D7FE               	bra	u2857
  1163  000142  2F7E               	decfsz	??_startupSequence& (0+255),f,b
  1164  000144  D7FC               	bra	u2857
  1165  000146  2F7F               	decfsz	(??_startupSequence+1)& (0+255),f,b
  1166  000148  D7FA               	bra	u2857
  1167  00014A  D000               	nop2	
  1168                           
  1169                           ;hardware.c: 386: LATE4 = 1;
  1170  00014C  888D               	bsf	3981,4,c	;volatile
  1171                           
  1172                           ;hardware.c: 387: _delay((unsigned long)((75)*(32000000/4000.0)));
  1173  00014E  0E04               	movlw	4
  1174  000150  0100               	movlb	0	; () banked
  1175  000152  6F7F               	movwf	(??_startupSequence+1)& (0+255),b
  1176  000154  0E0C               	movlw	12
  1177  000156  0100               	movlb	0	; () banked
  1178  000158  6F7E               	movwf	??_startupSequence& (0+255),b
  1179  00015A  0E33               	movlw	51
  1180  00015C                     u2867:
  1181  00015C  2EE8               	decfsz	wreg,f,c
  1182  00015E  D7FE               	bra	u2867
  1183  000160  2F7E               	decfsz	??_startupSequence& (0+255),f,b
  1184  000162  D7FC               	bra	u2867
  1185  000164  2F7F               	decfsz	(??_startupSequence+1)& (0+255),f,b
  1186  000166  D7FA               	bra	u2867
  1187  000168  D000               	nop2	
  1188                           
  1189                           ;hardware.c: 388: LATH2 = 1;
  1190  00016A  8490               	bsf	3984,2,c	;volatile
  1191                           
  1192                           ;hardware.c: 389: _delay((unsigned long)((75)*(32000000/4000.0)));
  1193  00016C  0E04               	movlw	4
  1194  00016E  0100               	movlb	0	; () banked
  1195  000170  6F7F               	movwf	(??_startupSequence+1)& (0+255),b
  1196  000172  0E0C               	movlw	12
  1197  000174  0100               	movlb	0	; () banked
  1198  000176  6F7E               	movwf	??_startupSequence& (0+255),b
  1199  000178  0E33               	movlw	51
  1200  00017A                     u2877:
  1201  00017A  2EE8               	decfsz	wreg,f,c
  1202  00017C  D7FE               	bra	u2877
  1203  00017E  2F7E               	decfsz	??_startupSequence& (0+255),f,b
  1204  000180  D7FC               	bra	u2877
  1205  000182  2F7F               	decfsz	(??_startupSequence+1)& (0+255),f,b
  1206  000184  D7FA               	bra	u2877
  1207  000186  D000               	nop2	
  1208                           
  1209                           ;hardware.c: 390: LATH2 = 0;
  1210  000188  9490               	bcf	3984,2,c	;volatile
  1211                           
  1212                           ;hardware.c: 391: _delay((unsigned long)((75)*(32000000/4000.0)));
  1213  00018A  0E04               	movlw	4
  1214  00018C  0100               	movlb	0	; () banked
  1215  00018E  6F7F               	movwf	(??_startupSequence+1)& (0+255),b
  1216  000190  0E0C               	movlw	12
  1217  000192  0100               	movlb	0	; () banked
  1218  000194  6F7E               	movwf	??_startupSequence& (0+255),b
  1219  000196  0E33               	movlw	51
  1220  000198                     u2887:
  1221  000198  2EE8               	decfsz	wreg,f,c
  1222  00019A  D7FE               	bra	u2887
  1223  00019C  2F7E               	decfsz	??_startupSequence& (0+255),f,b
  1224  00019E  D7FC               	bra	u2887
  1225  0001A0  2F7F               	decfsz	(??_startupSequence+1)& (0+255),f,b
  1226  0001A2  D7FA               	bra	u2887
  1227  0001A4  D000               	nop2	
  1228                           
  1229                           ;hardware.c: 392: LATE4 = 0;
  1230  0001A6  988D               	bcf	3981,4,c	;volatile
  1231                           
  1232                           ;hardware.c: 393: _delay((unsigned long)((75)*(32000000/4000.0)));
  1233  0001A8  0E04               	movlw	4
  1234  0001AA  0100               	movlb	0	; () banked
  1235  0001AC  6F7F               	movwf	(??_startupSequence+1)& (0+255),b
  1236  0001AE  0E0C               	movlw	12
  1237  0001B0  0100               	movlb	0	; () banked
  1238  0001B2  6F7E               	movwf	??_startupSequence& (0+255),b
  1239  0001B4  0E33               	movlw	51
  1240  0001B6                     u2897:
  1241  0001B6  2EE8               	decfsz	wreg,f,c
  1242  0001B8  D7FE               	bra	u2897
  1243  0001BA  2F7E               	decfsz	??_startupSequence& (0+255),f,b
  1244  0001BC  D7FC               	bra	u2897
  1245  0001BE  2F7F               	decfsz	(??_startupSequence+1)& (0+255),f,b
  1246  0001C0  D7FA               	bra	u2897
  1247  0001C2  D000               	nop2	
  1248                           
  1249                           ;hardware.c: 394: LATE5 = 0;
  1250  0001C4  9A8D               	bcf	3981,5,c	;volatile
  1251                           
  1252                           ;hardware.c: 395: _delay((unsigned long)((75)*(32000000/4000.0)));
  1253  0001C6  0E04               	movlw	4
  1254  0001C8  0100               	movlb	0	; () banked
  1255  0001CA  6F7F               	movwf	(??_startupSequence+1)& (0+255),b
  1256  0001CC  0E0C               	movlw	12
  1257  0001CE  0100               	movlb	0	; () banked
  1258  0001D0  6F7E               	movwf	??_startupSequence& (0+255),b
  1259  0001D2  0E33               	movlw	51
  1260  0001D4                     u2907:
  1261  0001D4  2EE8               	decfsz	wreg,f,c
  1262  0001D6  D7FE               	bra	u2907
  1263  0001D8  2F7E               	decfsz	??_startupSequence& (0+255),f,b
  1264  0001DA  D7FC               	bra	u2907
  1265  0001DC  2F7F               	decfsz	(??_startupSequence+1)& (0+255),f,b
  1266  0001DE  D7FA               	bra	u2907
  1267  0001E0  D000               	nop2	
  1268                           
  1269                           ;hardware.c: 396: LATE7 = 0;
  1270  0001E2  9E8D               	bcf	3981,7,c	;volatile
  1271                           
  1272                           ;hardware.c: 397: _delay((unsigned long)((75)*(32000000/4000.0)));
  1273  0001E4  0E04               	movlw	4
  1274  0001E6  0100               	movlb	0	; () banked
  1275  0001E8  6F7F               	movwf	(??_startupSequence+1)& (0+255),b
  1276  0001EA  0E0C               	movlw	12
  1277  0001EC  0100               	movlb	0	; () banked
  1278  0001EE  6F7E               	movwf	??_startupSequence& (0+255),b
  1279  0001F0  0E33               	movlw	51
  1280  0001F2                     u2917:
  1281  0001F2  2EE8               	decfsz	wreg,f,c
  1282  0001F4  D7FE               	bra	u2917
  1283  0001F6  2F7E               	decfsz	??_startupSequence& (0+255),f,b
  1284  0001F8  D7FC               	bra	u2917
  1285  0001FA  2F7F               	decfsz	(??_startupSequence+1)& (0+255),f,b
  1286  0001FC  D7FA               	bra	u2917
  1287  0001FE  D000               	nop2	
  1288                           
  1289                           ;hardware.c: 398: LATD0 = 0;
  1290  000200  908C               	bcf	3980,0,c	;volatile
  1291                           
  1292                           ;hardware.c: 399: _delay((unsigned long)((75)*(32000000/4000.0)));
  1293  000202  0E04               	movlw	4
  1294  000204  0100               	movlb	0	; () banked
  1295  000206  6F7F               	movwf	(??_startupSequence+1)& (0+255),b
  1296  000208  0E0C               	movlw	12
  1297  00020A  0100               	movlb	0	; () banked
  1298  00020C  6F7E               	movwf	??_startupSequence& (0+255),b
  1299  00020E  0E33               	movlw	51
  1300  000210                     u2927:
  1301  000210  2EE8               	decfsz	wreg,f,c
  1302  000212  D7FE               	bra	u2927
  1303  000214  2F7E               	decfsz	??_startupSequence& (0+255),f,b
  1304  000216  D7FC               	bra	u2927
  1305  000218  2F7F               	decfsz	(??_startupSequence+1)& (0+255),f,b
  1306  00021A  D7FA               	bra	u2927
  1307  00021C  D000               	nop2	
  1308                           
  1309                           ;hardware.c: 402: LATH7 = 1;
  1310  00021E  8E90               	bsf	3984,7,c	;volatile
  1311                           
  1312                           ;hardware.c: 403: _delay((unsigned long)((75)*(32000000/4000.0)));
  1313  000220  0E04               	movlw	4
  1314  000222  0100               	movlb	0	; () banked
  1315  000224  6F7F               	movwf	(??_startupSequence+1)& (0+255),b
  1316  000226  0E0C               	movlw	12
  1317  000228  0100               	movlb	0	; () banked
  1318  00022A  6F7E               	movwf	??_startupSequence& (0+255),b
  1319  00022C  0E33               	movlw	51
  1320  00022E                     u2937:
  1321  00022E  2EE8               	decfsz	wreg,f,c
  1322  000230  D7FE               	bra	u2937
  1323  000232  2F7E               	decfsz	??_startupSequence& (0+255),f,b
  1324  000234  D7FC               	bra	u2937
  1325  000236  2F7F               	decfsz	(??_startupSequence+1)& (0+255),f,b
  1326  000238  D7FA               	bra	u2937
  1327  00023A  D000               	nop2	
  1328                           
  1329                           ;hardware.c: 404: LATF2 = 1;
  1330  00023C  848E               	bsf	3982,2,c	;volatile
  1331                           
  1332                           ;hardware.c: 405: _delay((unsigned long)((75)*(32000000/4000.0)));
  1333  00023E  0E04               	movlw	4
  1334  000240  0100               	movlb	0	; () banked
  1335  000242  6F7F               	movwf	(??_startupSequence+1)& (0+255),b
  1336  000244  0E0C               	movlw	12
  1337  000246  0100               	movlb	0	; () banked
  1338  000248  6F7E               	movwf	??_startupSequence& (0+255),b
  1339  00024A  0E33               	movlw	51
  1340  00024C                     u2947:
  1341  00024C  2EE8               	decfsz	wreg,f,c
  1342  00024E  D7FE               	bra	u2947
  1343  000250  2F7E               	decfsz	??_startupSequence& (0+255),f,b
  1344  000252  D7FC               	bra	u2947
  1345  000254  2F7F               	decfsz	(??_startupSequence+1)& (0+255),f,b
  1346  000256  D7FA               	bra	u2947
  1347  000258  D000               	nop2	
  1348                           
  1349                           ;hardware.c: 406: LATF5 = 1;
  1350  00025A  8A8E               	bsf	3982,5,c	;volatile
  1351                           
  1352                           ;hardware.c: 407: _delay((unsigned long)((75)*(32000000/4000.0)));
  1353  00025C  0E04               	movlw	4
  1354  00025E  0100               	movlb	0	; () banked
  1355  000260  6F7F               	movwf	(??_startupSequence+1)& (0+255),b
  1356  000262  0E0C               	movlw	12
  1357  000264  0100               	movlb	0	; () banked
  1358  000266  6F7E               	movwf	??_startupSequence& (0+255),b
  1359  000268  0E33               	movlw	51
  1360  00026A                     u2957:
  1361  00026A  2EE8               	decfsz	wreg,f,c
  1362  00026C  D7FE               	bra	u2957
  1363  00026E  2F7E               	decfsz	??_startupSequence& (0+255),f,b
  1364  000270  D7FC               	bra	u2957
  1365  000272  2F7F               	decfsz	(??_startupSequence+1)& (0+255),f,b
  1366  000274  D7FA               	bra	u2957
  1367  000276  D000               	nop2	
  1368                           
  1369                           ;hardware.c: 408: LATF6 = 1;
  1370  000278  8C8E               	bsf	3982,6,c	;volatile
  1371                           
  1372                           ;hardware.c: 409: _delay((unsigned long)((75)*(32000000/4000.0)));
  1373  00027A  0E04               	movlw	4
  1374  00027C  0100               	movlb	0	; () banked
  1375  00027E  6F7F               	movwf	(??_startupSequence+1)& (0+255),b
  1376  000280  0E0C               	movlw	12
  1377  000282  0100               	movlb	0	; () banked
  1378  000284  6F7E               	movwf	??_startupSequence& (0+255),b
  1379  000286  0E33               	movlw	51
  1380  000288                     u2967:
  1381  000288  2EE8               	decfsz	wreg,f,c
  1382  00028A  D7FE               	bra	u2967
  1383  00028C  2F7E               	decfsz	??_startupSequence& (0+255),f,b
  1384  00028E  D7FC               	bra	u2967
  1385  000290  2F7F               	decfsz	(??_startupSequence+1)& (0+255),f,b
  1386  000292  D7FA               	bra	u2967
  1387  000294  D000               	nop2	
  1388                           
  1389                           ;hardware.c: 410: LATG4 = 1;
  1390  000296  888F               	bsf	3983,4,c	;volatile
  1391                           
  1392                           ;hardware.c: 411: _delay((unsigned long)((75)*(32000000/4000.0)));
  1393  000298  0E04               	movlw	4
  1394  00029A  0100               	movlb	0	; () banked
  1395  00029C  6F7F               	movwf	(??_startupSequence+1)& (0+255),b
  1396  00029E  0E0C               	movlw	12
  1397  0002A0  0100               	movlb	0	; () banked
  1398  0002A2  6F7E               	movwf	??_startupSequence& (0+255),b
  1399  0002A4  0E33               	movlw	51
  1400  0002A6                     u2977:
  1401  0002A6  2EE8               	decfsz	wreg,f,c
  1402  0002A8  D7FE               	bra	u2977
  1403  0002AA  2F7E               	decfsz	??_startupSequence& (0+255),f,b
  1404  0002AC  D7FC               	bra	u2977
  1405  0002AE  2F7F               	decfsz	(??_startupSequence+1)& (0+255),f,b
  1406  0002B0  D7FA               	bra	u2977
  1407  0002B2  D000               	nop2	
  1408                           
  1409                           ;hardware.c: 412: LATH0 = 1;
  1410  0002B4  8090               	bsf	3984,0,c	;volatile
  1411                           
  1412                           ;hardware.c: 413: _delay((unsigned long)((75)*(32000000/4000.0)));
  1413  0002B6  0E04               	movlw	4
  1414  0002B8  0100               	movlb	0	; () banked
  1415  0002BA  6F7F               	movwf	(??_startupSequence+1)& (0+255),b
  1416  0002BC  0E0C               	movlw	12
  1417  0002BE  0100               	movlb	0	; () banked
  1418  0002C0  6F7E               	movwf	??_startupSequence& (0+255),b
  1419  0002C2  0E33               	movlw	51
  1420  0002C4                     u2987:
  1421  0002C4  2EE8               	decfsz	wreg,f,c
  1422  0002C6  D7FE               	bra	u2987
  1423  0002C8  2F7E               	decfsz	??_startupSequence& (0+255),f,b
  1424  0002CA  D7FC               	bra	u2987
  1425  0002CC  2F7F               	decfsz	(??_startupSequence+1)& (0+255),f,b
  1426  0002CE  D7FA               	bra	u2987
  1427  0002D0  D000               	nop2	
  1428                           
  1429                           ;hardware.c: 414: LATH7 = 0;
  1430  0002D2  9E90               	bcf	3984,7,c	;volatile
  1431                           
  1432                           ;hardware.c: 415: _delay((unsigned long)((75)*(32000000/4000.0)));
  1433  0002D4  0E04               	movlw	4
  1434  0002D6  0100               	movlb	0	; () banked
  1435  0002D8  6F7F               	movwf	(??_startupSequence+1)& (0+255),b
  1436  0002DA  0E0C               	movlw	12
  1437  0002DC  0100               	movlb	0	; () banked
  1438  0002DE  6F7E               	movwf	??_startupSequence& (0+255),b
  1439  0002E0  0E33               	movlw	51
  1440  0002E2                     u2997:
  1441  0002E2  2EE8               	decfsz	wreg,f,c
  1442  0002E4  D7FE               	bra	u2997
  1443  0002E6  2F7E               	decfsz	??_startupSequence& (0+255),f,b
  1444  0002E8  D7FC               	bra	u2997
  1445  0002EA  2F7F               	decfsz	(??_startupSequence+1)& (0+255),f,b
  1446  0002EC  D7FA               	bra	u2997
  1447  0002EE  D000               	nop2	
  1448                           
  1449                           ;hardware.c: 416: LATF2 = 0;
  1450  0002F0  948E               	bcf	3982,2,c	;volatile
  1451                           
  1452                           ;hardware.c: 417: _delay((unsigned long)((75)*(32000000/4000.0)));
  1453  0002F2  0E04               	movlw	4
  1454  0002F4  0100               	movlb	0	; () banked
  1455  0002F6  6F7F               	movwf	(??_startupSequence+1)& (0+255),b
  1456  0002F8  0E0C               	movlw	12
  1457  0002FA  0100               	movlb	0	; () banked
  1458  0002FC  6F7E               	movwf	??_startupSequence& (0+255),b
  1459  0002FE  0E33               	movlw	51
  1460  000300                     u3007:
  1461  000300  2EE8               	decfsz	wreg,f,c
  1462  000302  D7FE               	bra	u3007
  1463  000304  2F7E               	decfsz	??_startupSequence& (0+255),f,b
  1464  000306  D7FC               	bra	u3007
  1465  000308  2F7F               	decfsz	(??_startupSequence+1)& (0+255),f,b
  1466  00030A  D7FA               	bra	u3007
  1467  00030C  D000               	nop2	
  1468                           
  1469                           ;hardware.c: 418: LATF5 = 0;
  1470  00030E  9A8E               	bcf	3982,5,c	;volatile
  1471                           
  1472                           ;hardware.c: 419: _delay((unsigned long)((75)*(32000000/4000.0)));
  1473  000310  0E04               	movlw	4
  1474  000312  0100               	movlb	0	; () banked
  1475  000314  6F7F               	movwf	(??_startupSequence+1)& (0+255),b
  1476  000316  0E0C               	movlw	12
  1477  000318  0100               	movlb	0	; () banked
  1478  00031A  6F7E               	movwf	??_startupSequence& (0+255),b
  1479  00031C  0E33               	movlw	51
  1480  00031E                     u3017:
  1481  00031E  2EE8               	decfsz	wreg,f,c
  1482  000320  D7FE               	bra	u3017
  1483  000322  2F7E               	decfsz	??_startupSequence& (0+255),f,b
  1484  000324  D7FC               	bra	u3017
  1485  000326  2F7F               	decfsz	(??_startupSequence+1)& (0+255),f,b
  1486  000328  D7FA               	bra	u3017
  1487  00032A  D000               	nop2	
  1488                           
  1489                           ;hardware.c: 420: LATF6 = 0;
  1490  00032C  9C8E               	bcf	3982,6,c	;volatile
  1491                           
  1492                           ;hardware.c: 421: _delay((unsigned long)((75)*(32000000/4000.0)));
  1493  00032E  0E04               	movlw	4
  1494  000330  0100               	movlb	0	; () banked
  1495  000332  6F7F               	movwf	(??_startupSequence+1)& (0+255),b
  1496  000334  0E0C               	movlw	12
  1497  000336  0100               	movlb	0	; () banked
  1498  000338  6F7E               	movwf	??_startupSequence& (0+255),b
  1499  00033A  0E33               	movlw	51
  1500  00033C                     u3027:
  1501  00033C  2EE8               	decfsz	wreg,f,c
  1502  00033E  D7FE               	bra	u3027
  1503  000340  2F7E               	decfsz	??_startupSequence& (0+255),f,b
  1504  000342  D7FC               	bra	u3027
  1505  000344  2F7F               	decfsz	(??_startupSequence+1)& (0+255),f,b
  1506  000346  D7FA               	bra	u3027
  1507  000348  D000               	nop2	
  1508                           
  1509                           ;hardware.c: 422: LATG4 = 0;
  1510  00034A  988F               	bcf	3983,4,c	;volatile
  1511                           
  1512                           ;hardware.c: 423: _delay((unsigned long)((75)*(32000000/4000.0)));
  1513  00034C  0E04               	movlw	4
  1514  00034E  0100               	movlb	0	; () banked
  1515  000350  6F7F               	movwf	(??_startupSequence+1)& (0+255),b
  1516  000352  0E0C               	movlw	12
  1517  000354  0100               	movlb	0	; () banked
  1518  000356  6F7E               	movwf	??_startupSequence& (0+255),b
  1519  000358  0E33               	movlw	51
  1520  00035A                     u3037:
  1521  00035A  2EE8               	decfsz	wreg,f,c
  1522  00035C  D7FE               	bra	u3037
  1523  00035E  2F7E               	decfsz	??_startupSequence& (0+255),f,b
  1524  000360  D7FC               	bra	u3037
  1525  000362  2F7F               	decfsz	(??_startupSequence+1)& (0+255),f,b
  1526  000364  D7FA               	bra	u3037
  1527  000366  D000               	nop2	
  1528                           
  1529                           ;hardware.c: 424: LATH0 = 0;
  1530  000368  9090               	bcf	3984,0,c	;volatile
  1531                           
  1532                           ;hardware.c: 425: _delay((unsigned long)((75)*(32000000/4000.0)));
  1533  00036A  0E04               	movlw	4
  1534  00036C  0100               	movlb	0	; () banked
  1535  00036E  6F7F               	movwf	(??_startupSequence+1)& (0+255),b
  1536  000370  0E0C               	movlw	12
  1537  000372  0100               	movlb	0	; () banked
  1538  000374  6F7E               	movwf	??_startupSequence& (0+255),b
  1539  000376  0E33               	movlw	51
  1540  000378                     u3047:
  1541  000378  2EE8               	decfsz	wreg,f,c
  1542  00037A  D7FE               	bra	u3047
  1543  00037C  2F7E               	decfsz	??_startupSequence& (0+255),f,b
  1544  00037E  D7FC               	bra	u3047
  1545  000380  2F7F               	decfsz	(??_startupSequence+1)& (0+255),f,b
  1546  000382  D7FA               	bra	u3047
  1547  000384  D000               	nop2	
  1548                           
  1549                           ;hardware.c: 428: LATD2 = 1;
  1550  000386  848C               	bsf	3980,2,c	;volatile
  1551                           
  1552                           ;hardware.c: 429: LATE0 = 0;
  1553  000388  908D               	bcf	3981,0,c	;volatile
  1554                           
  1555                           ;hardware.c: 430: _delay((unsigned long)((100)*(32000000/4000.0)));
  1556  00038A  0E05               	movlw	5
  1557  00038C  0100               	movlb	0	; () banked
  1558  00038E  6F7F               	movwf	(??_startupSequence+1)& (0+255),b
  1559  000390  0E0F               	movlw	15
  1560  000392  0100               	movlb	0	; () banked
  1561  000394  6F7E               	movwf	??_startupSequence& (0+255),b
  1562  000396  0EF1               	movlw	241
  1563  000398                     u3057:
  1564  000398  2EE8               	decfsz	wreg,f,c
  1565  00039A  D7FE               	bra	u3057
  1566  00039C  2F7E               	decfsz	??_startupSequence& (0+255),f,b
  1567  00039E  D7FC               	bra	u3057
  1568  0003A0  2F7F               	decfsz	(??_startupSequence+1)& (0+255),f,b
  1569  0003A2  D7FA               	bra	u3057
  1570                           
  1571                           ;hardware.c: 431: LATD2 = 0;
  1572  0003A4  948C               	bcf	3980,2,c	;volatile
  1573                           
  1574                           ;hardware.c: 432: LATE0 = 1;
  1575  0003A6  808D               	bsf	3981,0,c	;volatile
  1576                           
  1577                           ;hardware.c: 433: _delay((unsigned long)((100)*(32000000/4000.0)));
  1578  0003A8  0E05               	movlw	5
  1579  0003AA  0100               	movlb	0	; () banked
  1580  0003AC  6F7F               	movwf	(??_startupSequence+1)& (0+255),b
  1581  0003AE  0E0F               	movlw	15
  1582  0003B0  0100               	movlb	0	; () banked
  1583  0003B2  6F7E               	movwf	??_startupSequence& (0+255),b
  1584  0003B4  0EF1               	movlw	241
  1585  0003B6                     u3067:
  1586  0003B6  2EE8               	decfsz	wreg,f,c
  1587  0003B8  D7FE               	bra	u3067
  1588  0003BA  2F7E               	decfsz	??_startupSequence& (0+255),f,b
  1589  0003BC  D7FC               	bra	u3067
  1590  0003BE  2F7F               	decfsz	(??_startupSequence+1)& (0+255),f,b
  1591  0003C0  D7FA               	bra	u3067
  1592                           
  1593                           ;hardware.c: 434: LATD2 = 1;
  1594  0003C2  848C               	bsf	3980,2,c	;volatile
  1595                           
  1596                           ;hardware.c: 435: LATE0 = 0;
  1597  0003C4  908D               	bcf	3981,0,c	;volatile
  1598                           
  1599                           ;hardware.c: 436: _delay((unsigned long)((100)*(32000000/4000.0)));
  1600  0003C6  0E05               	movlw	5
  1601  0003C8  0100               	movlb	0	; () banked
  1602  0003CA  6F7F               	movwf	(??_startupSequence+1)& (0+255),b
  1603  0003CC  0E0F               	movlw	15
  1604  0003CE  0100               	movlb	0	; () banked
  1605  0003D0  6F7E               	movwf	??_startupSequence& (0+255),b
  1606  0003D2  0EF1               	movlw	241
  1607  0003D4                     u3077:
  1608  0003D4  2EE8               	decfsz	wreg,f,c
  1609  0003D6  D7FE               	bra	u3077
  1610  0003D8  2F7E               	decfsz	??_startupSequence& (0+255),f,b
  1611  0003DA  D7FC               	bra	u3077
  1612  0003DC  2F7F               	decfsz	(??_startupSequence+1)& (0+255),f,b
  1613  0003DE  D7FA               	bra	u3077
  1614                           
  1615                           ;hardware.c: 437: LATD2 = 0;
  1616  0003E0  948C               	bcf	3980,2,c	;volatile
  1617                           
  1618                           ;hardware.c: 438: LATE0 = 1;
  1619  0003E2  808D               	bsf	3981,0,c	;volatile
  1620                           
  1621                           ;hardware.c: 439: _delay((unsigned long)((100)*(32000000/4000.0)));
  1622  0003E4  0E05               	movlw	5
  1623  0003E6  0100               	movlb	0	; () banked
  1624  0003E8  6F7F               	movwf	(??_startupSequence+1)& (0+255),b
  1625  0003EA  0E0F               	movlw	15
  1626  0003EC  0100               	movlb	0	; () banked
  1627  0003EE  6F7E               	movwf	??_startupSequence& (0+255),b
  1628  0003F0  0EF1               	movlw	241
  1629  0003F2                     u3087:
  1630  0003F2  2EE8               	decfsz	wreg,f,c
  1631  0003F4  D7FE               	bra	u3087
  1632  0003F6  2F7E               	decfsz	??_startupSequence& (0+255),f,b
  1633  0003F8  D7FC               	bra	u3087
  1634  0003FA  2F7F               	decfsz	(??_startupSequence+1)& (0+255),f,b
  1635  0003FC  D7FA               	bra	u3087
  1636                           
  1637                           ;hardware.c: 440: LATD2 = 0;
  1638  0003FE  948C               	bcf	3980,2,c	;volatile
  1639                           
  1640                           ;hardware.c: 441: LATE0 = 0;
  1641  000400  908D               	bcf	3981,0,c	;volatile
  1642                           
  1643                           ;hardware.c: 442: _delay((unsigned long)((100)*(32000000/4000.0)));
  1644  000402  0E05               	movlw	5
  1645  000404  0100               	movlb	0	; () banked
  1646  000406  6F7F               	movwf	(??_startupSequence+1)& (0+255),b
  1647  000408  0E0F               	movlw	15
  1648  00040A  0100               	movlb	0	; () banked
  1649  00040C  6F7E               	movwf	??_startupSequence& (0+255),b
  1650  00040E  0EF1               	movlw	241
  1651  000410                     u3097:
  1652  000410  2EE8               	decfsz	wreg,f,c
  1653  000412  D7FE               	bra	u3097
  1654  000414  2F7E               	decfsz	??_startupSequence& (0+255),f,b
  1655  000416  D7FC               	bra	u3097
  1656  000418  2F7F               	decfsz	(??_startupSequence+1)& (0+255),f,b
  1657  00041A  D7FA               	bra	u3097
  1658                           
  1659                           ;hardware.c: 443: LATD2 = 1;
  1660  00041C  848C               	bsf	3980,2,c	;volatile
  1661                           
  1662                           ;hardware.c: 444: LATE0 = 1;
  1663  00041E  808D               	bsf	3981,0,c	;volatile
  1664                           
  1665                           ;hardware.c: 445: _delay((unsigned long)((75)*(32000000/4000.0)));
  1666  000420  0E04               	movlw	4
  1667  000422  0100               	movlb	0	; () banked
  1668  000424  6F7F               	movwf	(??_startupSequence+1)& (0+255),b
  1669  000426  0E0C               	movlw	12
  1670  000428  0100               	movlb	0	; () banked
  1671  00042A  6F7E               	movwf	??_startupSequence& (0+255),b
  1672  00042C  0E33               	movlw	51
  1673  00042E                     u3107:
  1674  00042E  2EE8               	decfsz	wreg,f,c
  1675  000430  D7FE               	bra	u3107
  1676  000432  2F7E               	decfsz	??_startupSequence& (0+255),f,b
  1677  000434  D7FC               	bra	u3107
  1678  000436  2F7F               	decfsz	(??_startupSequence+1)& (0+255),f,b
  1679  000438  D7FA               	bra	u3107
  1680  00043A  D000               	nop2	
  1681                           
  1682                           ;hardware.c: 446: LATD2 = 0;
  1683  00043C  948C               	bcf	3980,2,c	;volatile
  1684                           
  1685                           ;hardware.c: 447: LATE0 = 0;
  1686  00043E  908D               	bcf	3981,0,c	;volatile
  1687                           
  1688                           ;hardware.c: 448: _delay((unsigned long)((75)*(32000000/4000.0)));
  1689  000440  0E04               	movlw	4
  1690  000442  0100               	movlb	0	; () banked
  1691  000444  6F7F               	movwf	(??_startupSequence+1)& (0+255),b
  1692  000446  0E0C               	movlw	12
  1693  000448  0100               	movlb	0	; () banked
  1694  00044A  6F7E               	movwf	??_startupSequence& (0+255),b
  1695  00044C  0E33               	movlw	51
  1696  00044E                     u3117:
  1697  00044E  2EE8               	decfsz	wreg,f,c
  1698  000450  D7FE               	bra	u3117
  1699  000452  2F7E               	decfsz	??_startupSequence& (0+255),f,b
  1700  000454  D7FC               	bra	u3117
  1701  000456  2F7F               	decfsz	(??_startupSequence+1)& (0+255),f,b
  1702  000458  D7FA               	bra	u3117
  1703  00045A  D000               	nop2	
  1704                           
  1705                           ;hardware.c: 449: LATD2 = 1;
  1706  00045C  848C               	bsf	3980,2,c	;volatile
  1707                           
  1708                           ;hardware.c: 450: LATE0 = 1;
  1709  00045E  808D               	bsf	3981,0,c	;volatile
  1710                           
  1711                           ;hardware.c: 451: _delay((unsigned long)((75)*(32000000/4000.0)));
  1712  000460  0E04               	movlw	4
  1713  000462  0100               	movlb	0	; () banked
  1714  000464  6F7F               	movwf	(??_startupSequence+1)& (0+255),b
  1715  000466  0E0C               	movlw	12
  1716  000468  0100               	movlb	0	; () banked
  1717  00046A  6F7E               	movwf	??_startupSequence& (0+255),b
  1718  00046C  0E33               	movlw	51
  1719  00046E                     u3127:
  1720  00046E  2EE8               	decfsz	wreg,f,c
  1721  000470  D7FE               	bra	u3127
  1722  000472  2F7E               	decfsz	??_startupSequence& (0+255),f,b
  1723  000474  D7FC               	bra	u3127
  1724  000476  2F7F               	decfsz	(??_startupSequence+1)& (0+255),f,b
  1725  000478  D7FA               	bra	u3127
  1726  00047A  D000               	nop2	
  1727                           
  1728                           ;hardware.c: 452: LATD2 = 0;
  1729  00047C  948C               	bcf	3980,2,c	;volatile
  1730                           
  1731                           ;hardware.c: 453: LATE0 = 0;
  1732  00047E  908D               	bcf	3981,0,c	;volatile
  1733  000480  0012               	return		;funcret
  1734  000482                     __end_of_startupSequence:
  1735                           	opt stack 0
  1736                           tblptru	equ	0xFF8
  1737                           tblptrh	equ	0xFF7
  1738                           tblptrl	equ	0xFF6
  1739                           tablat	equ	0xFF5
  1740                           postinc0	equ	0xFEE
  1741                           wreg	equ	0xFE8
  1742                           postdec1	equ	0xFE5
  1743                           fsr1l	equ	0xFE1
  1744                           status	equ	0xFD8
  1745                           
  1746 ;; *************** function _setupTMR4 *****************
  1747 ;; Defined at:
  1748 ;;		line 43 in file "systemConfig.c"
  1749 ;; Parameters:    Size  Location     Type
  1750 ;;		None
  1751 ;; Auto vars:     Size  Location     Type
  1752 ;;		None
  1753 ;; Return value:  Size  Location     Type
  1754 ;;                  1    wreg      void 
  1755 ;; Registers used:
  1756 ;;		wreg, status,2
  1757 ;; Tracked objects:
  1758 ;;		On entry : 0/0
  1759 ;;		On exit  : 0/0
  1760 ;;		Unchanged: 0/0
  1761 ;; Data sizes:     COMRAM   BANK0   BANK1   BANK2   BANK3   BANK4   BANK5   BANK6   BANK7   BANK8   BANK9  BANK10  BANK1
      +1  BANK12  BANK13
  1762 ;;      Params:         0       0       0       0       0       0       0       0       0       0       0       0       
      +0       0       0
  1763 ;;      Locals:         0       0       0       0       0       0       0       0       0       0       0       0       
      +0       0       0
  1764 ;;      Temps:          0       0       0       0       0       0       0       0       0       0       0       0       
      +0       0       0
  1765 ;;      Totals:         0       0       0       0       0       0       0       0       0       0       0       0       
      +0       0       0
  1766 ;;Total ram usage:        0 bytes
  1767 ;; Hardware stack levels used:    1
  1768 ;; Hardware stack levels required when called:    4
  1769 ;; This function calls:
  1770 ;;		Nothing
  1771 ;; This function is called by:
  1772 ;;		_systemInit
  1773 ;; This function uses a non-reentrant model
  1774 ;;
  1775                           
  1776                           	psect	text3
  1777  0010F4                     __ptext3:
  1778                           	opt stack 0
  1779  0010F4                     _setupTMR4:
  1780                           	opt stack 25
  1781                           
  1782                           ;systemConfig.c: 46: T4CONbits.TMR4ON = 0x0;
  1783                           
  1784                           ;incstack = 0
  1785  0010F4  010F               	movlb	15	; () banked
  1786  0010F6  9504               	bcf	4,2,b	;volatile
  1787                           
  1788                           ; BSR set to: 15
  1789                           ;systemConfig.c: 47: T4CONbits.T4CKPS = 0x3;
  1790  0010F8  0E03               	movlw	3
  1791  0010FA  010F               	movlb	15	; () banked
  1792  0010FC  1304               	iorwf	4,f,b	;volatile
  1793                           
  1794                           ;systemConfig.c: 48: T4CONbits.T4OUTPS = 0x1;
  1795  0010FE  010F               	movlb	15	; () banked
  1796  001100  5104               	movf	4,w,b	;volatile
  1797  001102  0B87               	andlw	-121
  1798  001104  0908               	iorlw	8
  1799  001106  6F04               	movwf	4,b	;volatile
  1800                           
  1801                           ; BSR set to: 15
  1802  001108  0012               	return		;funcret
  1803  00110A                     __end_of_setupTMR4:
  1804                           	opt stack 0
  1805                           tblptru	equ	0xFF8
  1806                           tblptrh	equ	0xFF7
  1807                           tblptrl	equ	0xFF6
  1808                           tablat	equ	0xFF5
  1809                           postinc0	equ	0xFEE
  1810                           wreg	equ	0xFE8
  1811                           postdec1	equ	0xFE5
  1812                           fsr1l	equ	0xFE1
  1813                           status	equ	0xFD8
  1814                           
  1815 ;; *************** function _setupTMR2 *****************
  1816 ;; Defined at:
  1817 ;;		line 34 in file "systemConfig.c"
  1818 ;; Parameters:    Size  Location     Type
  1819 ;;		None
  1820 ;; Auto vars:     Size  Location     Type
  1821 ;;		None
  1822 ;; Return value:  Size  Location     Type
  1823 ;;                  1    wreg      void 
  1824 ;; Registers used:
  1825 ;;		wreg, status,2
  1826 ;; Tracked objects:
  1827 ;;		On entry : 0/0
  1828 ;;		On exit  : 0/0
  1829 ;;		Unchanged: 0/0
  1830 ;; Data sizes:     COMRAM   BANK0   BANK1   BANK2   BANK3   BANK4   BANK5   BANK6   BANK7   BANK8   BANK9  BANK10  BANK1
      +1  BANK12  BANK13
  1831 ;;      Params:         0       0       0       0       0       0       0       0       0       0       0       0       
      +0       0       0
  1832 ;;      Locals:         0       0       0       0       0       0       0       0       0       0       0       0       
      +0       0       0
  1833 ;;      Temps:          0       0       0       0       0       0       0       0       0       0       0       0       
      +0       0       0
  1834 ;;      Totals:         0       0       0       0       0       0       0       0       0       0       0       0       
      +0       0       0
  1835 ;;Total ram usage:        0 bytes
  1836 ;; Hardware stack levels used:    1
  1837 ;; Hardware stack levels required when called:    4
  1838 ;; This function calls:
  1839 ;;		Nothing
  1840 ;; This function is called by:
  1841 ;;		_systemInit
  1842 ;; This function uses a non-reentrant model
  1843 ;;
  1844                           
  1845                           	psect	text4
  1846  00110A                     __ptext4:
  1847                           	opt stack 0
  1848  00110A                     _setupTMR2:
  1849                           	opt stack 25
  1850                           
  1851                           ;systemConfig.c: 37: T2CONbits.TMR2ON = 0x0;
  1852                           
  1853                           ; BSR set to: 15
  1854                           ;incstack = 0
  1855  00110A  94CA               	bcf	4042,2,c	;volatile
  1856                           
  1857                           ;systemConfig.c: 38: T2CONbits.T2CKPS = 0x3;
  1858  00110C  0E03               	movlw	3
  1859  00110E  12CA               	iorwf	4042,f,c	;volatile
  1860                           
  1861                           ;systemConfig.c: 39: T2CONbits.T2OUTPS = 0x1;
  1862  001110  50CA               	movf	4042,w,c	;volatile
  1863  001112  0B87               	andlw	-121
  1864  001114  0908               	iorlw	8
  1865  001116  6ECA               	movwf	4042,c	;volatile
  1866  001118  0012               	return		;funcret
  1867  00111A                     __end_of_setupTMR2:
  1868                           	opt stack 0
  1869                           tblptru	equ	0xFF8
  1870                           tblptrh	equ	0xFF7
  1871                           tblptrl	equ	0xFF6
  1872                           tablat	equ	0xFF5
  1873                           postinc0	equ	0xFEE
  1874                           wreg	equ	0xFE8
  1875                           postdec1	equ	0xFE5
  1876                           fsr1l	equ	0xFE1
  1877                           status	equ	0xFD8
  1878                           
  1879 ;; *************** function _setupTMR1 *****************
  1880 ;; Defined at:
  1881 ;;		line 25 in file "systemConfig.c"
  1882 ;; Parameters:    Size  Location     Type
  1883 ;;		None
  1884 ;; Auto vars:     Size  Location     Type
  1885 ;;		None
  1886 ;; Return value:  Size  Location     Type
  1887 ;;                  1    wreg      void 
  1888 ;; Registers used:
  1889 ;;		wreg, status,2
  1890 ;; Tracked objects:
  1891 ;;		On entry : 0/0
  1892 ;;		On exit  : 0/0
  1893 ;;		Unchanged: 0/0
  1894 ;; Data sizes:     COMRAM   BANK0   BANK1   BANK2   BANK3   BANK4   BANK5   BANK6   BANK7   BANK8   BANK9  BANK10  BANK1
      +1  BANK12  BANK13
  1895 ;;      Params:         0       0       0       0       0       0       0       0       0       0       0       0       
      +0       0       0
  1896 ;;      Locals:         0       0       0       0       0       0       0       0       0       0       0       0       
      +0       0       0
  1897 ;;      Temps:          0       0       0       0       0       0       0       0       0       0       0       0       
      +0       0       0
  1898 ;;      Totals:         0       0       0       0       0       0       0       0       0       0       0       0       
      +0       0       0
  1899 ;;Total ram usage:        0 bytes
  1900 ;; Hardware stack levels used:    1
  1901 ;; Hardware stack levels required when called:    4
  1902 ;; This function calls:
  1903 ;;		Nothing
  1904 ;; This function is called by:
  1905 ;;		_systemInit
  1906 ;; This function uses a non-reentrant model
  1907 ;;
  1908                           
  1909                           	psect	text5
  1910  00111A                     __ptext5:
  1911                           	opt stack 0
  1912  00111A                     _setupTMR1:
  1913                           	opt stack 25
  1914                           
  1915                           ;systemConfig.c: 27: T1CONbits.TMR1ON = 0x0;
  1916                           
  1917                           ;incstack = 0
  1918  00111A  90CD               	bcf	4045,0,c	;volatile
  1919                           
  1920                           ;systemConfig.c: 28: T1CONbits.TMR1CS = 0x0;
  1921  00111C  0E3F               	movlw	-193
  1922  00111E  16CD               	andwf	4045,f,c	;volatile
  1923                           
  1924                           ;systemConfig.c: 29: T1CONbits.TCKPS = 0x3;
  1925  001120  0E30               	movlw	48
  1926  001122  12CD               	iorwf	4045,f,c	;volatile
  1927                           
  1928                           ;systemConfig.c: 30: T1CONbits.RD16 = 0x1;
  1929  001124  82CD               	bsf	4045,1,c	;volatile
  1930  001126  0012               	return		;funcret
  1931  001128                     __end_of_setupTMR1:
  1932                           	opt stack 0
  1933                           tblptru	equ	0xFF8
  1934                           tblptrh	equ	0xFF7
  1935                           tblptrl	equ	0xFF6
  1936                           tablat	equ	0xFF5
  1937                           postinc0	equ	0xFEE
  1938                           wreg	equ	0xFE8
  1939                           postdec1	equ	0xFE5
  1940                           fsr1l	equ	0xFE1
  1941                           status	equ	0xFD8
  1942                           
  1943 ;; *************** function _setupTMR0 *****************
  1944 ;; Defined at:
  1945 ;;		line 16 in file "systemConfig.c"
  1946 ;; Parameters:    Size  Location     Type
  1947 ;;		None
  1948 ;; Auto vars:     Size  Location     Type
  1949 ;;		None
  1950 ;; Return value:  Size  Location     Type
  1951 ;;                  1    wreg      void 
  1952 ;; Registers used:
  1953 ;;		wreg, status,2
  1954 ;; Tracked objects:
  1955 ;;		On entry : 0/0
  1956 ;;		On exit  : 0/0
  1957 ;;		Unchanged: 0/0
  1958 ;; Data sizes:     COMRAM   BANK0   BANK1   BANK2   BANK3   BANK4   BANK5   BANK6   BANK7   BANK8   BANK9  BANK10  BANK1
      +1  BANK12  BANK13
  1959 ;;      Params:         0       0       0       0       0       0       0       0       0       0       0       0       
      +0       0       0
  1960 ;;      Locals:         0       0       0       0       0       0       0       0       0       0       0       0       
      +0       0       0
  1961 ;;      Temps:          0       0       0       0       0       0       0       0       0       0       0       0       
      +0       0       0
  1962 ;;      Totals:         0       0       0       0       0       0       0       0       0       0       0       0       
      +0       0       0
  1963 ;;Total ram usage:        0 bytes
  1964 ;; Hardware stack levels used:    1
  1965 ;; Hardware stack levels required when called:    4
  1966 ;; This function calls:
  1967 ;;		Nothing
  1968 ;; This function is called by:
  1969 ;;		_systemInit
  1970 ;; This function uses a non-reentrant model
  1971 ;;
  1972                           
  1973                           	psect	text6
  1974  0010DC                     __ptext6:
  1975                           	opt stack 0
  1976  0010DC                     _setupTMR0:
  1977                           	opt stack 25
  1978                           
  1979                           ;systemConfig.c: 18: T0CONbits.TMR0ON = 0x0;
  1980                           
  1981                           ;incstack = 0
  1982  0010DC  9ED5               	bcf	4053,7,c	;volatile
  1983                           
  1984                           ;systemConfig.c: 19: T0CONbits.T08BIT = 0x1;
  1985  0010DE  8CD5               	bsf	4053,6,c	;volatile
  1986                           
  1987                           ;systemConfig.c: 20: T0CONbits.T0CS = 0x1;
  1988  0010E0  50D5               	movf	4053,w,c	;volatile
  1989  0010E2  0BCF               	andlw	-49
  1990  0010E4  0910               	iorlw	16
  1991  0010E6  6ED5               	movwf	4053,c	;volatile
  1992                           
  1993                           ;systemConfig.c: 21: T0CONbits.PSA = 0x0;
  1994  0010E8  96D5               	bcf	4053,3,c	;volatile
  1995                           
  1996                           ;systemConfig.c: 22: T0CONbits.T0PS = 0x6;
  1997  0010EA  50D5               	movf	4053,w,c	;volatile
  1998  0010EC  0BF8               	andlw	-8
  1999  0010EE  0906               	iorlw	6
  2000  0010F0  6ED5               	movwf	4053,c	;volatile
  2001  0010F2  0012               	return		;funcret
  2002  0010F4                     __end_of_setupTMR0:
  2003                           	opt stack 0
  2004                           tblptru	equ	0xFF8
  2005                           tblptrh	equ	0xFF7
  2006                           tblptrl	equ	0xFF6
  2007                           tablat	equ	0xFF5
  2008                           postinc0	equ	0xFEE
  2009                           wreg	equ	0xFE8
  2010                           postdec1	equ	0xFE5
  2011                           fsr1l	equ	0xFE1
  2012                           status	equ	0xFD8
  2013                           
  2014 ;; *************** function _setupI2C2 *****************
  2015 ;; Defined at:
  2016 ;;		line 92 in file "systemConfig.c"
  2017 ;; Parameters:    Size  Location     Type
  2018 ;;		None
  2019 ;; Auto vars:     Size  Location     Type
  2020 ;;		None
  2021 ;; Return value:  Size  Location     Type
  2022 ;;                  1    wreg      void 
  2023 ;; Registers used:
  2024 ;;		wreg, status,2
  2025 ;; Tracked objects:
  2026 ;;		On entry : 0/0
  2027 ;;		On exit  : 0/0
  2028 ;;		Unchanged: 0/0
  2029 ;; Data sizes:     COMRAM   BANK0   BANK1   BANK2   BANK3   BANK4   BANK5   BANK6   BANK7   BANK8   BANK9  BANK10  BANK1
      +1  BANK12  BANK13
  2030 ;;      Params:         0       0       0       0       0       0       0       0       0       0       0       0       
      +0       0       0
  2031 ;;      Locals:         0       0       0       0       0       0       0       0       0       0       0       0       
      +0       0       0
  2032 ;;      Temps:          0       0       0       0       0       0       0       0       0       0       0       0       
      +0       0       0
  2033 ;;      Totals:         0       0       0       0       0       0       0       0       0       0       0       0       
      +0       0       0
  2034 ;;Total ram usage:        0 bytes
  2035 ;; Hardware stack levels used:    1
  2036 ;; Hardware stack levels required when called:    4
  2037 ;; This function calls:
  2038 ;;		Nothing
  2039 ;; This function is called by:
  2040 ;;		_systemInit
  2041 ;; This function uses a non-reentrant model
  2042 ;;
  2043                           
  2044                           	psect	text7
  2045  000F32                     __ptext7:
  2046                           	opt stack 0
  2047  000F32                     _setupI2C2:
  2048                           	opt stack 25
  2049                           
  2050                           ;systemConfig.c: 94: SSP2CON1bits.SSPEN = 0x0;
  2051                           
  2052                           ;incstack = 0
  2053  000F32  010F               	movlb	15	; () banked
  2054  000F34  9B19               	bcf	25,5,b	;volatile
  2055                           
  2056                           ;systemConfig.c: 96: TRISDbits.TRISD5 = 0x1;
  2057  000F36  8A95               	bsf	3989,5,c	;volatile
  2058                           
  2059                           ;systemConfig.c: 97: TRISDbits.TRISD6 = 0x1;
  2060  000F38  8C95               	bsf	3989,6,c	;volatile
  2061                           
  2062                           ; BSR set to: 15
  2063                           ;systemConfig.c: 100: SSP2CON1bits.SSPM = 0x9;
  2064  000F3A  010F               	movlb	15	; () banked
  2065  000F3C  5119               	movf	25,w,b	;volatile
  2066  000F3E  0BF0               	andlw	-16
  2067  000F40  0909               	iorlw	9
  2068  000F42  6F19               	movwf	25,b	;volatile
  2069                           
  2070                           ;systemConfig.c: 103: SSP2ADD = 0b10100000;
  2071  000F44  0EA0               	movlw	160
  2072  000F46  010F               	movlb	15	; () banked
  2073  000F48  6F02               	movwf	2,b	;volatile
  2074                           
  2075                           ;systemConfig.c: 104: SSP2MSK = 0b11110010;
  2076  000F4A  0EF2               	movlw	242
  2077  000F4C  010F               	movlb	15	; () banked
  2078  000F4E  6F17               	movwf	23,b	;volatile
  2079                           
  2080                           ;systemConfig.c: 105: SSP2CON1bits.SSPM = 0x6;
  2081  000F50  010F               	movlb	15	; () banked
  2082  000F52  5119               	movf	25,w,b	;volatile
  2083  000F54  0BF0               	andlw	-16
  2084  000F56  0906               	iorlw	6
  2085  000F58  6F19               	movwf	25,b	;volatile
  2086                           
  2087                           ; BSR set to: 15
  2088                           ;systemConfig.c: 107: SSP2CON1bits.CKP = 0x1;
  2089  000F5A  010F               	movlb	15	; () banked
  2090  000F5C  8919               	bsf	25,4,b	;volatile
  2091                           
  2092                           ; BSR set to: 15
  2093                           ;systemConfig.c: 108: SSP2CON2bits.SEN = 0x1;
  2094  000F5E  010F               	movlb	15	; () banked
  2095  000F60  8118               	bsf	24,0,b	;volatile
  2096                           
  2097                           ; BSR set to: 15
  2098                           ;systemConfig.c: 109: SSP2CON2bits.GCEN = 0x0;
  2099  000F62  010F               	movlb	15	; () banked
  2100  000F64  9F18               	bcf	24,7,b	;volatile
  2101                           
  2102                           ; BSR set to: 15
  2103                           ;systemConfig.c: 110: SSP2CON3bits.SCIE = 0x0;
  2104  000F66  010F               	movlb	15	; () banked
  2105  000F68  9B39               	bcf	57,5,b	;volatile
  2106                           
  2107                           ;systemConfig.c: 112: SSP2BUF = 0x00;
  2108  000F6A  0E00               	movlw	0
  2109  000F6C  010F               	movlb	15	; () banked
  2110  000F6E  6F03               	movwf	3,b	;volatile
  2111                           
  2112                           ; BSR set to: 15
  2113                           ;systemConfig.c: 113: SSP2CON1bits.SSPEN = 0x1;
  2114  000F70  010F               	movlb	15	; () banked
  2115  000F72  8B19               	bsf	25,5,b	;volatile
  2116                           
  2117                           ; BSR set to: 15
  2118  000F74  0012               	return		;funcret
  2119  000F76                     __end_of_setupI2C2:
  2120                           	opt stack 0
  2121                           tblptru	equ	0xFF8
  2122                           tblptrh	equ	0xFF7
  2123                           tblptrl	equ	0xFF6
  2124                           tablat	equ	0xFF5
  2125                           postinc0	equ	0xFEE
  2126                           wreg	equ	0xFE8
  2127                           postdec1	equ	0xFE5
  2128                           fsr1l	equ	0xFE1
  2129                           status	equ	0xFD8
  2130                           
  2131 ;; *************** function _setupI2C1 *****************
  2132 ;; Defined at:
  2133 ;;		line 76 in file "systemConfig.c"
  2134 ;; Parameters:    Size  Location     Type
  2135 ;;		None
  2136 ;; Auto vars:     Size  Location     Type
  2137 ;;		None
  2138 ;; Return value:  Size  Location     Type
  2139 ;;                  1    wreg      void 
  2140 ;; Registers used:
  2141 ;;		wreg, status,2
  2142 ;; Tracked objects:
  2143 ;;		On entry : 0/0
  2144 ;;		On exit  : 0/0
  2145 ;;		Unchanged: 0/0
  2146 ;; Data sizes:     COMRAM   BANK0   BANK1   BANK2   BANK3   BANK4   BANK5   BANK6   BANK7   BANK8   BANK9  BANK10  BANK1
      +1  BANK12  BANK13
  2147 ;;      Params:         0       0       0       0       0       0       0       0       0       0       0       0       
      +0       0       0
  2148 ;;      Locals:         0       0       0       0       0       0       0       0       0       0       0       0       
      +0       0       0
  2149 ;;      Temps:          0       0       0       0       0       0       0       0       0       0       0       0       
      +0       0       0
  2150 ;;      Totals:         0       0       0       0       0       0       0       0       0       0       0       0       
      +0       0       0
  2151 ;;Total ram usage:        0 bytes
  2152 ;; Hardware stack levels used:    1
  2153 ;; Hardware stack levels required when called:    4
  2154 ;; This function calls:
  2155 ;;		Nothing
  2156 ;; This function is called by:
  2157 ;;		_systemInit
  2158 ;; This function uses a non-reentrant model
  2159 ;;
  2160                           
  2161                           	psect	text8
  2162  0010C2                     __ptext8:
  2163                           	opt stack 0
  2164  0010C2                     _setupI2C1:
  2165                           	opt stack 25
  2166                           
  2167                           ;systemConfig.c: 78: SSP1CON1bits.SSPEN = 0x0;
  2168                           
  2169                           ; BSR set to: 15
  2170                           ;incstack = 0
  2171  0010C2  9AC6               	bcf	4038,5,c	;volatile
  2172                           
  2173                           ;systemConfig.c: 80: TRISCbits.TRISC3 = 0x1;
  2174  0010C4  8694               	bsf	3988,3,c	;volatile
  2175                           
  2176                           ;systemConfig.c: 81: TRISCbits.TRISC4 = 0x1;
  2177  0010C6  8894               	bsf	3988,4,c	;volatile
  2178                           
  2179                           ;systemConfig.c: 84: SSP1ADD = 0x4F;
  2180  0010C8  0E4F               	movlw	79
  2181  0010CA  6EC8               	movwf	4040,c	;volatile
  2182                           
  2183                           ;systemConfig.c: 85: SSP1CON1bits.SSPM = 0x8;
  2184  0010CC  50C6               	movf	4038,w,c	;volatile
  2185  0010CE  0BF0               	andlw	-16
  2186  0010D0  0908               	iorlw	8
  2187  0010D2  6EC6               	movwf	4038,c	;volatile
  2188                           
  2189                           ;systemConfig.c: 87: SSP1BUF = 0x00;
  2190  0010D4  0E00               	movlw	0
  2191  0010D6  6EC9               	movwf	4041,c	;volatile
  2192                           
  2193                           ;systemConfig.c: 89: SSP1CON1bits.SSPEN = 0x1;
  2194  0010D8  8AC6               	bsf	4038,5,c	;volatile
  2195  0010DA  0012               	return		;funcret
  2196  0010DC                     __end_of_setupI2C1:
  2197                           	opt stack 0
  2198                           tblptru	equ	0xFF8
  2199                           tblptrh	equ	0xFF7
  2200                           tblptrl	equ	0xFF6
  2201                           tablat	equ	0xFF5
  2202                           postinc0	equ	0xFEE
  2203                           wreg	equ	0xFE8
  2204                           postdec1	equ	0xFE5
  2205                           fsr1l	equ	0xFE1
  2206                           status	equ	0xFD8
  2207                           
  2208 ;; *************** function _setupADC *****************
  2209 ;; Defined at:
  2210 ;;		line 116 in file "systemConfig.c"
  2211 ;; Parameters:    Size  Location     Type
  2212 ;;		None
  2213 ;; Auto vars:     Size  Location     Type
  2214 ;;		None
  2215 ;; Return value:  Size  Location     Type
  2216 ;;                  1    wreg      void 
  2217 ;; Registers used:
  2218 ;;		wreg, status,2
  2219 ;; Tracked objects:
  2220 ;;		On entry : 0/0
  2221 ;;		On exit  : 0/0
  2222 ;;		Unchanged: 0/0
  2223 ;; Data sizes:     COMRAM   BANK0   BANK1   BANK2   BANK3   BANK4   BANK5   BANK6   BANK7   BANK8   BANK9  BANK10  BANK1
      +1  BANK12  BANK13
  2224 ;;      Params:         0       0       0       0       0       0       0       0       0       0       0       0       
      +0       0       0
  2225 ;;      Locals:         0       0       0       0       0       0       0       0       0       0       0       0       
      +0       0       0
  2226 ;;      Temps:          0       0       0       0       0       0       0       0       0       0       0       0       
      +0       0       0
  2227 ;;      Totals:         0       0       0       0       0       0       0       0       0       0       0       0       
      +0       0       0
  2228 ;;Total ram usage:        0 bytes
  2229 ;; Hardware stack levels used:    1
  2230 ;; Hardware stack levels required when called:    4
  2231 ;; This function calls:
  2232 ;;		Nothing
  2233 ;; This function is called by:
  2234 ;;		_systemInit
  2235 ;; This function uses a non-reentrant model
  2236 ;;
  2237                           
  2238                           	psect	text9
  2239  000C24                     __ptext9:
  2240                           	opt stack 0
  2241  000C24                     _setupADC:
  2242                           	opt stack 25
  2243                           
  2244                           ;systemConfig.c: 118: ADCON1Hbits.ADON = 0;
  2245                           
  2246                           ;incstack = 0
  2247  000C24  9EC1               	bcf	4033,7,c	;volatile
  2248                           
  2249                           ;systemConfig.c: 119: ADCON1Hbits.MODE12 = 1;
  2250  000C26  84C1               	bsf	4033,2,c	;volatile
  2251                           
  2252                           ;systemConfig.c: 120: ADCON1Hbits.FORM = 0;
  2253  000C28  0EFC               	movlw	-4
  2254  000C2A  16C1               	andwf	4033,f,c	;volatile
  2255                           
  2256                           ;systemConfig.c: 121: ADCON1Lbits.SSRC = 0;
  2257  000C2C  98C0               	bcf	4032,4,c	;volatile
  2258  000C2E  9AC0               	bcf	4032,5,c	;volatile
  2259  000C30  9CC0               	bcf	4032,6,c	;volatile
  2260  000C32  9EC0               	bcf	4032,7,c	;volatile
  2261                           
  2262                           ;systemConfig.c: 122: ADCON1Lbits.ASAM = 0;
  2263  000C34  94C0               	bcf	4032,2,c	;volatile
  2264                           
  2265                           ;systemConfig.c: 124: ADCON2Hbits.PVCFG = 0;
  2266  000C36  0E3F               	movlw	-193
  2267  000C38  010E               	movlb	14	; () banked
  2268  000C3A  178D               	andwf	141,f,b	;volatile
  2269                           
  2270                           ; BSR set to: 14
  2271                           ;systemConfig.c: 125: ADCON2Hbits.NVCFG0 = 0;
  2272  000C3C  010E               	movlb	14	; () banked
  2273  000C3E  9B8D               	bcf	141,5,b	;volatile
  2274                           
  2275                           ; BSR set to: 14
  2276                           ;systemConfig.c: 126: ADCON2Hbits.BUFREGEN = 1;
  2277  000C40  010E               	movlb	14	; () banked
  2278  000C42  878D               	bsf	141,3,b	;volatile
  2279                           
  2280                           ; BSR set to: 14
  2281                           ;systemConfig.c: 128: ADCON3Hbits.ADRC = 0;
  2282  000C44  010E               	movlb	14	; () banked
  2283  000C46  9F8B               	bcf	139,7,b	;volatile
  2284                           
  2285                           ; BSR set to: 14
  2286                           ;systemConfig.c: 129: ADCON3Hbits.PUMPEN = 0;
  2287  000C48  010E               	movlb	14	; () banked
  2288  000C4A  9B8B               	bcf	139,5,b	;volatile
  2289                           
  2290                           ;systemConfig.c: 130: ADCON3Lbits.ADCS = 0x20;
  2291  000C4C  0E20               	movlw	32
  2292  000C4E  010E               	movlb	14	; () banked
  2293  000C50  6F8A               	movwf	138,b	;volatile
  2294                           
  2295                           ; BSR set to: 14
  2296                           ;systemConfig.c: 132: ADCON5Hbits.ASENA = 0;
  2297  000C52  010E               	movlb	14	; () banked
  2298  000C54  9F89               	bcf	137,7,b	;volatile
  2299                           
  2300                           ; BSR set to: 14
  2301                           ;systemConfig.c: 133: ADCHS0Lbits.CH0SA = 0;
  2302  000C56  010E               	movlb	14	; () banked
  2303  000C58  9186               	bcf	134,0,b	;volatile
  2304  000C5A  9386               	bcf	134,1,b	;volatile
  2305  000C5C  9586               	bcf	134,2,b	;volatile
  2306  000C5E  9786               	bcf	134,3,b	;volatile
  2307  000C60  9986               	bcf	134,4,b	;volatile
  2308                           
  2309                           ; BSR set to: 14
  2310                           ;systemConfig.c: 134: ADCHS0Lbits.CH0NA = 0;
  2311  000C62  010E               	movlb	14	; () banked
  2312  000C64  9B86               	bcf	134,5,b	;volatile
  2313  000C66  9D86               	bcf	134,6,b	;volatile
  2314  000C68  9F86               	bcf	134,7,b	;volatile
  2315                           
  2316                           ; BSR set to: 14
  2317                           ;systemConfig.c: 137: CM1CONbits.CON = 0;
  2318  000C6A  010F               	movlb	15	; () banked
  2319  000C6C  9F53               	bcf	83,7,b	;volatile
  2320                           
  2321                           ; BSR set to: 15
  2322                           ;systemConfig.c: 138: CM2CONbits.CON = 0;
  2323  000C6E  010F               	movlb	15	; () banked
  2324  000C70  9F38               	bcf	56,7,b	;volatile
  2325                           
  2326                           ; BSR set to: 15
  2327                           ;systemConfig.c: 139: CM3CONbits.CON = 0;
  2328  000C72  010F               	movlb	15	; () banked
  2329  000C74  9F37               	bcf	55,7,b	;volatile
  2330                           
  2331                           ; BSR set to: 15
  2332                           ;systemConfig.c: 141: ANCON1bits.ANSEL0 = 1;
  2333  000C76  010E               	movlb	14	; () banked
  2334  000C78  8147               	bsf	71,0,b	;volatile
  2335                           
  2336                           ; BSR set to: 14
  2337                           ;systemConfig.c: 142: ANCON1bits.ANSEL1 = 1;
  2338  000C7A  010E               	movlb	14	; () banked
  2339  000C7C  8347               	bsf	71,1,b	;volatile
  2340                           
  2341                           ; BSR set to: 14
  2342                           ;systemConfig.c: 143: ANCON1bits.ANSEL2 = 1;
  2343  000C7E  010E               	movlb	14	; () banked
  2344  000C80  8547               	bsf	71,2,b	;volatile
  2345                           
  2346                           ; BSR set to: 14
  2347                           ;systemConfig.c: 144: ANCON1bits.ANSEL3 = 1;
  2348  000C82  010E               	movlb	14	; () banked
  2349  000C84  8747               	bsf	71,3,b	;volatile
  2350                           
  2351                           ; BSR set to: 14
  2352                           ;systemConfig.c: 145: ANCON1bits.ANSEL4 = 1;
  2353  000C86  010E               	movlb	14	; () banked
  2354  000C88  8947               	bsf	71,4,b	;volatile
  2355                           
  2356                           ; BSR set to: 14
  2357                           ;systemConfig.c: 146: ANCON1bits.ANSEL5 = 1;
  2358  000C8A  010E               	movlb	14	; () banked
  2359  000C8C  8B47               	bsf	71,5,b	;volatile
  2360                           
  2361                           ; BSR set to: 14
  2362                           ;systemConfig.c: 147: ANCON2bits.ANSEL11 = 1;
  2363  000C8E  010E               	movlb	14	; () banked
  2364  000C90  8746               	bsf	70,3,b	;volatile
  2365                           
  2366                           ; BSR set to: 14
  2367                           ;systemConfig.c: 148: ANCON1bits.ANSEL7 = 1;
  2368  000C92  010E               	movlb	14	; () banked
  2369  000C94  8F47               	bsf	71,7,b	;volatile
  2370                           
  2371                           ; BSR set to: 14
  2372                           ;systemConfig.c: 149: ANCON2bits.ANSEL8 = 1;
  2373  000C96  010E               	movlb	14	; () banked
  2374  000C98  8146               	bsf	70,0,b	;volatile
  2375                           
  2376                           ; BSR set to: 14
  2377                           ;systemConfig.c: 150: ANCON3bits.ANSEL22 = 1;
  2378  000C9A  010E               	movlb	14	; () banked
  2379  000C9C  8D45               	bsf	69,6,b	;volatile
  2380                           
  2381                           ; BSR set to: 14
  2382                           ;systemConfig.c: 152: TRISAbits.TRISA0 = 1;
  2383  000C9E  8092               	bsf	3986,0,c	;volatile
  2384                           
  2385                           ; BSR set to: 14
  2386                           ;systemConfig.c: 153: TRISAbits.TRISA1 = 1;
  2387  000CA0  8292               	bsf	3986,1,c	;volatile
  2388                           
  2389                           ; BSR set to: 14
  2390                           ;systemConfig.c: 154: TRISAbits.TRISA2 = 1;
  2391  000CA2  8492               	bsf	3986,2,c	;volatile
  2392                           
  2393                           ; BSR set to: 14
  2394                           ;systemConfig.c: 155: TRISAbits.TRISA3 = 1;
  2395  000CA4  8692               	bsf	3986,3,c	;volatile
  2396                           
  2397                           ; BSR set to: 14
  2398                           ;systemConfig.c: 156: TRISAbits.TRISA5 = 1;
  2399  000CA6  8A92               	bsf	3986,5,c	;volatile
  2400                           
  2401                           ; BSR set to: 14
  2402                           ;systemConfig.c: 157: TRISFbits.TRISF7 = 1;
  2403  000CA8  8E97               	bsf	3991,7,c	;volatile
  2404                           
  2405                           ; BSR set to: 14
  2406                           ;systemConfig.c: 158: TRISAbits.TRISA4 = 1;
  2407  000CAA  8892               	bsf	3986,4,c	;volatile
  2408                           
  2409                           ; BSR set to: 14
  2410                           ;systemConfig.c: 159: TRISHbits.TRISH6 = 1;
  2411  000CAC  8C99               	bsf	3993,6,c	;volatile
  2412                           
  2413                           ; BSR set to: 14
  2414                           ;systemConfig.c: 160: TRISGbits.TRISG0 = 1;
  2415  000CAE  8098               	bsf	3992,0,c	;volatile
  2416                           
  2417                           ; BSR set to: 14
  2418                           ;systemConfig.c: 161: TRISCbits.TRISC2 = 1;
  2419  000CB0  8494               	bsf	3988,2,c	;volatile
  2420                           
  2421                           ; BSR set to: 14
  2422  000CB2  0012               	return		;funcret
  2423  000CB4                     __end_of_setupADC:
  2424                           	opt stack 0
  2425                           tblptru	equ	0xFF8
  2426                           tblptrh	equ	0xFF7
  2427                           tblptrl	equ	0xFF6
  2428                           tablat	equ	0xFF5
  2429                           postinc0	equ	0xFEE
  2430                           wreg	equ	0xFE8
  2431                           postdec1	equ	0xFE5
  2432                           fsr1l	equ	0xFE1
  2433                           status	equ	0xFD8
  2434                           
  2435 ;; *************** function _mapPeripheralPins *****************
  2436 ;; Defined at:
  2437 ;;		line 164 in file "systemConfig.c"
  2438 ;; Parameters:    Size  Location     Type
  2439 ;;		None
  2440 ;; Auto vars:     Size  Location     Type
  2441 ;;		None
  2442 ;; Return value:  Size  Location     Type
  2443 ;;                  1    wreg      void 
  2444 ;; Registers used:
  2445 ;;		wreg, status,2, status,0
  2446 ;; Tracked objects:
  2447 ;;		On entry : 0/0
  2448 ;;		On exit  : 0/0
  2449 ;;		Unchanged: 0/0
  2450 ;; Data sizes:     COMRAM   BANK0   BANK1   BANK2   BANK3   BANK4   BANK5   BANK6   BANK7   BANK8   BANK9  BANK10  BANK1
      +1  BANK12  BANK13
  2451 ;;      Params:         0       0       0       0       0       0       0       0       0       0       0       0       
      +0       0       0
  2452 ;;      Locals:         0       0       0       0       0       0       0       0       0       0       0       0       
      +0       0       0
  2453 ;;      Temps:          0       0       0       0       0       0       0       0       0       0       0       0       
      +0       0       0
  2454 ;;      Totals:         0       0       0       0       0       0       0       0       0       0       0       0       
      +0       0       0
  2455 ;;Total ram usage:        0 bytes
  2456 ;; Hardware stack levels used:    1
  2457 ;; Hardware stack levels required when called:    4
  2458 ;; This function calls:
  2459 ;;		Nothing
  2460 ;; This function is called by:
  2461 ;;		_systemInit
  2462 ;; This function uses a non-reentrant model
  2463 ;;
  2464                           
  2465                           	psect	text10
  2466  000E8E                     __ptext10:
  2467                           	opt stack 0
  2468  000E8E                     _mapPeripheralPins:
  2469                           	opt stack 25
  2470                           
  2471                           ;systemConfig.c: 167: OSCCON = (OSCCON & 0x5F);
  2472                           
  2473                           ; BSR set to: 14
  2474                           ;incstack = 0
  2475  000E8E  50D3               	movf	4051,w,c	;volatile
  2476  000E90  0B5F               	andlw	95
  2477  000E92  6ED3               	movwf	4051,c	;volatile
  2478                           
  2479                           ;systemConfig.c: 168: RPINR20_21bits.IOC3R = 0x9;
  2480  000E94  010E               	movlb	14	; () banked
  2481  000E96  5134               	movf	52,w,b	;volatile
  2482  000E98  0B0F               	andlw	-241
  2483  000E9A  0990               	iorlw	144
  2484  000E9C  6F34               	movwf	52,b	;volatile
  2485                           
  2486                           ; BSR set to: 14
  2487                           ;systemConfig.c: 169: RPINR20_21bits.IOC2R = 0xA;
  2488  000E9E  010E               	movlb	14	; () banked
  2489  000EA0  5134               	movf	52,w,b	;volatile
  2490  000EA2  0BF0               	andlw	-16
  2491  000EA4  090A               	iorlw	10
  2492  000EA6  6F34               	movwf	52,b	;volatile
  2493                           
  2494                           ; BSR set to: 14
  2495                           ;systemConfig.c: 170: RPINR24_25bits.IOC6R = 0x8;
  2496  000EA8  010E               	movlb	14	; () banked
  2497  000EAA  5136               	movf	54,w,b	;volatile
  2498  000EAC  0BF0               	andlw	-16
  2499  000EAE  0908               	iorlw	8
  2500  000EB0  6F36               	movwf	54,b	;volatile
  2501                           
  2502                           ; BSR set to: 14
  2503                           ;systemConfig.c: 171: RPINR18_19bits.IOC1R = 0x5;
  2504  000EB2  010E               	movlb	14	; () banked
  2505  000EB4  5133               	movf	51,w,b	;volatile
  2506  000EB6  0B0F               	andlw	-241
  2507  000EB8  0950               	iorlw	80
  2508  000EBA  6F33               	movwf	51,b	;volatile
  2509                           
  2510                           ; BSR set to: 14
  2511                           ;systemConfig.c: 172: RPINR24_25bits.IOC7R = 0xA;
  2512  000EBC  010E               	movlb	14	; () banked
  2513  000EBE  5136               	movf	54,w,b	;volatile
  2514  000EC0  0B0F               	andlw	-241
  2515  000EC2  09A0               	iorlw	160
  2516  000EC4  6F36               	movwf	54,b	;volatile
  2517                           
  2518                           ; BSR set to: 14
  2519                           ;systemConfig.c: 173: RPINR22_23bits.IOC4R = 0x6;
  2520  000EC6  010E               	movlb	14	; () banked
  2521  000EC8  5135               	movf	53,w,b	;volatile
  2522  000ECA  0BF0               	andlw	-16
  2523  000ECC  0906               	iorlw	6
  2524  000ECE  6F35               	movwf	53,b	;volatile
  2525                           
  2526                           ; BSR set to: 14
  2527                           ;systemConfig.c: 174: RPINR22_23bits.IOC5R = 0x8;
  2528  000ED0  010E               	movlb	14	; () banked
  2529  000ED2  5135               	movf	53,w,b	;volatile
  2530  000ED4  0B0F               	andlw	-241
  2531  000ED6  0980               	iorlw	128
  2532  000ED8  6F35               	movwf	53,b	;volatile
  2533                           
  2534                           ; BSR set to: 14
  2535                           ;systemConfig.c: 175: OSCCON = (OSCCON | 0x40);
  2536  000EDA  50D3               	movf	4051,w,c	;volatile
  2537  000EDC  0940               	iorlw	64
  2538  000EDE  6ED3               	movwf	4051,c	;volatile
  2539                           
  2540                           ; BSR set to: 14
  2541  000EE0  0012               	return		;funcret
  2542  000EE2                     __end_of_mapPeripheralPins:
  2543                           	opt stack 0
  2544                           tblptru	equ	0xFF8
  2545                           tblptrh	equ	0xFF7
  2546                           tblptrl	equ	0xFF6
  2547                           tablat	equ	0xFF5
  2548                           postinc0	equ	0xFEE
  2549                           wreg	equ	0xFE8
  2550                           postdec1	equ	0xFE5
  2551                           fsr1l	equ	0xFE1
  2552                           status	equ	0xFD8
  2553                           
  2554 ;; *************** function _killLEDs *****************
  2555 ;; Defined at:
  2556 ;;		line 552 in file "hardware.c"
  2557 ;; Parameters:    Size  Location     Type
  2558 ;;		None
  2559 ;; Auto vars:     Size  Location     Type
  2560 ;;		None
  2561 ;; Return value:  Size  Location     Type
  2562 ;;                  1    wreg      void 
  2563 ;; Registers used:
  2564 ;;		None
  2565 ;; Tracked objects:
  2566 ;;		On entry : 0/0
  2567 ;;		On exit  : 0/0
  2568 ;;		Unchanged: 0/0
  2569 ;; Data sizes:     COMRAM   BANK0   BANK1   BANK2   BANK3   BANK4   BANK5   BANK6   BANK7   BANK8   BANK9  BANK10  BANK1
      +1  BANK12  BANK13
  2570 ;;      Params:         0       0       0       0       0       0       0       0       0       0       0       0       
      +0       0       0
  2571 ;;      Locals:         0       0       0       0       0       0       0       0       0       0       0       0       
      +0       0       0
  2572 ;;      Temps:          0       0       0       0       0       0       0       0       0       0       0       0       
      +0       0       0
  2573 ;;      Totals:         0       0       0       0       0       0       0       0       0       0       0       0       
      +0       0       0
  2574 ;;Total ram usage:        0 bytes
  2575 ;; Hardware stack levels used:    1
  2576 ;; Hardware stack levels required when called:    4
  2577 ;; This function calls:
  2578 ;;		Nothing
  2579 ;; This function is called by:
  2580 ;;		_systemInit
  2581 ;; This function uses a non-reentrant model
  2582 ;;
  2583                           
  2584                           	psect	text11
  2585  0010A2                     __ptext11:
  2586                           	opt stack 0
  2587  0010A2                     _killLEDs:
  2588                           	opt stack 25
  2589                           
  2590                           ;hardware.c: 554: LATE0 = 0;
  2591                           
  2592                           ; BSR set to: 14
  2593                           ;incstack = 0
  2594  0010A2  908D               	bcf	3981,0,c	;volatile
  2595                           
  2596                           ;hardware.c: 555: LATD2 = 0;
  2597  0010A4  948C               	bcf	3980,2,c	;volatile
  2598                           
  2599                           ;hardware.c: 556: LATH7 = 0;
  2600  0010A6  9E90               	bcf	3984,7,c	;volatile
  2601                           
  2602                           ;hardware.c: 557: LATF2 = 0;
  2603  0010A8  948E               	bcf	3982,2,c	;volatile
  2604                           
  2605                           ;hardware.c: 558: LATF5 = 0;
  2606  0010AA  9A8E               	bcf	3982,5,c	;volatile
  2607                           
  2608                           ;hardware.c: 559: LATF6 = 0;
  2609  0010AC  9C8E               	bcf	3982,6,c	;volatile
  2610                           
  2611                           ;hardware.c: 560: LATG4 = 0;
  2612  0010AE  988F               	bcf	3983,4,c	;volatile
  2613                           
  2614                           ;hardware.c: 561: LATH0 = 0;
  2615  0010B0  9090               	bcf	3984,0,c	;volatile
  2616                           
  2617                           ;hardware.c: 562: LATE1 = 0;
  2618  0010B2  928D               	bcf	3981,1,c	;volatile
  2619                           
  2620                           ;hardware.c: 563: LATH1 = 0;
  2621  0010B4  9290               	bcf	3984,1,c	;volatile
  2622                           
  2623                           ;hardware.c: 564: LATD0 = 0;
  2624  0010B6  908C               	bcf	3980,0,c	;volatile
  2625                           
  2626                           ;hardware.c: 565: LATE7 = 0;
  2627  0010B8  9E8D               	bcf	3981,7,c	;volatile
  2628                           
  2629                           ;hardware.c: 566: LATE5 = 0;
  2630  0010BA  9A8D               	bcf	3981,5,c	;volatile
  2631                           
  2632                           ;hardware.c: 567: LATE4 = 0;
  2633  0010BC  988D               	bcf	3981,4,c	;volatile
  2634                           
  2635                           ;hardware.c: 568: LATH2 = 0;
  2636  0010BE  9490               	bcf	3984,2,c	;volatile
  2637  0010C0  0012               	return		;funcret
  2638  0010C2                     __end_of_killLEDs:
  2639                           	opt stack 0
  2640                           tblptru	equ	0xFF8
  2641                           tblptrh	equ	0xFF7
  2642                           tblptrl	equ	0xFF6
  2643                           tablat	equ	0xFF5
  2644                           postinc0	equ	0xFEE
  2645                           wreg	equ	0xFE8
  2646                           postdec1	equ	0xFE5
  2647                           fsr1l	equ	0xFE1
  2648                           status	equ	0xFD8
  2649                           
  2650 ;; *************** function _interruptInit *****************
  2651 ;; Defined at:
  2652 ;;		line 288 in file "systemConfig.c"
  2653 ;; Parameters:    Size  Location     Type
  2654 ;;		None
  2655 ;; Auto vars:     Size  Location     Type
  2656 ;;		None
  2657 ;; Return value:  Size  Location     Type
  2658 ;;                  1    wreg      void 
  2659 ;; Registers used:
  2660 ;;		None
  2661 ;; Tracked objects:
  2662 ;;		On entry : 0/0
  2663 ;;		On exit  : 0/0
  2664 ;;		Unchanged: 0/0
  2665 ;; Data sizes:     COMRAM   BANK0   BANK1   BANK2   BANK3   BANK4   BANK5   BANK6   BANK7   BANK8   BANK9  BANK10  BANK1
      +1  BANK12  BANK13
  2666 ;;      Params:         0       0       0       0       0       0       0       0       0       0       0       0       
      +0       0       0
  2667 ;;      Locals:         0       0       0       0       0       0       0       0       0       0       0       0       
      +0       0       0
  2668 ;;      Temps:          0       0       0       0       0       0       0       0       0       0       0       0       
      +0       0       0
  2669 ;;      Totals:         0       0       0       0       0       0       0       0       0       0       0       0       
      +0       0       0
  2670 ;;Total ram usage:        0 bytes
  2671 ;; Hardware stack levels used:    1
  2672 ;; Hardware stack levels required when called:    4
  2673 ;; This function calls:
  2674 ;;		Nothing
  2675 ;; This function is called by:
  2676 ;;		_systemInit
  2677 ;; This function uses a non-reentrant model
  2678 ;;
  2679                           
  2680                           	psect	text12
  2681  000FFA                     __ptext12:
  2682                           	opt stack 0
  2683  000FFA                     _interruptInit:
  2684                           	opt stack 25
  2685                           
  2686                           ;systemConfig.c: 290: INTCONbits.T0IE = 0x1;
  2687                           
  2688                           ;incstack = 0
  2689  000FFA  8AF2               	bsf	intcon,5,c	;volatile
  2690                           
  2691                           ;systemConfig.c: 291: PIE1bits.TMR1IE = 0x1;
  2692  000FFC  809D               	bsf	3997,0,c	;volatile
  2693                           
  2694                           ;systemConfig.c: 292: PIE1bits.TMR2IE = 0x1;
  2695  000FFE  829D               	bsf	3997,1,c	;volatile
  2696                           
  2697                           ;systemConfig.c: 293: PIE2bits.TMR3IE = 0x1;
  2698  001000  82A0               	bsf	4000,1,c	;volatile
  2699                           
  2700                           ;systemConfig.c: 294: PIE5bits.TMR4IE = 0x1;
  2701  001002  80B7               	bsf	4023,0,c	;volatile
  2702                           
  2703                           ;systemConfig.c: 296: PIE2bits.SSP2IE = 0x1;
  2704  001004  8CA0               	bsf	4000,6,c	;volatile
  2705                           
  2706                           ;systemConfig.c: 298: INTCONbits.IOCIE = 0x1;
  2707  001006  86F2               	bsf	intcon,3,c	;volatile
  2708                           
  2709                           ;systemConfig.c: 299: IOCNbits.IOCN1 = 0x1;
  2710  001008  010F               	movlb	15	; () banked
  2711  00100A  8355               	bsf	85,1,b	;volatile
  2712                           
  2713                           ;systemConfig.c: 300: IOCNbits.IOCN2 = 0x1;
  2714  00100C  010F               	movlb	15	; () banked
  2715  00100E  8555               	bsf	85,2,b	;volatile
  2716                           
  2717                           ;systemConfig.c: 301: IOCNbits.IOCN3 = 0x1;
  2718  001010  010F               	movlb	15	; () banked
  2719  001012  8755               	bsf	85,3,b	;volatile
  2720                           
  2721                           ;systemConfig.c: 302: IOCNbits.IOCN4 = 0x1;
  2722  001014  010F               	movlb	15	; () banked
  2723  001016  8955               	bsf	85,4,b	;volatile
  2724                           
  2725                           ;systemConfig.c: 303: IOCNbits.IOCN5 = 0x1;
  2726  001018  010F               	movlb	15	; () banked
  2727  00101A  8B55               	bsf	85,5,b	;volatile
  2728                           
  2729                           ;systemConfig.c: 304: IOCNbits.IOCN6 = 0x1;
  2730  00101C  010F               	movlb	15	; () banked
  2731  00101E  8D55               	bsf	85,6,b	;volatile
  2732                           
  2733                           ;systemConfig.c: 305: IOCNbits.IOCN7 = 0x1;
  2734  001020  010F               	movlb	15	; () banked
  2735  001022  8F55               	bsf	85,7,b	;volatile
  2736                           
  2737                           ;systemConfig.c: 307: INTCONbits.PEIE = 0x1;
  2738  001024  8CF2               	bsf	intcon,6,c	;volatile
  2739                           
  2740                           ;systemConfig.c: 308: INTCONbits.GIE = 0x1;
  2741  001026  8EF2               	bsf	intcon,7,c	;volatile
  2742                           
  2743                           ; BSR set to: 15
  2744  001028  0012               	return		;funcret
  2745  00102A                     __end_of_interruptInit:
  2746                           	opt stack 0
  2747                           tblptru	equ	0xFF8
  2748                           tblptrh	equ	0xFF7
  2749                           tblptrl	equ	0xFF6
  2750                           tablat	equ	0xFF5
  2751                           intcon	equ	0xFF2
  2752                           postinc0	equ	0xFEE
  2753                           wreg	equ	0xFE8
  2754                           postdec1	equ	0xFE5
  2755                           fsr1l	equ	0xFE1
  2756                           status	equ	0xFD8
  2757                           
  2758 ;; *************** function _interfaceInit *****************
  2759 ;; Defined at:
  2760 ;;		line 193 in file "systemConfig.c"
  2761 ;; Parameters:    Size  Location     Type
  2762 ;;		None
  2763 ;; Auto vars:     Size  Location     Type
  2764 ;;		None
  2765 ;; Return value:  Size  Location     Type
  2766 ;;                  1    wreg      void 
  2767 ;; Registers used:
  2768 ;;		None
  2769 ;; Tracked objects:
  2770 ;;		On entry : 0/0
  2771 ;;		On exit  : 0/0
  2772 ;;		Unchanged: 0/0
  2773 ;; Data sizes:     COMRAM   BANK0   BANK1   BANK2   BANK3   BANK4   BANK5   BANK6   BANK7   BANK8   BANK9  BANK10  BANK1
      +1  BANK12  BANK13
  2774 ;;      Params:         0       0       0       0       0       0       0       0       0       0       0       0       
      +0       0       0
  2775 ;;      Locals:         0       0       0       0       0       0       0       0       0       0       0       0       
      +0       0       0
  2776 ;;      Temps:          0       0       0       0       0       0       0       0       0       0       0       0       
      +0       0       0
  2777 ;;      Totals:         0       0       0       0       0       0       0       0       0       0       0       0       
      +0       0       0
  2778 ;;Total ram usage:        0 bytes
  2779 ;; Hardware stack levels used:    1
  2780 ;; Hardware stack levels required when called:    4
  2781 ;; This function calls:
  2782 ;;		Nothing
  2783 ;; This function is called by:
  2784 ;;		_systemInit
  2785 ;; This function uses a non-reentrant model
  2786 ;;
  2787                           
  2788                           	psect	text13
  2789  000B92                     __ptext13:
  2790                           	opt stack 0
  2791  000B92                     _interfaceInit:
  2792                           	opt stack 25
  2793                           
  2794                           ;systemConfig.c: 196: MEMCONbits.EBDIS = 1;
  2795                           
  2796                           ; BSR set to: 15
  2797                           ;incstack = 0
  2798  000B92  010E               	movlb	14	; () banked
  2799  000B94  8FE3               	bsf	227,7,b	;volatile
  2800                           
  2801                           ;systemConfig.c: 197: UCONbits.USBEN = 0;
  2802  000B96  9675               	bcf	3957,3,c	;volatile
  2803                           
  2804                           ;systemConfig.c: 200: OSCCON2bits.SOSCGO = 0;
  2805  000B98  9266               	bcf	3942,1,c	;volatile
  2806                           
  2807                           ;systemConfig.c: 201: T1CONbits.SOSCEN = 0;
  2808  000B9A  96CD               	bcf	4045,3,c	;volatile
  2809                           
  2810                           ;systemConfig.c: 202: T3CONbits.SOSCEN = 0;
  2811  000B9C  96B1               	bcf	4017,3,c	;volatile
  2812                           
  2813                           ;systemConfig.c: 203: T5CONbits.SOSCEN = 0;
  2814  000B9E  010F               	movlb	15	; () banked
  2815  000BA0  9714               	bcf	20,3,b	;volatile
  2816                           
  2817                           ;systemConfig.c: 208: ANCON2bits.ANSEL12 = 0;
  2818  000BA2  010E               	movlb	14	; () banked
  2819  000BA4  9946               	bcf	70,4,b	;volatile
  2820                           
  2821                           ;systemConfig.c: 209: TRISGbits.TRISG1 = 1;
  2822  000BA6  8298               	bsf	3992,1,c	;volatile
  2823                           
  2824                           ;systemConfig.c: 211: ANCON2bits.ANSEL13 = 0;
  2825  000BA8  010E               	movlb	14	; () banked
  2826  000BAA  9B46               	bcf	70,5,b	;volatile
  2827                           
  2828                           ;systemConfig.c: 212: TRISGbits.TRISG2 = 1;
  2829  000BAC  8498               	bsf	3992,2,c	;volatile
  2830                           
  2831                           ;systemConfig.c: 214: TRISEbits.TRISE6 = 1;
  2832  000BAE  8C96               	bsf	3990,6,c	;volatile
  2833                           
  2834                           ;systemConfig.c: 216: TRISDbits.TRISD1 = 1;
  2835  000BB0  8295               	bsf	3989,1,c	;volatile
  2836                           
  2837                           ;systemConfig.c: 218: ANCON2bits.ANSEL14 = 0;
  2838  000BB2  010E               	movlb	14	; () banked
  2839  000BB4  9D46               	bcf	70,6,b	;volatile
  2840                           
  2841                           ;systemConfig.c: 219: TRISGbits.TRISG3 = 1;
  2842  000BB6  8698               	bsf	3992,3,c	;volatile
  2843                           
  2844                           ;systemConfig.c: 221: TRISDbits.TRISD4 = 1;
  2845  000BB8  8895               	bsf	3989,4,c	;volatile
  2846                           
  2847                           ;systemConfig.c: 222: TRISEbits.TRISE3 = 1;
  2848  000BBA  8696               	bsf	3990,3,c	;volatile
  2849                           
  2850                           ;systemConfig.c: 225: TRISEbits.TRISE0 = 0;
  2851  000BBC  9096               	bcf	3990,0,c	;volatile
  2852                           
  2853                           ;systemConfig.c: 226: TRISDbits.TRISD2 = 0;
  2854  000BBE  9495               	bcf	3989,2,c	;volatile
  2855                           
  2856                           ;systemConfig.c: 229: TRISEbits.TRISE1 = 0;
  2857  000BC0  9296               	bcf	3990,1,c	;volatile
  2858                           
  2859                           ;systemConfig.c: 230: ANCON3bits.ANSEL17 = 0;
  2860  000BC2  010E               	movlb	14	; () banked
  2861  000BC4  9345               	bcf	69,1,b	;volatile
  2862                           
  2863                           ;systemConfig.c: 231: TRISHbits.TRISH1 = 0;
  2864  000BC6  9299               	bcf	3993,1,c	;volatile
  2865                           
  2866                           ;systemConfig.c: 234: TRISDbits.TRISD0 = 0;
  2867  000BC8  9095               	bcf	3989,0,c	;volatile
  2868                           
  2869                           ;systemConfig.c: 235: TRISEbits.TRISE7 = 0;
  2870  000BCA  9E96               	bcf	3990,7,c	;volatile
  2871                           
  2872                           ;systemConfig.c: 236: TRISEbits.TRISE5 = 0;
  2873  000BCC  9A96               	bcf	3990,5,c	;volatile
  2874                           
  2875                           ;systemConfig.c: 237: TRISEbits.TRISE4 = 0;
  2876  000BCE  9896               	bcf	3990,4,c	;volatile
  2877                           
  2878                           ;systemConfig.c: 238: ANCON3bits.ANSEL18 = 0;
  2879  000BD0  010E               	movlb	14	; () banked
  2880  000BD2  9545               	bcf	69,2,b	;volatile
  2881                           
  2882                           ;systemConfig.c: 239: TRISHbits.TRISH2 = 0;
  2883  000BD4  9499               	bcf	3993,2,c	;volatile
  2884                           
  2885                           ;systemConfig.c: 242: ANCON1bits.ANSEL6 = 0;
  2886  000BD6  010E               	movlb	14	; () banked
  2887  000BD8  9D47               	bcf	71,6,b	;volatile
  2888                           
  2889                           ;systemConfig.c: 243: TRISFbits.TRISF2 = 0;
  2890  000BDA  9497               	bcf	3991,2,c	;volatile
  2891                           
  2892                           ;systemConfig.c: 244: ANCON3bits.ANSEL23 = 0;
  2893  000BDC  010E               	movlb	14	; () banked
  2894  000BDE  9F45               	bcf	69,7,b	;volatile
  2895                           
  2896                           ;systemConfig.c: 245: TRISHbits.TRISH7 = 0;
  2897  000BE0  9E99               	bcf	3993,7,c	;volatile
  2898                           
  2899                           ;systemConfig.c: 248: ANCON2bits.ANSEL10 = 0;
  2900  000BE2  010E               	movlb	14	; () banked
  2901  000BE4  9546               	bcf	70,2,b	;volatile
  2902                           
  2903                           ;systemConfig.c: 249: TRISFbits.TRISF6 = 0;
  2904  000BE6  9C97               	bcf	3991,6,c	;volatile
  2905                           
  2906                           ;systemConfig.c: 250: ANCON2bits.ANSEL9 = 0;
  2907  000BE8  010E               	movlb	14	; () banked
  2908  000BEA  9346               	bcf	70,1,b	;volatile
  2909                           
  2910                           ;systemConfig.c: 251: TRISFbits.TRISF5 = 0;
  2911  000BEC  9A97               	bcf	3991,5,c	;volatile
  2912                           
  2913                           ;systemConfig.c: 254: ANCON3bits.ANSEL16 = 0;
  2914  000BEE  010E               	movlb	14	; () banked
  2915  000BF0  9145               	bcf	69,0,b	;volatile
  2916                           
  2917                           ;systemConfig.c: 255: TRISHbits.TRISH0 = 0;
  2918  000BF2  9099               	bcf	3993,0,c	;volatile
  2919                           
  2920                           ;systemConfig.c: 256: TRISGbits.TRISG4 = 0;
  2921  000BF4  9898               	bcf	3992,4,c	;volatile
  2922                           
  2923                           ;systemConfig.c: 257: ANCON2bits.ANSEL15 = 0;
  2924  000BF6  010E               	movlb	14	; () banked
  2925  000BF8  9F46               	bcf	70,7,b	;volatile
  2926                           
  2927                           ;systemConfig.c: 260: TRISCbits.TRISC7 = 1;
  2928  000BFA  8E94               	bsf	3988,7,c	;volatile
  2929                           
  2930                           ;systemConfig.c: 261: TRISJbits.TRISJ4 = 1;
  2931  000BFC  889A               	bsf	3994,4,c	;volatile
  2932                           
  2933                           ;systemConfig.c: 262: TRISJbits.TRISJ5 = 1;
  2934  000BFE  8A9A               	bsf	3994,5,c	;volatile
  2935                           
  2936                           ;systemConfig.c: 265: TRISCbits.TRISC1 = 1;
  2937  000C00  8294               	bsf	3988,1,c	;volatile
  2938                           
  2939                           ;systemConfig.c: 266: TRISCbits.TRISC0 = 1;
  2940  000C02  8094               	bsf	3988,0,c	;volatile
  2941                           
  2942                           ;systemConfig.c: 267: TRISCbits.TRISC6 = 1;
  2943  000C04  8C94               	bsf	3988,6,c	;volatile
  2944                           
  2945                           ;systemConfig.c: 270: ANCON3bits.ANSEL21 = 0;
  2946  000C06  010E               	movlb	14	; () banked
  2947  000C08  9B45               	bcf	69,5,b	;volatile
  2948                           
  2949                           ;systemConfig.c: 271: ANCON3bits.ANSEL20 = 0;
  2950  000C0A  010E               	movlb	14	; () banked
  2951  000C0C  9945               	bcf	69,4,b	;volatile
  2952                           
  2953                           ;systemConfig.c: 272: TRISFbits.TRISF3 = 1;
  2954  000C0E  8697               	bsf	3991,3,c	;volatile
  2955                           
  2956                           ;systemConfig.c: 273: TRISHbits.TRISH5 = 1;
  2957  000C10  8A99               	bsf	3993,5,c	;volatile
  2958                           
  2959                           ;systemConfig.c: 274: TRISHbits.TRISH4 = 1;
  2960  000C12  8899               	bsf	3993,4,c	;volatile
  2961                           
  2962                           ;systemConfig.c: 277: TRISBbits.TRISB5 = 0;
  2963  000C14  9A93               	bcf	3987,5,c	;volatile
  2964                           
  2965                           ;systemConfig.c: 278: TRISDbits.TRISD3 = 0;
  2966  000C16  9695               	bcf	3989,3,c	;volatile
  2967                           
  2968                           ;systemConfig.c: 279: LATB5 = 1;
  2969  000C18  8A8A               	bsf	3978,5,c	;volatile
  2970                           
  2971                           ;systemConfig.c: 280: LATD3 = 0;
  2972  000C1A  968C               	bcf	3980,3,c	;volatile
  2973                           
  2974                           ;systemConfig.c: 283: TRISJbits.TRISJ0 = 1;
  2975  000C1C  809A               	bsf	3994,0,c	;volatile
  2976                           
  2977                           ;systemConfig.c: 284: TRISJbits.TRISJ1 = 1;
  2978  000C1E  829A               	bsf	3994,1,c	;volatile
  2979                           
  2980                           ;systemConfig.c: 285: TRISDbits.TRISD7 = 1;
  2981  000C20  8E95               	bsf	3989,7,c	;volatile
  2982                           
  2983                           ; BSR set to: 14
  2984  000C22  0012               	return		;funcret
  2985  000C24                     __end_of_interfaceInit:
  2986                           	opt stack 0
  2987                           tblptru	equ	0xFF8
  2988                           tblptrh	equ	0xFF7
  2989                           tblptrl	equ	0xFF6
  2990                           tablat	equ	0xFF5
  2991                           intcon	equ	0xFF2
  2992                           postinc0	equ	0xFEE
  2993                           wreg	equ	0xFE8
  2994                           postdec1	equ	0xFE5
  2995                           fsr1l	equ	0xFE1
  2996                           status	equ	0xFD8
  2997                           
  2998 ;; *************** function _clockSwitch *****************
  2999 ;; Defined at:
  3000 ;;		line 52 in file "systemConfig.c"
  3001 ;; Parameters:    Size  Location     Type
  3002 ;;		None
  3003 ;; Auto vars:     Size  Location     Type
  3004 ;;		None
  3005 ;; Return value:  Size  Location     Type
  3006 ;;                  1    wreg      void 
  3007 ;; Registers used:
  3008 ;;		wreg, status,2, status,0
  3009 ;; Tracked objects:
  3010 ;;		On entry : 0/0
  3011 ;;		On exit  : 0/0
  3012 ;;		Unchanged: 0/0
  3013 ;; Data sizes:     COMRAM   BANK0   BANK1   BANK2   BANK3   BANK4   BANK5   BANK6   BANK7   BANK8   BANK9  BANK10  BANK1
      +1  BANK12  BANK13
  3014 ;;      Params:         0       0       0       0       0       0       0       0       0       0       0       0       
      +0       0       0
  3015 ;;      Locals:         0       0       0       0       0       0       0       0       0       0       0       0       
      +0       0       0
  3016 ;;      Temps:          0       0       0       0       0       0       0       0       0       0       0       0       
      +0       0       0
  3017 ;;      Totals:         0       0       0       0       0       0       0       0       0       0       0       0       
      +0       0       0
  3018 ;;Total ram usage:        0 bytes
  3019 ;; Hardware stack levels used:    1
  3020 ;; Hardware stack levels required when called:    4
  3021 ;; This function calls:
  3022 ;;		Nothing
  3023 ;; This function is called by:
  3024 ;;		_systemInit
  3025 ;; This function uses a non-reentrant model
  3026 ;;
  3027                           
  3028                           	psect	text14
  3029  00107E                     __ptext14:
  3030                           	opt stack 0
  3031  00107E                     _clockSwitch:
  3032                           	opt stack 25
  3033                           
  3034                           ;systemConfig.c: 54: OSCCON4bits.PLLEN = 0x1;
  3035                           
  3036                           ; BSR set to: 14
  3037                           ;incstack = 0
  3038  00107E  8A64               	bsf	3940,5,c	;volatile
  3039                           
  3040                           ;systemConfig.c: 55: OSCCON3bits.IRCF = 0x1;
  3041  001080  5065               	movf	3941,w,c	;volatile
  3042  001082  0BF8               	andlw	-8
  3043  001084  0901               	iorlw	1
  3044  001086  6E65               	movwf	3941,c	;volatile
  3045                           
  3046                           ;systemConfig.c: 56: OSCCON2bits.CLKLOCK = 0x0;
  3047  001088  9E66               	bcf	3942,7,c	;volatile
  3048                           
  3049                           ;systemConfig.c: 57: OSCCONbits.NOSC = 0x1;
  3050  00108A  50D3               	movf	4051,w,c	;volatile
  3051  00108C  0BF8               	andlw	-8
  3052  00108E  0901               	iorlw	1
  3053  001090  6ED3               	movwf	4051,c	;volatile
  3054  001092  38D3               	swapf	4051,w,c	;volatile
  3055  001094  0B07               	andlw	7
  3056  001096  06E8               	decf	wreg,f,c
  3057  001098  A4D8               	btfss	status,2,c
  3058  00109A  D7FB               	goto	l360
  3059  00109C                     u2570:
  3060                           
  3061                           ;systemConfig.c: 60: while (!OSCCON2bits.LOCK);
  3062  00109C  BA66               	btfsc	3942,5,c	;volatile
  3063  00109E  0012               	return	
  3064  0010A0  D7FD               	goto	u2570
  3065  0010A2                     __end_of_clockSwitch:
  3066                           	opt stack 0
  3067                           tblptru	equ	0xFF8
  3068                           tblptrh	equ	0xFF7
  3069                           tblptrl	equ	0xFF6
  3070                           tablat	equ	0xFF5
  3071                           intcon	equ	0xFF2
  3072                           postinc0	equ	0xFEE
  3073                           wreg	equ	0xFE8
  3074                           postdec1	equ	0xFE5
  3075                           fsr1l	equ	0xFE1
  3076                           status	equ	0xFD8
  3077                           
  3078 ;; *************** function _bypassSetup *****************
  3079 ;; Defined at:
  3080 ;;		line 311 in file "systemConfig.c"
  3081 ;; Parameters:    Size  Location     Type
  3082 ;;		None
  3083 ;; Auto vars:     Size  Location     Type
  3084 ;;		None
  3085 ;; Return value:  Size  Location     Type
  3086 ;;                  1    wreg      void 
  3087 ;; Registers used:
  3088 ;;		None
  3089 ;; Tracked objects:
  3090 ;;		On entry : 0/0
  3091 ;;		On exit  : 0/0
  3092 ;;		Unchanged: 0/0
  3093 ;; Data sizes:     COMRAM   BANK0   BANK1   BANK2   BANK3   BANK4   BANK5   BANK6   BANK7   BANK8   BANK9  BANK10  BANK1
      +1  BANK12  BANK13
  3094 ;;      Params:         0       0       0       0       0       0       0       0       0       0       0       0       
      +0       0       0
  3095 ;;      Locals:         0       0       0       0       0       0       0       0       0       0       0       0       
      +0       0       0
  3096 ;;      Temps:          0       0       0       0       0       0       0       0       0       0       0       0       
      +0       0       0
  3097 ;;      Totals:         0       0       0       0       0       0       0       0       0       0       0       0       
      +0       0       0
  3098 ;;Total ram usage:        0 bytes
  3099 ;; Hardware stack levels used:    1
  3100 ;; Hardware stack levels required when called:    4
  3101 ;; This function calls:
  3102 ;;		Nothing
  3103 ;; This function is called by:
  3104 ;;		_systemInit
  3105 ;; This function uses a non-reentrant model
  3106 ;;
  3107                           
  3108                           	psect	text15
  3109  001128                     __ptext15:
  3110                           	opt stack 0
  3111  001128                     _bypassSetup:
  3112                           	opt stack 25
  3113                           
  3114                           ;systemConfig.c: 313: LATB5 = 1;
  3115                           
  3116                           ;incstack = 0
  3117  001128  8A8A               	bsf	3978,5,c	;volatile
  3118                           
  3119                           ;systemConfig.c: 314: LATD3 = 1;
  3120  00112A  868C               	bsf	3980,3,c	;volatile
  3121                           
  3122                           ;systemConfig.c: 315: LATE1 = 1;
  3123  00112C  828D               	bsf	3981,1,c	;volatile
  3124                           
  3125                           ;systemConfig.c: 316: LATH1 = 0;
  3126  00112E  9290               	bcf	3984,1,c	;volatile
  3127                           
  3128                           ;systemConfig.c: 317: LATD2 = 0;
  3129  001130  948C               	bcf	3980,2,c	;volatile
  3130  001132  0012               	return		;funcret
  3131  001134                     __end_of_bypassSetup:
  3132                           	opt stack 0
  3133                           tblptru	equ	0xFF8
  3134                           tblptrh	equ	0xFF7
  3135                           tblptrl	equ	0xFF6
  3136                           tablat	equ	0xFF5
  3137                           intcon	equ	0xFF2
  3138                           postinc0	equ	0xFEE
  3139                           wreg	equ	0xFE8
  3140                           postdec1	equ	0xFE5
  3141                           fsr1l	equ	0xFE1
  3142                           status	equ	0xFD8
  3143                           
  3144 ;; *************** function _absVal *****************
  3145 ;; Defined at:
  3146 ;;		line 160 in file "main.c"
  3147 ;; Parameters:    Size  Location     Type
  3148 ;;  val             2    0[BANK0 ] int 
  3149 ;; Auto vars:     Size  Location     Type
  3150 ;;		None
  3151 ;; Return value:  Size  Location     Type
  3152 ;;                  2    0[BANK0 ] int 
  3153 ;; Registers used:
  3154 ;;		wreg, status,2, status,0
  3155 ;; Tracked objects:
  3156 ;;		On entry : 0/0
  3157 ;;		On exit  : 0/0
  3158 ;;		Unchanged: 0/0
  3159 ;; Data sizes:     COMRAM   BANK0   BANK1   BANK2   BANK3   BANK4   BANK5   BANK6   BANK7   BANK8   BANK9  BANK10  BANK1
      +1  BANK12  BANK13
  3160 ;;      Params:         0       2       0       0       0       0       0       0       0       0       0       0       
      +0       0       0
  3161 ;;      Locals:         0       0       0       0       0       0       0       0       0       0       0       0       
      +0       0       0
  3162 ;;      Temps:          0       2       0       0       0       0       0       0       0       0       0       0       
      +0       0       0
  3163 ;;      Totals:         0       4       0       0       0       0       0       0       0       0       0       0       
      +0       0       0
  3164 ;;Total ram usage:        4 bytes
  3165 ;; Hardware stack levels used:    1
  3166 ;; Hardware stack levels required when called:    4
  3167 ;; This function calls:
  3168 ;;		Nothing
  3169 ;; This function is called by:
  3170 ;;		_main
  3171 ;; This function uses a non-reentrant model
  3172 ;;
  3173                           
  3174                           	psect	text16
  3175  00102A                     __ptext16:
  3176                           	opt stack 0
  3177  00102A                     _absVal:
  3178                           	opt stack 26
  3179                           
  3180                           ;main.c: 162: if (val < 0)
  3181                           
  3182                           ;incstack = 0
  3183  00102A  0100               	movlb	0	; () banked
  3184  00102C  AF7F               	btfss	(absVal@val+1)& (0+255),7,b
  3185  00102E  D00E               	goto	l112
  3186                           
  3187                           ; BSR set to: 0
  3188                           ;main.c: 163: return -val;
  3189  001030  C07E  F080         	movff	absVal@val,??_absVal
  3190  001034  C07F  F081         	movff	absVal@val+1,??_absVal+1
  3191  001038  0100               	movlb	0	; () banked
  3192  00103A  1F80               	comf	??_absVal& (0+255),f,b
  3193  00103C  1F81               	comf	(??_absVal+1)& (0+255),f,b
  3194  00103E  4B80               	infsnz	??_absVal& (0+255),f,b
  3195  001040  2B81               	incf	(??_absVal+1)& (0+255),f,b
  3196  001042  C080  F07E         	movff	??_absVal,?_absVal
  3197  001046  C081  F07F         	movff	??_absVal+1,?_absVal+1
  3198                           
  3199                           ; BSR set to: 0
  3200  00104A  0012               	return	
  3201  00104C                     l112:
  3202                           
  3203                           ; BSR set to: 0
  3204                           ;main.c: 164: else return val;
  3205  00104C  C07E  F07E         	movff	absVal@val,?_absVal
  3206  001050  C07F  F07F         	movff	absVal@val+1,?_absVal+1
  3207  001054  0012               	return	
  3208  001056                     __end_of_absVal:
  3209                           	opt stack 0
  3210                           tblptru	equ	0xFF8
  3211                           tblptrh	equ	0xFF7
  3212                           tblptrl	equ	0xFF6
  3213                           tablat	equ	0xFF5
  3214                           intcon	equ	0xFF2
  3215                           postinc0	equ	0xFEE
  3216                           wreg	equ	0xFE8
  3217                           postdec1	equ	0xFE5
  3218                           fsr1l	equ	0xFE1
  3219                           status	equ	0xFD8
  3220                           
  3221 ;; *************** function _I2C1_Write_DigiPot *****************
  3222 ;; Defined at:
  3223 ;;		line 103 in file "serial.c"
  3224 ;; Parameters:    Size  Location     Type
  3225 ;;  value           1    wreg     unsigned char 
  3226 ;; Auto vars:     Size  Location     Type
  3227 ;;  value           1    0[BANK0 ] unsigned char 
  3228 ;;  wrCommand       1    1[BANK0 ] unsigned char 
  3229 ;; Return value:  Size  Location     Type
  3230 ;;                  1    wreg      void 
  3231 ;; Registers used:
  3232 ;;		wreg, status,2
  3233 ;; Tracked objects:
  3234 ;;		On entry : 0/0
  3235 ;;		On exit  : 0/0
  3236 ;;		Unchanged: 0/0
  3237 ;; Data sizes:     COMRAM   BANK0   BANK1   BANK2   BANK3   BANK4   BANK5   BANK6   BANK7   BANK8   BANK9  BANK10  BANK1
      +1  BANK12  BANK13
  3238 ;;      Params:         0       0       0       0       0       0       0       0       0       0       0       0       
      +0       0       0
  3239 ;;      Locals:         0       2       0       0       0       0       0       0       0       0       0       0       
      +0       0       0
  3240 ;;      Temps:          0       0       0       0       0       0       0       0       0       0       0       0       
      +0       0       0
  3241 ;;      Totals:         0       2       0       0       0       0       0       0       0       0       0       0       
      +0       0       0
  3242 ;;Total ram usage:        2 bytes
  3243 ;; Hardware stack levels used:    1
  3244 ;; Hardware stack levels required when called:    4
  3245 ;; This function calls:
  3246 ;;		Nothing
  3247 ;; This function is called by:
  3248 ;;		_main
  3249 ;; This function uses a non-reentrant model
  3250 ;;
  3251                           
  3252                           	psect	text17
  3253  000FB8                     __ptext17:
  3254                           	opt stack 0
  3255  000FB8                     _I2C1_Write_DigiPot:
  3256                           	opt stack 26
  3257                           
  3258                           ; BSR set to: 0
  3259                           ;incstack = 0
  3260                           ;I2C1_Write_DigiPot@value stored from wreg
  3261  000FB8  0100               	movlb	0	; () banked
  3262  000FBA  6F7E               	movwf	I2C1_Write_DigiPot@value& (0+255),b
  3263                           
  3264                           ;serial.c: 105: char wrCommand = (0b00101111 << 1);
  3265  000FBC  0E5E               	movlw	94
  3266  000FBE  0100               	movlb	0	; () banked
  3267  000FC0  6F7F               	movwf	I2C1_Write_DigiPot@wrCommand& (0+255),b
  3268                           
  3269                           ; BSR set to: 0
  3270                           ;serial.c: 107: SSP1CON1bits.SSPEN = 0x1;
  3271  000FC2  8AC6               	bsf	4038,5,c	;volatile
  3272                           
  3273                           ; BSR set to: 0
  3274                           ;serial.c: 108: _delay((unsigned long)((5)*(32000000/4000000.0)));
  3275  000FC4  0E0D               	movlw	13
  3276  000FC6                     u3137:
  3277  000FC6  2EE8               	decfsz	wreg,f,c
  3278  000FC8  D7FE               	bra	u3137
  3279  000FCA  F000               	nop	
  3280                           
  3281                           ;serial.c: 110: SSP1CON2bits.SEN = 0x1;
  3282  000FCC  80C5               	bsf	4037,0,c	;volatile
  3283  000FCE  B0C5               	btfsc	4037,0,c	;volatile
  3284  000FD0  D7FE               	goto	l872
  3285                           
  3286                           ;serial.c: 112: PIR1bits.SSP1IF = 0x0;
  3287  000FD2  969E               	bcf	3998,3,c	;volatile
  3288                           
  3289                           ;serial.c: 113: SSP1BUF = wrCommand;
  3290  000FD4  C07F  FFC9         	movff	I2C1_Write_DigiPot@wrCommand,4041	;volatile
  3291  000FD8  BCC5               	btfsc	4037,6,c	;volatile
  3292  000FDA  D7FE               	goto	l875
  3293  000FDC                     u2610:
  3294                           
  3295                           ;serial.c: 116: while(!PIR1bits.SSP1IF);
  3296  000FDC  A69E               	btfss	3998,3,c	;volatile
  3297  000FDE  D7FE               	goto	u2610
  3298                           
  3299                           ;serial.c: 117: PIR1bits.SSP1IF = 0x0;
  3300  000FE0  969E               	bcf	3998,3,c	;volatile
  3301                           
  3302                           ;serial.c: 118: SSP1BUF = value;
  3303  000FE2  C07E  FFC9         	movff	I2C1_Write_DigiPot@value,4041	;volatile
  3304  000FE6  BCC5               	btfsc	4037,6,c	;volatile
  3305  000FE8  D7FE               	goto	l881
  3306  000FEA                     u2630:
  3307                           
  3308                           ;serial.c: 121: while(!PIR1bits.SSP1IF);
  3309  000FEA  A69E               	btfss	3998,3,c	;volatile
  3310  000FEC  D7FE               	goto	u2630
  3311                           
  3312                           ;serial.c: 122: SSP1CON2bits.PEN = 0x1;
  3313  000FEE  84C5               	bsf	4037,2,c	;volatile
  3314  000FF0  B4C5               	btfsc	4037,2,c	;volatile
  3315  000FF2  D7FE               	goto	l887
  3316                           
  3317                           ;serial.c: 125: PIR1bits.SSP1IF = 0x0;
  3318  000FF4  969E               	bcf	3998,3,c	;volatile
  3319                           
  3320                           ;serial.c: 126: SSP1CON1bits.SSPEN = 0x1;
  3321  000FF6  8AC6               	bsf	4038,5,c	;volatile
  3322  000FF8  0012               	return		;funcret
  3323  000FFA                     __end_of_I2C1_Write_DigiPot:
  3324                           	opt stack 0
  3325                           tblptru	equ	0xFF8
  3326                           tblptrh	equ	0xFF7
  3327                           tblptrl	equ	0xFF6
  3328                           tablat	equ	0xFF5
  3329                           intcon	equ	0xFF2
  3330                           postinc0	equ	0xFEE
  3331                           wreg	equ	0xFE8
  3332                           postdec1	equ	0xFE5
  3333                           fsr1l	equ	0xFE1
  3334                           status	equ	0xFD8
  3335                           
  3336 ;; *************** function _ADC_Read *****************
  3337 ;; Defined at:
  3338 ;;		line 318 in file "hardware.c"
  3339 ;; Parameters:    Size  Location     Type
  3340 ;;  channel         2    0[BANK0 ] int 
  3341 ;; Auto vars:     Size  Location     Type
  3342 ;;  value           2    2[BANK0 ] int 
  3343 ;; Return value:  Size  Location     Type
  3344 ;;                  2    0[BANK0 ] int 
  3345 ;; Registers used:
  3346 ;;		wreg, status,2, status,0
  3347 ;; Tracked objects:
  3348 ;;		On entry : 0/0
  3349 ;;		On exit  : 0/0
  3350 ;;		Unchanged: 0/0
  3351 ;; Data sizes:     COMRAM   BANK0   BANK1   BANK2   BANK3   BANK4   BANK5   BANK6   BANK7   BANK8   BANK9  BANK10  BANK1
      +1  BANK12  BANK13
  3352 ;;      Params:         0       2       0       0       0       0       0       0       0       0       0       0       
      +0       0       0
  3353 ;;      Locals:         0       2       0       0       0       0       0       0       0       0       0       0       
      +0       0       0
  3354 ;;      Temps:          0       0       0       0       0       0       0       0       0       0       0       0       
      +0       0       0
  3355 ;;      Totals:         0       4       0       0       0       0       0       0       0       0       0       0       
      +0       0       0
  3356 ;;Total ram usage:        4 bytes
  3357 ;; Hardware stack levels used:    1
  3358 ;; Hardware stack levels required when called:    4
  3359 ;; This function calls:
  3360 ;;		Nothing
  3361 ;; This function is called by:
  3362 ;;		_main
  3363 ;; This function uses a non-reentrant model
  3364 ;;
  3365                           
  3366                           	psect	text18
  3367  000836                     __ptext18:
  3368                           	opt stack 0
  3369  000836                     _ADC_Read:
  3370                           	opt stack 26
  3371                           
  3372                           ;hardware.c: 320: int value;
  3373                           ;hardware.c: 321: ADCHS0Lbits.CH0SA = channel;
  3374                           
  3375                           ;incstack = 0
  3376  000836  010E               	movlb	14	; () banked
  3377  000838  5186               	movf	134,w,b	;volatile
  3378  00083A  0100               	movlb	0	; () banked
  3379  00083C  197E               	xorwf	ADC_Read@channel& (0+255),w,b
  3380  00083E  0BE0               	andlw	-32
  3381  000840  197E               	xorwf	ADC_Read@channel& (0+255),w,b
  3382  000842  010E               	movlb	14	; () banked
  3383  000844  6F86               	movwf	134,b	;volatile
  3384                           
  3385                           ; BSR set to: 14
  3386                           ;hardware.c: 322: _delay((unsigned long)((100)*(32000000/4000000.0)));
  3387  000846  0EA0               	movlw	160
  3388  000848                     u3147:
  3389  000848  D000               	nop2	
  3390  00084A  2EE8               	decfsz	wreg,f,c
  3391  00084C  D7FD               	bra	u3147
  3392                           
  3393                           ;hardware.c: 323: ADCON1Hbits.ADON = 1;
  3394  00084E  8EC1               	bsf	4033,7,c	;volatile
  3395                           
  3396                           ;hardware.c: 324: ADCON1Lbits.SAMP = 1;
  3397  000850  82C0               	bsf	4032,1,c	;volatile
  3398                           
  3399                           ;hardware.c: 325: _delay((unsigned long)((100)*(32000000/4000000.0)));
  3400  000852  0EA0               	movlw	160
  3401  000854                     u3157:
  3402  000854  D000               	nop2	
  3403  000856  2EE8               	decfsz	wreg,f,c
  3404  000858  D7FD               	bra	u3157
  3405                           
  3406                           ;hardware.c: 326: ADCON1Lbits.SAMP = 0;
  3407  00085A  92C0               	bcf	4032,1,c	;volatile
  3408  00085C  A0C0               	btfss	4032,0,c	;volatile
  3409  00085E  D7FE               	goto	l659
  3410                           
  3411                           ;hardware.c: 328: ADCON1Hbits.ADON = 0;
  3412  000860  9EC1               	bcf	4033,7,c	;volatile
  3413                           
  3414                           ;hardware.c: 331: if (channel == 0)
  3415  000862  0100               	movlb	0	; () banked
  3416  000864  517E               	movf	ADC_Read@channel& (0+255),w,b
  3417  000866  0100               	movlb	0	; () banked
  3418  000868  117F               	iorwf	(ADC_Read@channel+1)& (0+255),w,b
  3419  00086A  A4D8               	btfss	status,2,c
  3420  00086C  D005               	goto	l661
  3421                           
  3422                           ; BSR set to: 0
  3423                           ;hardware.c: 332: {
  3424                           ;hardware.c: 333: value = ADCBUF0;
  3425  00086E  CFC2 F080          	movff	4034,ADC_Read@value	;volatile
  3426  000872  CFC3 F081          	movff	4035,ADC_Read@value+1	;volatile
  3427                           
  3428                           ;hardware.c: 334: }
  3429  000876  D070               	goto	l680
  3430  000878                     l661:
  3431                           
  3432                           ; BSR set to: 0
  3433                           ;hardware.c: 335: else if (channel == 1)
  3434                           
  3435                           ; BSR set to: 0
  3436  000878  0100               	movlb	0	; () banked
  3437  00087A  057E               	decf	ADC_Read@channel& (0+255),w,b
  3438  00087C  0100               	movlb	0	; () banked
  3439  00087E  117F               	iorwf	(ADC_Read@channel+1)& (0+255),w,b
  3440  000880  A4D8               	btfss	status,2,c
  3441  000882  D005               	goto	l663
  3442                           
  3443                           ; BSR set to: 0
  3444                           ;hardware.c: 336: {
  3445                           ;hardware.c: 337: value = ADCBUF1;
  3446  000884  CE48 F080          	movff	3656,ADC_Read@value	;volatile
  3447  000888  CE49 F081          	movff	3657,ADC_Read@value+1	;volatile
  3448                           
  3449                           ;hardware.c: 338: }
  3450  00088C  D065               	goto	l680
  3451  00088E                     l663:
  3452                           
  3453                           ; BSR set to: 0
  3454                           ;hardware.c: 339: else if (channel == 2)
  3455                           
  3456                           ; BSR set to: 0
  3457  00088E  0E02               	movlw	2
  3458  000890  0100               	movlb	0	; () banked
  3459  000892  197E               	xorwf	ADC_Read@channel& (0+255),w,b
  3460  000894  0100               	movlb	0	; () banked
  3461  000896  117F               	iorwf	(ADC_Read@channel+1)& (0+255),w,b
  3462  000898  A4D8               	btfss	status,2,c
  3463  00089A  D005               	goto	l665
  3464                           
  3465                           ; BSR set to: 0
  3466                           ;hardware.c: 340: {
  3467                           ;hardware.c: 341: value = ADCBUF2;
  3468  00089C  CE4A F080          	movff	3658,ADC_Read@value	;volatile
  3469  0008A0  CE4B F081          	movff	3659,ADC_Read@value+1	;volatile
  3470                           
  3471                           ;hardware.c: 342: }
  3472  0008A4  D059               	goto	l680
  3473  0008A6                     l665:
  3474                           
  3475                           ; BSR set to: 0
  3476                           ;hardware.c: 343: else if (channel == 3)
  3477                           
  3478                           ; BSR set to: 0
  3479  0008A6  0E03               	movlw	3
  3480  0008A8  0100               	movlb	0	; () banked
  3481  0008AA  197E               	xorwf	ADC_Read@channel& (0+255),w,b
  3482  0008AC  0100               	movlb	0	; () banked
  3483  0008AE  117F               	iorwf	(ADC_Read@channel+1)& (0+255),w,b
  3484  0008B0  A4D8               	btfss	status,2,c
  3485  0008B2  D005               	goto	l667
  3486                           
  3487                           ; BSR set to: 0
  3488                           ;hardware.c: 344: {
  3489                           ;hardware.c: 345: value = ADCBUF3;
  3490  0008B4  CE4C F080          	movff	3660,ADC_Read@value	;volatile
  3491  0008B8  CE4D F081          	movff	3661,ADC_Read@value+1	;volatile
  3492                           
  3493                           ;hardware.c: 346: }
  3494  0008BC  D04D               	goto	l680
  3495  0008BE                     l667:
  3496                           
  3497                           ; BSR set to: 0
  3498                           ;hardware.c: 347: else if (channel == 4)
  3499                           
  3500                           ; BSR set to: 0
  3501  0008BE  0E04               	movlw	4
  3502  0008C0  0100               	movlb	0	; () banked
  3503  0008C2  197E               	xorwf	ADC_Read@channel& (0+255),w,b
  3504  0008C4  0100               	movlb	0	; () banked
  3505  0008C6  117F               	iorwf	(ADC_Read@channel+1)& (0+255),w,b
  3506  0008C8  A4D8               	btfss	status,2,c
  3507  0008CA  D005               	goto	l669
  3508                           
  3509                           ; BSR set to: 0
  3510                           ;hardware.c: 348: {
  3511                           ;hardware.c: 349: value = ADCBUF4;
  3512  0008CC  CE4E F080          	movff	3662,ADC_Read@value	;volatile
  3513  0008D0  CE4F F081          	movff	3663,ADC_Read@value+1	;volatile
  3514                           
  3515                           ;hardware.c: 350: }
  3516  0008D4  D041               	goto	l680
  3517  0008D6                     l669:
  3518                           
  3519                           ; BSR set to: 0
  3520                           ;hardware.c: 351: else if (channel == 5)
  3521                           
  3522                           ; BSR set to: 0
  3523  0008D6  0E05               	movlw	5
  3524  0008D8  0100               	movlb	0	; () banked
  3525  0008DA  197E               	xorwf	ADC_Read@channel& (0+255),w,b
  3526  0008DC  0100               	movlb	0	; () banked
  3527  0008DE  117F               	iorwf	(ADC_Read@channel+1)& (0+255),w,b
  3528  0008E0  A4D8               	btfss	status,2,c
  3529  0008E2  D005               	goto	l671
  3530                           
  3531                           ; BSR set to: 0
  3532                           ;hardware.c: 352: {
  3533                           ;hardware.c: 353: value = ADCBUF5;
  3534  0008E4  CE50 F080          	movff	3664,ADC_Read@value	;volatile
  3535  0008E8  CE51 F081          	movff	3665,ADC_Read@value+1	;volatile
  3536                           
  3537                           ;hardware.c: 354: }
  3538  0008EC  D035               	goto	l680
  3539  0008EE                     l671:
  3540                           
  3541                           ; BSR set to: 0
  3542                           ;hardware.c: 355: else if (channel == 6)
  3543                           
  3544                           ; BSR set to: 0
  3545  0008EE  0E06               	movlw	6
  3546  0008F0  0100               	movlb	0	; () banked
  3547  0008F2  197E               	xorwf	ADC_Read@channel& (0+255),w,b
  3548  0008F4  0100               	movlb	0	; () banked
  3549  0008F6  117F               	iorwf	(ADC_Read@channel+1)& (0+255),w,b
  3550  0008F8  A4D8               	btfss	status,2,c
  3551  0008FA  D005               	goto	l673
  3552                           
  3553                           ; BSR set to: 0
  3554                           ;hardware.c: 356: {
  3555                           ;hardware.c: 357: value = ADCBUF6;
  3556  0008FC  CE52 F080          	movff	3666,ADC_Read@value	;volatile
  3557  000900  CE53 F081          	movff	3667,ADC_Read@value+1	;volatile
  3558                           
  3559                           ;hardware.c: 358: }
  3560  000904  D029               	goto	l680
  3561  000906                     l673:
  3562                           
  3563                           ; BSR set to: 0
  3564                           ;hardware.c: 359: else if (channel == 14)
  3565                           
  3566                           ; BSR set to: 0
  3567  000906  0E0E               	movlw	14
  3568  000908  0100               	movlb	0	; () banked
  3569  00090A  197E               	xorwf	ADC_Read@channel& (0+255),w,b
  3570  00090C  0100               	movlb	0	; () banked
  3571  00090E  117F               	iorwf	(ADC_Read@channel+1)& (0+255),w,b
  3572  000910  A4D8               	btfss	status,2,c
  3573  000912  D005               	goto	l675
  3574                           
  3575                           ; BSR set to: 0
  3576                           ;hardware.c: 360: {
  3577                           ;hardware.c: 361: value = ADCBUF14;
  3578  000914  CE62 F080          	movff	3682,ADC_Read@value	;volatile
  3579  000918  CE63 F081          	movff	3683,ADC_Read@value+1	;volatile
  3580                           
  3581                           ;hardware.c: 362: }
  3582  00091C  D01D               	goto	l680
  3583  00091E                     l675:
  3584                           
  3585                           ; BSR set to: 0
  3586                           ;hardware.c: 363: else if (channel == 8)
  3587                           
  3588                           ; BSR set to: 0
  3589  00091E  0E08               	movlw	8
  3590  000920  0100               	movlb	0	; () banked
  3591  000922  197E               	xorwf	ADC_Read@channel& (0+255),w,b
  3592  000924  0100               	movlb	0	; () banked
  3593  000926  117F               	iorwf	(ADC_Read@channel+1)& (0+255),w,b
  3594  000928  A4D8               	btfss	status,2,c
  3595  00092A  D005               	goto	l677
  3596                           
  3597                           ; BSR set to: 0
  3598                           ;hardware.c: 364: {
  3599                           ;hardware.c: 365: value = ADCBUF8;
  3600  00092C  CE56 F080          	movff	3670,ADC_Read@value	;volatile
  3601  000930  CE57 F081          	movff	3671,ADC_Read@value+1	;volatile
  3602                           
  3603                           ;hardware.c: 366: }
  3604  000934  D011               	goto	l680
  3605  000936                     l677:
  3606                           
  3607                           ; BSR set to: 0
  3608                           ;hardware.c: 367: else if (channel == 9)
  3609                           
  3610                           ; BSR set to: 0
  3611  000936  0E09               	movlw	9
  3612  000938  0100               	movlb	0	; () banked
  3613  00093A  197E               	xorwf	ADC_Read@channel& (0+255),w,b
  3614  00093C  0100               	movlb	0	; () banked
  3615  00093E  117F               	iorwf	(ADC_Read@channel+1)& (0+255),w,b
  3616  000940  A4D8               	btfss	status,2,c
  3617  000942  D005               	goto	l679
  3618                           
  3619                           ; BSR set to: 0
  3620                           ;hardware.c: 368: {
  3621                           ;hardware.c: 369: value = ADCBUF9;
  3622  000944  CE58 F080          	movff	3672,ADC_Read@value	;volatile
  3623  000948  CE59 F081          	movff	3673,ADC_Read@value+1	;volatile
  3624                           
  3625                           ;hardware.c: 370: }
  3626  00094C  D005               	goto	l680
  3627  00094E                     l679:
  3628                           
  3629                           ; BSR set to: 0
  3630                           ;hardware.c: 371: else value = 0;
  3631                           
  3632                           ; BSR set to: 0
  3633  00094E  0E00               	movlw	0
  3634  000950  0100               	movlb	0	; () banked
  3635  000952  6F81               	movwf	(ADC_Read@value+1)& (0+255),b
  3636  000954  0E00               	movlw	0
  3637  000956  6F80               	movwf	ADC_Read@value& (0+255),b
  3638  000958                     l680:
  3639                           
  3640                           ; BSR set to: 0
  3641                           ;hardware.c: 372: return (value);
  3642                           
  3643                           ; BSR set to: 0
  3644                           
  3645                           ; BSR set to: 0
  3646                           
  3647                           ; BSR set to: 0
  3648                           
  3649                           ; BSR set to: 0
  3650                           
  3651                           ; BSR set to: 0
  3652                           
  3653                           ; BSR set to: 0
  3654                           
  3655                           ; BSR set to: 0
  3656                           
  3657                           ; BSR set to: 0
  3658                           
  3659                           ; BSR set to: 0
  3660                           
  3661                           ; BSR set to: 0
  3662  000958  C080  F07E         	movff	ADC_Read@value,?_ADC_Read
  3663  00095C  C081  F07F         	movff	ADC_Read@value+1,?_ADC_Read+1
  3664  000960  0012               	return	
  3665  000962                     __end_of_ADC_Read:
  3666                           	opt stack 0
  3667                           tblptru	equ	0xFF8
  3668                           tblptrh	equ	0xFF7
  3669                           tblptrl	equ	0xFF6
  3670                           tablat	equ	0xFF5
  3671                           intcon	equ	0xFF2
  3672                           postinc0	equ	0xFEE
  3673                           wreg	equ	0xFE8
  3674                           postdec1	equ	0xFE5
  3675                           fsr1l	equ	0xFE1
  3676                           status	equ	0xFD8
  3677                           
  3678 ;; *************** function _highPriorityISR *****************
  3679 ;; Defined at:
  3680 ;;		line 122 in file "main.c"
  3681 ;; Parameters:    Size  Location     Type
  3682 ;;		None
  3683 ;; Auto vars:     Size  Location     Type
  3684 ;;		None
  3685 ;; Return value:  Size  Location     Type
  3686 ;;                  1    wreg      void 
  3687 ;; Registers used:
  3688 ;;		wreg, status,2, status,0, cstack
  3689 ;; Tracked objects:
  3690 ;;		On entry : 0/0
  3691 ;;		On exit  : 0/0
  3692 ;;		Unchanged: 0/0
  3693 ;; Data sizes:     COMRAM   BANK0   BANK1   BANK2   BANK3   BANK4   BANK5   BANK6   BANK7   BANK8   BANK9  BANK10  BANK1
      +1  BANK12  BANK13
  3694 ;;      Params:         0       0       0       0       0       0       0       0       0       0       0       0       
      +0       0       0
  3695 ;;      Locals:         0       0       0       0       0       0       0       0       0       0       0       0       
      +0       0       0
  3696 ;;      Temps:         18       0       0       0       0       0       0       0       0       0       0       0       
      +0       0       0
  3697 ;;      Totals:        18       0       0       0       0       0       0       0       0       0       0       0       
      +0       0       0
  3698 ;;Total ram usage:       18 bytes
  3699 ;; Hardware stack levels used:    1
  3700 ;; Hardware stack levels required when called:    3
  3701 ;; This function calls:
  3702 ;;		_checkSwitches
  3703 ;;		_sendParam
  3704 ;;		_serviceSwitches
  3705 ;;		_tapLED
  3706 ;; This function is called by:
  3707 ;;		Interrupt level 2
  3708 ;; This function uses a non-reentrant model
  3709 ;;
  3710                           
  3711                           	psect	intcode
  3712  000008                     __pintcode:
  3713                           	opt stack 0
  3714  000008                     _highPriorityISR:
  3715                           	opt stack 25
  3716                           
  3717                           ; BSR set to: 0
  3718                           ;incstack = 0
  3719  000008  8241               	bsf	btemp,1,c	;set compiler interrupt flag (level 2)
  3720  00000A  CFFA F02D          	movff	pclath,??_highPriorityISR
  3721  00000E  CFFB F02E          	movff	pclatu,??_highPriorityISR+1
  3722  000012  CFE9 F02F          	movff	fsr0l,??_highPriorityISR+2
  3723  000016  CFEA F030          	movff	fsr0h,??_highPriorityISR+3
  3724  00001A  CFE1 F031          	movff	fsr1l,??_highPriorityISR+4
  3725  00001E  CFE2 F032          	movff	fsr1h,??_highPriorityISR+5
  3726  000022  CFD9 F033          	movff	fsr2l,??_highPriorityISR+6
  3727  000026  CFDA F034          	movff	fsr2h,??_highPriorityISR+7
  3728  00002A  CFF3 F035          	movff	prodl,??_highPriorityISR+8
  3729  00002E  CFF4 F036          	movff	prodh,??_highPriorityISR+9
  3730  000032  CFF6 F037          	movff	tblptrl,??_highPriorityISR+10
  3731  000036  CFF7 F038          	movff	tblptrh,??_highPriorityISR+11
  3732  00003A  CFF8 F039          	movff	tblptru,??_highPriorityISR+12
  3733  00003E  CFF5 F03A          	movff	tablat,??_highPriorityISR+13
  3734  000042  C041  F03B         	movff	btemp,??_highPriorityISR+14
  3735  000046  C042  F03C         	movff	btemp+1,??_highPriorityISR+15
  3736  00004A  C043  F03D         	movff	btemp+2,??_highPriorityISR+16
  3737  00004E  C044  F03E         	movff	btemp+3,??_highPriorityISR+17
  3738                           
  3739                           ;main.c: 125: if(SSP2IF)
  3740  000052  ACA1               	btfss	4001,6,c	;volatile
  3741  000054  D003               	goto	i2l103
  3742                           
  3743                           ;main.c: 126: {
  3744                           ;main.c: 127: PIR2bits.SSP2IF = 0x0;
  3745  000056  9CA1               	bcf	4001,6,c	;volatile
  3746                           
  3747                           ;main.c: 128: sendParam();
  3748  000058  EC2E  F005         	call	_sendParam	;wreg free
  3749  00005C                     i2l103:
  3750                           
  3751                           ;main.c: 129: }
  3752                           ;main.c: 131: if (TMR4IF)
  3753  00005C  A0B8               	btfss	4024,0,c	;volatile
  3754  00005E  D005               	goto	i2l104
  3755                           
  3756                           ;main.c: 132: {
  3757                           ;main.c: 133: TMR4IF = 0;
  3758  000060  90B8               	bcf	4024,0,c	;volatile
  3759                           
  3760                           ;main.c: 134: tapLED();
  3761  000062  EC5A  F006         	call	_tapLED	;wreg free
  3762                           
  3763                           ;main.c: 135: T4CONbits.TMR4ON = 1;
  3764  000066  010F               	movlb	15	; () banked
  3765  000068  8504               	bsf	4,2,b	;volatile
  3766  00006A                     i2l104:
  3767                           
  3768                           ;main.c: 136: }
  3769                           ;main.c: 138: if (TMR2IF)
  3770                           
  3771                           ; BSR set to: 15
  3772  00006A  A29E               	btfss	3998,1,c	;volatile
  3773  00006C  D012               	goto	i2l107
  3774                           
  3775                           ;main.c: 139: {
  3776                           ;main.c: 140: TMR2IF = 0;
  3777  00006E  929E               	bcf	3998,1,c	;volatile
  3778                           
  3779                           ;main.c: 141: tapTimeCount++;
  3780  000070  4A07               	infsnz	_tapTimeCount,f,c
  3781  000072  2A08               	incf	_tapTimeCount+1,f,c
  3782                           
  3783                           ;main.c: 142: if (tapTimeCount >= 3000)
  3784  000074  BE08               	btfsc	_tapTimeCount+1,7,c
  3785  000076  D00C               	goto	i2l106
  3786  000078  0EB8               	movlw	184
  3787  00007A  5C07               	subwf	_tapTimeCount,w,c
  3788  00007C  0E0B               	movlw	11
  3789  00007E  5808               	subwfb	_tapTimeCount+1,w,c
  3790  000080  A0D8               	btfss	status,0,c
  3791  000082  D006               	goto	i2l106
  3792                           
  3793                           ;main.c: 143: {
  3794                           ;main.c: 144: tapTimeCount = 3000;
  3795  000084  0E0B               	movlw	11
  3796  000086  6E08               	movwf	_tapTimeCount+1,c
  3797  000088  0EB8               	movlw	184
  3798  00008A  6E07               	movwf	_tapTimeCount,c
  3799                           
  3800                           ;main.c: 145: T2CONbits.TMR2ON = 0;
  3801  00008C  94CA               	bcf	4042,2,c	;volatile
  3802                           
  3803                           ;main.c: 146: }
  3804  00008E  D001               	goto	i2l107
  3805  000090                     i2l106:
  3806                           
  3807                           ;main.c: 147: else T2CONbits.TMR2ON = 1;
  3808  000090  84CA               	bsf	4042,2,c	;volatile
  3809  000092                     i2l107:
  3810                           
  3811                           ;main.c: 148: }
  3812                           ;main.c: 150: checkSwitches();
  3813  000092  EC7D  F005         	call	_checkSwitches	;wreg free
  3814                           
  3815                           ;main.c: 152: if (TMR0IF)
  3816  000096  A4F2               	btfss	intcon,2,c	;volatile
  3817  000098  D004               	goto	i2l108
  3818                           
  3819                           ;main.c: 153: {
  3820                           ;main.c: 154: TMR0IF = 0;
  3821  00009A  94F2               	bcf	intcon,2,c	;volatile
  3822                           
  3823                           ;main.c: 155: serviceSwitches();
  3824  00009C  EC41  F002         	call	_serviceSwitches	;wreg free
  3825                           
  3826                           ;main.c: 156: T0CONbits.TMR0ON = 0x0;
  3827  0000A0  9ED5               	bcf	4053,7,c	;volatile
  3828  0000A2                     i2l108:
  3829  0000A2  C03E  F044         	movff	??_highPriorityISR+17,btemp+3
  3830  0000A6  C03D  F043         	movff	??_highPriorityISR+16,btemp+2
  3831  0000AA  C03C  F042         	movff	??_highPriorityISR+15,btemp+1
  3832  0000AE  C03B  F041         	movff	??_highPriorityISR+14,btemp
  3833  0000B2  C03A  FFF5         	movff	??_highPriorityISR+13,tablat
  3834  0000B6  C039  FFF8         	movff	??_highPriorityISR+12,tblptru
  3835  0000BA  C038  FFF7         	movff	??_highPriorityISR+11,tblptrh
  3836  0000BE  C037  FFF6         	movff	??_highPriorityISR+10,tblptrl
  3837  0000C2  C036  FFF4         	movff	??_highPriorityISR+9,prodh
  3838  0000C6  C035  FFF3         	movff	??_highPriorityISR+8,prodl
  3839  0000CA  C034  FFDA         	movff	??_highPriorityISR+7,fsr2h
  3840  0000CE  C033  FFD9         	movff	??_highPriorityISR+6,fsr2l
  3841  0000D2  C032  FFE2         	movff	??_highPriorityISR+5,fsr1h
  3842  0000D6  C031  FFE1         	movff	??_highPriorityISR+4,fsr1l
  3843  0000DA  C030  FFEA         	movff	??_highPriorityISR+3,fsr0h
  3844  0000DE  C02F  FFE9         	movff	??_highPriorityISR+2,fsr0l
  3845  0000E2  C02E  FFFB         	movff	??_highPriorityISR+1,pclatu
  3846  0000E6  C02D  FFFA         	movff	??_highPriorityISR,pclath
  3847  0000EA  9241               	bcf	btemp,1,c	;clear compiler interrupt flag (level 2)
  3848  0000EC  0011               	retfie		f
  3849  0000EE                     __end_of_highPriorityISR:
  3850                           	opt stack 0
  3851                           pclatu	equ	0xFFB
  3852                           pclath	equ	0xFFA
  3853                           tblptru	equ	0xFF8
  3854                           tblptrh	equ	0xFF7
  3855                           tblptrl	equ	0xFF6
  3856                           tablat	equ	0xFF5
  3857                           prodh	equ	0xFF4
  3858                           prodl	equ	0xFF3
  3859                           intcon	equ	0xFF2
  3860                           postinc0	equ	0xFEE
  3861                           fsr0h	equ	0xFEA
  3862                           fsr0l	equ	0xFE9
  3863                           wreg	equ	0xFE8
  3864                           postdec1	equ	0xFE5
  3865                           fsr1h	equ	0xFE2
  3866                           fsr1l	equ	0xFE1
  3867                           fsr2h	equ	0xFDA
  3868                           fsr2l	equ	0xFD9
  3869                           status	equ	0xFD8
  3870                           
  3871 ;; *************** function _tapLED *****************
  3872 ;; Defined at:
  3873 ;;		line 75 in file "hardware.c"
  3874 ;; Parameters:    Size  Location     Type
  3875 ;;		None
  3876 ;; Auto vars:     Size  Location     Type
  3877 ;;		None
  3878 ;; Return value:  Size  Location     Type
  3879 ;;                  1    wreg      void 
  3880 ;; Registers used:
  3881 ;;		wreg, status,2, status,0
  3882 ;; Tracked objects:
  3883 ;;		On entry : 0/0
  3884 ;;		On exit  : 0/0
  3885 ;;		Unchanged: 0/0
  3886 ;; Data sizes:     COMRAM   BANK0   BANK1   BANK2   BANK3   BANK4   BANK5   BANK6   BANK7   BANK8   BANK9  BANK10  BANK1
      +1  BANK12  BANK13
  3887 ;;      Params:         0       0       0       0       0       0       0       0       0       0       0       0       
      +0       0       0
  3888 ;;      Locals:         0       0       0       0       0       0       0       0       0       0       0       0       
      +0       0       0
  3889 ;;      Temps:          3       0       0       0       0       0       0       0       0       0       0       0       
      +0       0       0
  3890 ;;      Totals:         3       0       0       0       0       0       0       0       0       0       0       0       
      +0       0       0
  3891 ;;Total ram usage:        3 bytes
  3892 ;; Hardware stack levels used:    1
  3893 ;; This function calls:
  3894 ;;		Nothing
  3895 ;; This function is called by:
  3896 ;;		_highPriorityISR
  3897 ;; This function uses a non-reentrant model
  3898 ;;
  3899                           
  3900                           	psect	text20
  3901  000CB4                     __ptext20:
  3902                           	opt stack 0
  3903  000CB4                     _tapLED:
  3904                           	opt stack 27
  3905                           
  3906                           ;hardware.c: 84: if(tapFlash)
  3907                           
  3908                           ;incstack = 0
  3909  000CB4  0100               	movlb	0	; () banked
  3910  000CB6  516E               	movf	_tapFlash& (0+255),w,b
  3911  000CB8  0100               	movlb	0	; () banked
  3912  000CBA  116F               	iorwf	(_tapFlash+1)& (0+255),w,b
  3913  000CBC  B4D8               	btfsc	status,2,c
  3914  000CBE  D017               	goto	i2l603
  3915                           
  3916                           ; BSR set to: 0
  3917                           ;hardware.c: 85: {
  3918                           ;hardware.c: 86: tapDispCount++;
  3919  000CC0  4A11               	infsnz	_tapDispCount,f,c
  3920  000CC2  2A12               	incf	_tapDispCount+1,f,c
  3921                           
  3922                           ; BSR set to: 0
  3923                           ;hardware.c: 87: if (tapDispCount >= tapOnTime)
  3924  000CC4  503F               	movf	_tapOnTime,w,c
  3925  000CC6  5C11               	subwf	_tapDispCount,w,c
  3926  000CC8  5012               	movf	_tapDispCount+1,w,c
  3927  000CCA  0A80               	xorlw	128
  3928  000CCC  6E21               	movwf	??_tapLED& (0+255),c
  3929  000CCE  5040               	movf	_tapOnTime+1,w,c
  3930  000CD0  0A80               	xorlw	128
  3931  000CD2  5821               	subwfb	??_tapLED& (0+255),w,c
  3932  000CD4  A0D8               	btfss	status,0,c
  3933  000CD6  0012               	return	
  3934                           
  3935                           ; BSR set to: 0
  3936                           ;hardware.c: 88: {
  3937                           ;hardware.c: 89: tapDispCount = 0;
  3938  000CD8  0E00               	movlw	0
  3939  000CDA  6E12               	movwf	_tapDispCount+1,c
  3940  000CDC  0E00               	movlw	0
  3941  000CDE  6E11               	movwf	_tapDispCount,c
  3942                           
  3943                           ; BSR set to: 0
  3944                           ;hardware.c: 90: LATE0 = 0;
  3945  000CE0  908D               	bcf	3981,0,c	;volatile
  3946                           
  3947                           ;hardware.c: 91: tapFlash = 0;
  3948  000CE2  0E00               	movlw	0
  3949  000CE4  0100               	movlb	0	; () banked
  3950  000CE6  6F6F               	movwf	(_tapFlash+1)& (0+255),b
  3951  000CE8  0E00               	movlw	0
  3952  000CEA  6F6E               	movwf	_tapFlash& (0+255),b
  3953                           
  3954                           ; BSR set to: 0
  3955                           ;hardware.c: 92: }
  3956                           ;hardware.c: 93: }
  3957  000CEC  0012               	return	
  3958  000CEE                     i2l603:
  3959                           
  3960                           ; BSR set to: 0
  3961                           ;hardware.c: 94: else
  3962                           ;hardware.c: 95: {
  3963                           ;hardware.c: 96: tapDispCount++;
  3964                           
  3965                           ; BSR set to: 0
  3966  000CEE  4A11               	infsnz	_tapDispCount,f,c
  3967  000CF0  2A12               	incf	_tapDispCount+1,f,c
  3968                           
  3969                           ; BSR set to: 0
  3970                           ;hardware.c: 97: if (tapDispCount >= (currentTapTime-tapOnTime))
  3971  000CF2  C03F  F021         	movff	_tapOnTime,??_tapLED
  3972  000CF6  C040  F022         	movff	_tapOnTime+1,??_tapLED+1
  3973  000CFA  1E21               	comf	??_tapLED,f,c
  3974  000CFC  1E22               	comf	??_tapLED+1,f,c
  3975  000CFE  4A21               	infsnz	??_tapLED,f,c
  3976  000D00  2A22               	incf	??_tapLED+1,f,c
  3977  000D02  0100               	movlb	0	; () banked
  3978  000D04  51A1               	movf	_currentTapTime& (0+255),w,b
  3979  000D06  2621               	addwf	??_tapLED,f,c
  3980  000D08  0100               	movlb	0	; () banked
  3981  000D0A  51A2               	movf	(_currentTapTime+1)& (0+255),w,b
  3982  000D0C  2222               	addwfc	??_tapLED+1,f,c
  3983  000D0E  5021               	movf	??_tapLED,w,c
  3984  000D10  5C11               	subwf	_tapDispCount,w,c
  3985  000D12  5012               	movf	_tapDispCount+1,w,c
  3986  000D14  0A80               	xorlw	128
  3987  000D16  6E23               	movwf	(??_tapLED+2)& (0+255),c
  3988  000D18  5022               	movf	??_tapLED+1,w,c
  3989  000D1A  0A80               	xorlw	128
  3990  000D1C  5823               	subwfb	(??_tapLED+2)& (0+255),w,c
  3991  000D1E  A0D8               	btfss	status,0,c
  3992  000D20  0012               	return	
  3993                           
  3994                           ; BSR set to: 0
  3995                           ;hardware.c: 98: {
  3996                           ;hardware.c: 99: tapDispCount = 0;
  3997  000D22  0E00               	movlw	0
  3998  000D24  6E12               	movwf	_tapDispCount+1,c
  3999  000D26  0E00               	movlw	0
  4000  000D28  6E11               	movwf	_tapDispCount,c
  4001                           
  4002                           ; BSR set to: 0
  4003                           ;hardware.c: 100: LATE0 = 1;
  4004  000D2A  808D               	bsf	3981,0,c	;volatile
  4005                           
  4006                           ;hardware.c: 101: tapFlash = 1;
  4007  000D2C  0E00               	movlw	0
  4008  000D2E  0100               	movlb	0	; () banked
  4009  000D30  6F6F               	movwf	(_tapFlash+1)& (0+255),b
  4010  000D32  0E01               	movlw	1
  4011  000D34  6F6E               	movwf	_tapFlash& (0+255),b
  4012                           
  4013                           ; BSR set to: 0
  4014  000D36  0012               	return	
  4015  000D38                     __end_of_tapLED:
  4016                           	opt stack 0
  4017                           pclatu	equ	0xFFB
  4018                           pclath	equ	0xFFA
  4019                           tblptru	equ	0xFF8
  4020                           tblptrh	equ	0xFF7
  4021                           tblptrl	equ	0xFF6
  4022                           tablat	equ	0xFF5
  4023                           prodh	equ	0xFF4
  4024                           prodl	equ	0xFF3
  4025                           intcon	equ	0xFF2
  4026                           postinc0	equ	0xFEE
  4027                           fsr0h	equ	0xFEA
  4028                           fsr0l	equ	0xFE9
  4029                           wreg	equ	0xFE8
  4030                           postdec1	equ	0xFE5
  4031                           fsr1h	equ	0xFE2
  4032                           fsr1l	equ	0xFE1
  4033                           fsr2h	equ	0xFDA
  4034                           fsr2l	equ	0xFD9
  4035                           status	equ	0xFD8
  4036                           
  4037 ;; *************** function _serviceSwitches *****************
  4038 ;; Defined at:
  4039 ;;		line 165 in file "hardware.c"
  4040 ;; Parameters:    Size  Location     Type
  4041 ;;		None
  4042 ;; Auto vars:     Size  Location     Type
  4043 ;;		None
  4044 ;; Return value:  Size  Location     Type
  4045 ;;                  1    wreg      void 
  4046 ;; Registers used:
  4047 ;;		wreg, status,2, status,0, cstack
  4048 ;; Tracked objects:
  4049 ;;		On entry : 0/0
  4050 ;;		On exit  : 0/0
  4051 ;;		Unchanged: 0/0
  4052 ;; Data sizes:     COMRAM   BANK0   BANK1   BANK2   BANK3   BANK4   BANK5   BANK6   BANK7   BANK8   BANK9  BANK10  BANK1
      +1  BANK12  BANK13
  4053 ;;      Params:         0       0       0       0       0       0       0       0       0       0       0       0       
      +0       0       0
  4054 ;;      Locals:         0       0       0       0       0       0       0       0       0       0       0       0       
      +0       0       0
  4055 ;;      Temps:          0       0       0       0       0       0       0       0       0       0       0       0       
      +0       0       0
  4056 ;;      Totals:         0       0       0       0       0       0       0       0       0       0       0       0       
      +0       0       0
  4057 ;;Total ram usage:        0 bytes
  4058 ;; Hardware stack levels used:    1
  4059 ;; Hardware stack levels required when called:    2
  4060 ;; This function calls:
  4061 ;;		_processTaps
  4062 ;;		_updatePresetLEDs
  4063 ;; This function is called by:
  4064 ;;		_highPriorityISR
  4065 ;; This function uses a non-reentrant model
  4066 ;;
  4067                           
  4068                           	psect	text21
  4069  000482                     __ptext21:
  4070                           	opt stack 0
  4071  000482                     _serviceSwitches:
  4072                           	opt stack 25
  4073                           
  4074                           ;hardware.c: 167: if (fsw1)
  4075                           
  4076                           ; BSR set to: 0
  4077                           ;incstack = 0
  4078  000482  0100               	movlb	0	; () banked
  4079  000484  5174               	movf	_fsw1& (0+255),w,b
  4080  000486  0100               	movlb	0	; () banked
  4081  000488  1175               	iorwf	(_fsw1+1)& (0+255),w,b
  4082  00048A  B4D8               	btfsc	status,2,c
  4083  00048C  D023               	goto	i2u204_45
  4084                           
  4085                           ; BSR set to: 0
  4086                           ;hardware.c: 168: {
  4087                           ;hardware.c: 169: fsw1 = 0;
  4088  00048E  0E00               	movlw	0
  4089  000490  0100               	movlb	0	; () banked
  4090  000492  6F75               	movwf	(_fsw1+1)& (0+255),b
  4091  000494  0E00               	movlw	0
  4092  000496  6F74               	movwf	_fsw1& (0+255),b
  4093                           
  4094                           ; BSR set to: 0
  4095                           ;hardware.c: 170: if (!RD4)
  4096  000498  B883               	btfsc	3971,4,c	;volatile
  4097  00049A  D01C               	goto	i2u204_45
  4098                           
  4099                           ; BSR set to: 0
  4100                           ;hardware.c: 171: {
  4101                           ;hardware.c: 172: bypass ^= 1;
  4102  00049C  0E01               	movlw	1
  4103  00049E  1A15               	xorwf	_bypass,f,c
  4104                           
  4105                           ;hardware.c: 173: if (bypMode)
  4106  0004A0  0100               	movlb	0	; () banked
  4107  0004A2  51A3               	movf	_bypMode& (0+255),w,b
  4108  0004A4  0100               	movlb	0	; () banked
  4109  0004A6  11A4               	iorwf	(_bypMode+1)& (0+255),w,b
  4110  0004A8  B4D8               	btfsc	status,2,c
  4111  0004AA  D00B               	goto	i2l623
  4112                           
  4113                           ; BSR set to: 0
  4114                           ;hardware.c: 174: {
  4115                           ;hardware.c: 175: LATD3 = !bypass;
  4116  0004AC  5015               	movf	_bypass,w,c
  4117  0004AE  1016               	iorwf	_bypass+1,w,c
  4118  0004B0  A4D8               	btfss	status,2,c
  4119  0004B2  D002               	goto	i2u197_40
  4120  0004B4  868C               	bsf	3980,3,c	;volatile
  4121  0004B6  D001               	goto	i2u198_45
  4122  0004B8                     i2u197_40:
  4123  0004B8  968C               	bcf	3980,3,c	;volatile
  4124  0004BA                     i2u198_45:
  4125                           
  4126                           ;hardware.c: 176: LATB5 = bypass;
  4127  0004BA  A015               	btfss	_bypass,0,c
  4128  0004BC  D005               	goto	L4
  4129  0004BE                     i2u199_41:
  4130  0004BE  8A8A               	bsf	3978,5,c	;volatile
  4131  0004C0  D004               	goto	i2u202_45
  4132  0004C2                     i2l623:
  4133                           
  4134                           ; BSR set to: 0
  4135                           ;hardware.c: 178: else
  4136                           ;hardware.c: 179: {
  4137                           ;hardware.c: 180: LATD3 = 0;
  4138  0004C2  968C               	bcf	3980,3,c	;volatile
  4139                           
  4140                           ;hardware.c: 181: LATB5 = bypass;
  4141  0004C4  B015               	btfsc	_bypass,0,c
  4142  0004C6  D7FB               	goto	i2u199_41
  4143  0004C8                     L4:
  4144  0004C8  9A8A               	bcf	3978,5,c	;volatile
  4145  0004CA                     i2u202_45:
  4146                           
  4147                           ;hardware.c: 182: }
  4148                           ;hardware.c: 183: LATD2 = bypass;
  4149  0004CA  A015               	btfss	_bypass,0,c
  4150  0004CC  D002               	goto	i2u203_40
  4151  0004CE  848C               	bsf	3980,2,c	;volatile
  4152  0004D0  D001               	goto	i2u204_45
  4153  0004D2                     i2u203_40:
  4154  0004D2  948C               	bcf	3980,2,c	;volatile
  4155  0004D4                     i2u204_45:
  4156                           
  4157                           ;hardware.c: 184: }
  4158                           ;hardware.c: 185: }
  4159                           ;hardware.c: 187: if (fsw2)
  4160  0004D4  0100               	movlb	0	; () banked
  4161  0004D6  5172               	movf	_fsw2& (0+255),w,b
  4162  0004D8  0100               	movlb	0	; () banked
  4163  0004DA  1173               	iorwf	(_fsw2+1)& (0+255),w,b
  4164  0004DC  B4D8               	btfsc	status,2,c
  4165  0004DE  D008               	goto	i2l626
  4166                           
  4167                           ; BSR set to: 0
  4168                           ;hardware.c: 188: {
  4169                           ;hardware.c: 189: fsw2 = 0;
  4170  0004E0  0E00               	movlw	0
  4171  0004E2  0100               	movlb	0	; () banked
  4172  0004E4  6F73               	movwf	(_fsw2+1)& (0+255),b
  4173  0004E6  0E00               	movlw	0
  4174  0004E8  6F72               	movwf	_fsw2& (0+255),b
  4175                           
  4176                           ; BSR set to: 0
  4177                           ;hardware.c: 190: if (RE3)
  4178  0004EA  B684               	btfsc	3972,3,c	;volatile
  4179                           
  4180                           ; BSR set to: 0
  4181                           ;hardware.c: 191: {
  4182                           ;hardware.c: 192: processTaps();
  4183  0004EC  ECB1  F004         	call	_processTaps	;wreg free
  4184  0004F0                     i2l626:
  4185                           
  4186                           ;hardware.c: 193: }
  4187                           ;hardware.c: 194: }
  4188                           ;hardware.c: 196: if (switch1)
  4189  0004F0  5017               	movf	_switch1,w,c
  4190  0004F2  1018               	iorwf	_switch1+1,w,c
  4191  0004F4  B4D8               	btfsc	status,2,c
  4192  0004F6  D023               	goto	i2l633
  4193                           
  4194                           ;hardware.c: 197: {
  4195                           ;hardware.c: 198: switch1 = 0;
  4196  0004F8  0E00               	movlw	0
  4197  0004FA  6E18               	movwf	_switch1+1,c
  4198  0004FC  0E00               	movlw	0
  4199  0004FE  6E17               	movwf	_switch1,c
  4200                           
  4201                           ;hardware.c: 199: if (!RG1)
  4202  000500  B286               	btfsc	3974,1,c	;volatile
  4203  000502  D01D               	goto	i2l633
  4204                           
  4205                           ;hardware.c: 200: {
  4206                           ;hardware.c: 201: intA++;
  4207  000504  4A1F               	infsnz	_intA,f,c
  4208  000506  2A20               	incf	_intA+1,f,c
  4209                           
  4210                           ;hardware.c: 202: if (intA >= 3)
  4211  000508  BE20               	btfsc	_intA+1,7,c
  4212  00050A  D00A               	goto	i2l629
  4213  00050C  5020               	movf	_intA+1,w,c
  4214  00050E  E104               	bnz	i2u209_40
  4215  000510  0E03               	movlw	3
  4216  000512  5C1F               	subwf	_intA,w,c
  4217  000514  A0D8               	btfss	status,0,c
  4218  000516  D004               	goto	i2l629
  4219  000518                     i2u209_40:
  4220                           
  4221                           ;hardware.c: 203: {
  4222                           ;hardware.c: 204: intA = 0;
  4223  000518  0E00               	movlw	0
  4224  00051A  6E20               	movwf	_intA+1,c
  4225  00051C  0E00               	movlw	0
  4226  00051E  6E1F               	movwf	_intA,c
  4227  000520                     i2l629:
  4228                           
  4229                           ;hardware.c: 205: }
  4230                           ;hardware.c: 207: if (intA == 0)
  4231  000520  501F               	movf	_intA,w,c
  4232  000522  1020               	iorwf	_intA+1,w,c
  4233  000524  A4D8               	btfss	status,2,c
  4234  000526  D003               	goto	i2l630
  4235                           
  4236                           ;hardware.c: 208: {
  4237                           ;hardware.c: 209: LATH7 = 1;
  4238  000528  8E90               	bsf	3984,7,c	;volatile
  4239                           
  4240                           ;hardware.c: 210: LATF2 = 0;
  4241  00052A  948E               	bcf	3982,2,c	;volatile
  4242                           
  4243                           ;hardware.c: 211: }
  4244  00052C  D008               	goto	i2l633
  4245  00052E                     i2l630:
  4246                           
  4247                           ;hardware.c: 212: else if (intA == 1)
  4248  00052E  041F               	decf	_intA,w,c
  4249  000530  1020               	iorwf	_intA+1,w,c
  4250  000532  A4D8               	btfss	status,2,c
  4251  000534  D002               	goto	i2l632
  4252                           
  4253                           ;hardware.c: 213: {
  4254                           ;hardware.c: 214: LATH7 = 0;
  4255  000536  9E90               	bcf	3984,7,c	;volatile
  4256  000538  D001               	goto	L1
  4257  00053A                     i2l632:
  4258                           
  4259                           ;hardware.c: 217: else
  4260                           ;hardware.c: 218: {
  4261                           ;hardware.c: 219: LATH7 = 1;
  4262  00053A  8E90               	bsf	3984,7,c	;volatile
  4263  00053C                     L1:
  4264                           
  4265                           ;hardware.c: 220: LATF2 = 1;
  4266  00053C  848E               	bsf	3982,2,c	;volatile
  4267  00053E                     i2l633:
  4268                           
  4269                           ;hardware.c: 221: }
  4270                           ;hardware.c: 222: }
  4271                           ;hardware.c: 223: }
  4272                           ;hardware.c: 225: if (switch2)
  4273  00053E  0100               	movlb	0	; () banked
  4274  000540  517C               	movf	_switch2& (0+255),w,b
  4275  000542  0100               	movlb	0	; () banked
  4276  000544  117D               	iorwf	(_switch2+1)& (0+255),w,b
  4277  000546  B4D8               	btfsc	status,2,c
  4278  000548  D024               	goto	i2l640
  4279                           
  4280                           ; BSR set to: 0
  4281                           ;hardware.c: 226: {
  4282                           ;hardware.c: 227: switch2 = 0;
  4283  00054A  0E00               	movlw	0
  4284  00054C  0100               	movlb	0	; () banked
  4285  00054E  6F7D               	movwf	(_switch2+1)& (0+255),b
  4286  000550  0E00               	movlw	0
  4287  000552  6F7C               	movwf	_switch2& (0+255),b
  4288                           
  4289                           ; BSR set to: 0
  4290                           ;hardware.c: 228: if (!RG2)
  4291  000554  B486               	btfsc	3974,2,c	;volatile
  4292  000556  D01D               	goto	i2l640
  4293                           
  4294                           ; BSR set to: 0
  4295                           ;hardware.c: 229: {
  4296                           ;hardware.c: 230: intB++;
  4297  000558  4A1D               	infsnz	_intB,f,c
  4298  00055A  2A1E               	incf	_intB+1,f,c
  4299                           
  4300                           ; BSR set to: 0
  4301                           ;hardware.c: 231: if (intB >= 3)
  4302  00055C  BE1E               	btfsc	_intB+1,7,c
  4303  00055E  D00A               	goto	i2l636
  4304  000560  501E               	movf	_intB+1,w,c
  4305  000562  E104               	bnz	i2u214_40
  4306  000564  0E03               	movlw	3
  4307  000566  5C1D               	subwf	_intB,w,c
  4308  000568  A0D8               	btfss	status,0,c
  4309  00056A  D004               	goto	i2l636
  4310  00056C                     i2u214_40:
  4311                           
  4312                           ; BSR set to: 0
  4313                           ;hardware.c: 232: {
  4314                           ;hardware.c: 233: intB = 0;
  4315  00056C  0E00               	movlw	0
  4316  00056E  6E1E               	movwf	_intB+1,c
  4317  000570  0E00               	movlw	0
  4318  000572  6E1D               	movwf	_intB,c
  4319  000574                     i2l636:
  4320                           
  4321                           ; BSR set to: 0
  4322                           ;hardware.c: 234: }
  4323                           ;hardware.c: 236: if (intB == 0)
  4324                           
  4325                           ; BSR set to: 0
  4326  000574  501D               	movf	_intB,w,c
  4327  000576  101E               	iorwf	_intB+1,w,c
  4328  000578  A4D8               	btfss	status,2,c
  4329  00057A  D003               	goto	i2l637
  4330                           
  4331                           ; BSR set to: 0
  4332                           ;hardware.c: 237: {
  4333                           ;hardware.c: 238: LATF5 = 1;
  4334  00057C  8A8E               	bsf	3982,5,c	;volatile
  4335                           
  4336                           ;hardware.c: 239: LATF6 = 0;
  4337  00057E  9C8E               	bcf	3982,6,c	;volatile
  4338                           
  4339                           ;hardware.c: 240: }
  4340  000580  D008               	goto	i2l640
  4341  000582                     i2l637:
  4342                           
  4343                           ; BSR set to: 0
  4344                           ;hardware.c: 241: else if (intB == 1)
  4345                           
  4346                           ; BSR set to: 0
  4347  000582  041D               	decf	_intB,w,c
  4348  000584  101E               	iorwf	_intB+1,w,c
  4349  000586  A4D8               	btfss	status,2,c
  4350  000588  D002               	goto	i2l639
  4351                           
  4352                           ; BSR set to: 0
  4353                           ;hardware.c: 242: {
  4354                           ;hardware.c: 243: LATF5 = 0;
  4355  00058A  9A8E               	bcf	3982,5,c	;volatile
  4356  00058C  D001               	goto	L2
  4357  00058E                     i2l639:
  4358                           
  4359                           ; BSR set to: 0
  4360                           ;hardware.c: 246: else
  4361                           ;hardware.c: 247: {
  4362                           ;hardware.c: 248: LATF5 = 1;
  4363  00058E  8A8E               	bsf	3982,5,c	;volatile
  4364  000590                     L2:
  4365                           
  4366                           ;hardware.c: 249: LATF6 = 1;
  4367  000590  8C8E               	bsf	3982,6,c	;volatile
  4368  000592                     i2l640:
  4369                           
  4370                           ; BSR set to: 0
  4371                           ;hardware.c: 250: }
  4372                           ;hardware.c: 251: }
  4373                           ;hardware.c: 252: }
  4374                           ;hardware.c: 254: if (switch3)
  4375                           
  4376                           ; BSR set to: 0
  4377                           
  4378                           ; BSR set to: 0
  4379                           
  4380                           ; BSR set to: 0
  4381                           
  4382                           ; BSR set to: 0
  4383  000592  0100               	movlb	0	; () banked
  4384  000594  517A               	movf	_switch3& (0+255),w,b
  4385  000596  0100               	movlb	0	; () banked
  4386  000598  117B               	iorwf	(_switch3+1)& (0+255),w,b
  4387  00059A  B4D8               	btfsc	status,2,c
  4388  00059C  D024               	goto	i2l647
  4389                           
  4390                           ; BSR set to: 0
  4391                           ;hardware.c: 255: {
  4392                           ;hardware.c: 256: switch3 = 0;
  4393  00059E  0E00               	movlw	0
  4394  0005A0  0100               	movlb	0	; () banked
  4395  0005A2  6F7B               	movwf	(_switch3+1)& (0+255),b
  4396  0005A4  0E00               	movlw	0
  4397  0005A6  6F7A               	movwf	_switch3& (0+255),b
  4398                           
  4399                           ; BSR set to: 0
  4400                           ;hardware.c: 257: if (!RE6)
  4401  0005A8  BC84               	btfsc	3972,6,c	;volatile
  4402  0005AA  D01D               	goto	i2l647
  4403                           
  4404                           ; BSR set to: 0
  4405                           ;hardware.c: 258: {
  4406                           ;hardware.c: 259: intC++;
  4407  0005AC  4A1B               	infsnz	_intC,f,c
  4408  0005AE  2A1C               	incf	_intC+1,f,c
  4409                           
  4410                           ; BSR set to: 0
  4411                           ;hardware.c: 260: if (intC >= 3)
  4412  0005B0  BE1C               	btfsc	_intC+1,7,c
  4413  0005B2  D00A               	goto	i2l643
  4414  0005B4  501C               	movf	_intC+1,w,c
  4415  0005B6  E104               	bnz	i2u219_40
  4416  0005B8  0E03               	movlw	3
  4417  0005BA  5C1B               	subwf	_intC,w,c
  4418  0005BC  A0D8               	btfss	status,0,c
  4419  0005BE  D004               	goto	i2l643
  4420  0005C0                     i2u219_40:
  4421                           
  4422                           ; BSR set to: 0
  4423                           ;hardware.c: 261: {
  4424                           ;hardware.c: 262: intC = 0;
  4425  0005C0  0E00               	movlw	0
  4426  0005C2  6E1C               	movwf	_intC+1,c
  4427  0005C4  0E00               	movlw	0
  4428  0005C6  6E1B               	movwf	_intC,c
  4429  0005C8                     i2l643:
  4430                           
  4431                           ; BSR set to: 0
  4432                           ;hardware.c: 263: }
  4433                           ;hardware.c: 265: if (intC == 0)
  4434                           
  4435                           ; BSR set to: 0
  4436  0005C8  501B               	movf	_intC,w,c
  4437  0005CA  101C               	iorwf	_intC+1,w,c
  4438  0005CC  A4D8               	btfss	status,2,c
  4439  0005CE  D003               	goto	i2l644
  4440                           
  4441                           ; BSR set to: 0
  4442                           ;hardware.c: 266: {
  4443                           ;hardware.c: 267: LATG4 = 1;
  4444  0005D0  888F               	bsf	3983,4,c	;volatile
  4445                           
  4446                           ;hardware.c: 268: LATH0 = 0;
  4447  0005D2  9090               	bcf	3984,0,c	;volatile
  4448                           
  4449                           ;hardware.c: 269: }
  4450  0005D4  D008               	goto	i2l647
  4451  0005D6                     i2l644:
  4452                           
  4453                           ; BSR set to: 0
  4454                           ;hardware.c: 270: else if (intC == 1)
  4455                           
  4456                           ; BSR set to: 0
  4457  0005D6  041B               	decf	_intC,w,c
  4458  0005D8  101C               	iorwf	_intC+1,w,c
  4459  0005DA  A4D8               	btfss	status,2,c
  4460  0005DC  D002               	goto	i2l646
  4461                           
  4462                           ; BSR set to: 0
  4463                           ;hardware.c: 271: {
  4464                           ;hardware.c: 272: LATG4 = 0;
  4465  0005DE  988F               	bcf	3983,4,c	;volatile
  4466  0005E0  D001               	goto	L3
  4467  0005E2                     i2l646:
  4468                           
  4469                           ; BSR set to: 0
  4470                           ;hardware.c: 275: else
  4471                           ;hardware.c: 276: {
  4472                           ;hardware.c: 277: LATG4 = 1;
  4473  0005E2  888F               	bsf	3983,4,c	;volatile
  4474  0005E4                     L3:
  4475                           
  4476                           ;hardware.c: 278: LATH0 = 1;
  4477  0005E4  8090               	bsf	3984,0,c	;volatile
  4478  0005E6                     i2l647:
  4479                           
  4480                           ; BSR set to: 0
  4481                           ;hardware.c: 279: }
  4482                           ;hardware.c: 280: }
  4483                           ;hardware.c: 281: }
  4484                           ;hardware.c: 283: if (switch4)
  4485                           
  4486                           ; BSR set to: 0
  4487                           
  4488                           ; BSR set to: 0
  4489                           
  4490                           ; BSR set to: 0
  4491                           
  4492                           ; BSR set to: 0
  4493  0005E6  0100               	movlb	0	; () banked
  4494  0005E8  5178               	movf	_switch4& (0+255),w,b
  4495  0005EA  0100               	movlb	0	; () banked
  4496  0005EC  1179               	iorwf	(_switch4+1)& (0+255),w,b
  4497  0005EE  B4D8               	btfsc	status,2,c
  4498  0005F0  D01B               	goto	i2l649
  4499                           
  4500                           ; BSR set to: 0
  4501                           ;hardware.c: 284: {
  4502                           ;hardware.c: 285: switch4 = 0;
  4503  0005F2  0E00               	movlw	0
  4504  0005F4  0100               	movlb	0	; () banked
  4505  0005F6  6F79               	movwf	(_switch4+1)& (0+255),b
  4506  0005F8  0E00               	movlw	0
  4507  0005FA  6F78               	movwf	_switch4& (0+255),b
  4508                           
  4509                           ; BSR set to: 0
  4510                           ;hardware.c: 286: if (!RD1)
  4511  0005FC  B283               	btfsc	3971,1,c	;volatile
  4512  0005FE  D014               	goto	i2l649
  4513                           
  4514                           ; BSR set to: 0
  4515                           ;hardware.c: 287: {
  4516                           ;hardware.c: 288: preset++;
  4517  000600  4A13               	infsnz	_preset,f,c
  4518  000602  2A14               	incf	_preset+1,f,c
  4519                           
  4520                           ; BSR set to: 0
  4521                           ;hardware.c: 289: if (preset >= 6)
  4522  000604  BE14               	btfsc	_preset+1,7,c
  4523  000606  D00A               	goto	i2l650
  4524  000608  5014               	movf	_preset+1,w,c
  4525  00060A  E104               	bnz	i2u224_40
  4526  00060C  0E06               	movlw	6
  4527  00060E  5C13               	subwf	_preset,w,c
  4528  000610  A0D8               	btfss	status,0,c
  4529  000612  D004               	goto	i2l650
  4530  000614                     i2u224_40:
  4531                           
  4532                           ; BSR set to: 0
  4533                           ;hardware.c: 290: {
  4534                           ;hardware.c: 291: preset = 0;
  4535  000614  0E00               	movlw	0
  4536  000616  6E14               	movwf	_preset+1,c
  4537  000618  0E00               	movlw	0
  4538  00061A  6E13               	movwf	_preset,c
  4539  00061C                     i2l650:
  4540                           
  4541                           ; BSR set to: 0
  4542                           ;hardware.c: 292: }
  4543                           ;hardware.c: 293: updatePresetLEDs(preset);
  4544                           
  4545                           ; BSR set to: 0
  4546  00061C  C013  F021         	movff	_preset,updatePresetLEDs@psNum
  4547  000620  C014  F022         	movff	_preset+1,updatePresetLEDs@psNum+1
  4548  000624  ECDE  F006         	call	_updatePresetLEDs	;wreg free
  4549  000628                     i2l649:
  4550                           
  4551                           ;hardware.c: 294: }
  4552                           ;hardware.c: 295: }
  4553                           ;hardware.c: 297: if (switch5)
  4554  000628  0100               	movlb	0	; () banked
  4555  00062A  5176               	movf	_switch5& (0+255),w,b
  4556  00062C  0100               	movlb	0	; () banked
  4557  00062E  1177               	iorwf	(_switch5+1)& (0+255),w,b
  4558  000630  B4D8               	btfsc	status,2,c
  4559  000632  0012               	return	
  4560                           
  4561                           ; BSR set to: 0
  4562                           ;hardware.c: 298: {
  4563                           ;hardware.c: 299: switch5 = 0;
  4564  000634  0E00               	movlw	0
  4565  000636  0100               	movlb	0	; () banked
  4566  000638  6F77               	movwf	(_switch5+1)& (0+255),b
  4567  00063A  0E00               	movlw	0
  4568  00063C  6F76               	movwf	_switch5& (0+255),b
  4569                           
  4570                           ; BSR set to: 0
  4571                           ;hardware.c: 300: if (!RG3)
  4572  00063E  B686               	btfsc	3974,3,c	;volatile
  4573  000640  0012               	return	
  4574                           
  4575                           ; BSR set to: 0
  4576                           ;hardware.c: 301: {
  4577                           ;hardware.c: 302: swX ^= 1;
  4578  000642  0E01               	movlw	1
  4579  000644  1A19               	xorwf	_swX,f,c
  4580                           
  4581                           ; BSR set to: 0
  4582                           ;hardware.c: 303: bypMode = swX;
  4583  000646  C019  F0A3         	movff	_swX,_bypMode
  4584  00064A  C01A  F0A4         	movff	_swX+1,_bypMode+1
  4585                           
  4586                           ;hardware.c: 304: if (swX)
  4587  00064E  5019               	movf	_swX,w,c
  4588  000650  101A               	iorwf	_swX+1,w,c
  4589  000652  B4D8               	btfsc	status,2,c
  4590  000654  D003               	goto	i2l653
  4591                           
  4592                           ; BSR set to: 0
  4593                           ;hardware.c: 305: {
  4594                           ;hardware.c: 306: LATE1 = 1;
  4595  000656  828D               	bsf	3981,1,c	;volatile
  4596                           
  4597                           ;hardware.c: 307: LATH1 = 0;
  4598  000658  9290               	bcf	3984,1,c	;volatile
  4599                           
  4600                           ;hardware.c: 308: }
  4601  00065A  0012               	return	
  4602  00065C                     i2l653:
  4603                           
  4604                           ; BSR set to: 0
  4605                           ;hardware.c: 309: else
  4606                           ;hardware.c: 310: {
  4607                           ;hardware.c: 311: LATE1 = 0;
  4608  00065C  928D               	bcf	3981,1,c	;volatile
  4609                           
  4610                           ;hardware.c: 312: LATH1 = 1;
  4611  00065E  8290               	bsf	3984,1,c	;volatile
  4612                           
  4613                           ; BSR set to: 0
  4614                           
  4615                           ; BSR set to: 0
  4616  000660  0012               	return	
  4617  000662                     __end_of_serviceSwitches:
  4618                           	opt stack 0
  4619                           pclatu	equ	0xFFB
  4620                           pclath	equ	0xFFA
  4621                           tblptru	equ	0xFF8
  4622                           tblptrh	equ	0xFF7
  4623                           tblptrl	equ	0xFF6
  4624                           tablat	equ	0xFF5
  4625                           prodh	equ	0xFF4
  4626                           prodl	equ	0xFF3
  4627                           intcon	equ	0xFF2
  4628                           postinc0	equ	0xFEE
  4629                           fsr0h	equ	0xFEA
  4630                           fsr0l	equ	0xFE9
  4631                           wreg	equ	0xFE8
  4632                           postdec1	equ	0xFE5
  4633                           fsr1h	equ	0xFE2
  4634                           fsr1l	equ	0xFE1
  4635                           fsr2h	equ	0xFDA
  4636                           fsr2l	equ	0xFD9
  4637                           status	equ	0xFD8
  4638                           
  4639 ;; *************** function _updatePresetLEDs *****************
  4640 ;; Defined at:
  4641 ;;		line 485 in file "hardware.c"
  4642 ;; Parameters:    Size  Location     Type
  4643 ;;  psNum           2    0[COMRAM] int 
  4644 ;; Auto vars:     Size  Location     Type
  4645 ;;		None
  4646 ;; Return value:  Size  Location     Type
  4647 ;;                  1    wreg      void 
  4648 ;; Registers used:
  4649 ;;		wreg, status,2, status,0
  4650 ;; Tracked objects:
  4651 ;;		On entry : 0/0
  4652 ;;		On exit  : 0/0
  4653 ;;		Unchanged: 0/0
  4654 ;; Data sizes:     COMRAM   BANK0   BANK1   BANK2   BANK3   BANK4   BANK5   BANK6   BANK7   BANK8   BANK9  BANK10  BANK1
      +1  BANK12  BANK13
  4655 ;;      Params:         2       0       0       0       0       0       0       0       0       0       0       0       
      +0       0       0
  4656 ;;      Locals:         0       0       0       0       0       0       0       0       0       0       0       0       
      +0       0       0
  4657 ;;      Temps:          0       0       0       0       0       0       0       0       0       0       0       0       
      +0       0       0
  4658 ;;      Totals:         2       0       0       0       0       0       0       0       0       0       0       0       
      +0       0       0
  4659 ;;Total ram usage:        2 bytes
  4660 ;; Hardware stack levels used:    1
  4661 ;; This function calls:
  4662 ;;		Nothing
  4663 ;; This function is called by:
  4664 ;;		_serviceSwitches
  4665 ;; This function uses a non-reentrant model
  4666 ;;
  4667                           
  4668                           	psect	text22
  4669  000DBC                     __ptext22:
  4670                           	opt stack 0
  4671  000DBC                     _updatePresetLEDs:
  4672                           	opt stack 26
  4673                           
  4674                           ;hardware.c: 487: if (psNum == 1)
  4675                           
  4676                           ; BSR set to: 0
  4677                           ;incstack = 0
  4678  000DBC  0421               	decf	updatePresetLEDs@psNum,w,c
  4679  000DBE  1022               	iorwf	updatePresetLEDs@psNum+1,w,c
  4680  000DC0  A4D8               	btfss	status,2,c
  4681  000DC2  D006               	goto	i2l694
  4682                           
  4683                           ;hardware.c: 488: {
  4684                           ;hardware.c: 489: LATD0 = 1;
  4685  000DC4  808C               	bsf	3980,0,c	;volatile
  4686                           
  4687                           ;hardware.c: 490: LATE7 = 0;
  4688  000DC6  9E8D               	bcf	3981,7,c	;volatile
  4689                           
  4690                           ;hardware.c: 491: LATE5 = 0;
  4691  000DC8  9A8D               	bcf	3981,5,c	;volatile
  4692                           
  4693                           ;hardware.c: 492: LATE4 = 0;
  4694  000DCA  988D               	bcf	3981,4,c	;volatile
  4695                           
  4696                           ;hardware.c: 493: LATH2 = 0;
  4697  000DCC  9490               	bcf	3984,2,c	;volatile
  4698                           
  4699                           ;hardware.c: 494: }
  4700  000DCE  0012               	return	
  4701  000DD0                     i2l694:
  4702                           
  4703                           ;hardware.c: 495: else if (psNum == 2)
  4704  000DD0  0E02               	movlw	2
  4705  000DD2  1821               	xorwf	updatePresetLEDs@psNum,w,c
  4706  000DD4  1022               	iorwf	updatePresetLEDs@psNum+1,w,c
  4707  000DD6  A4D8               	btfss	status,2,c
  4708  000DD8  D006               	goto	i2l696
  4709                           
  4710                           ;hardware.c: 496: {
  4711                           ;hardware.c: 497: LATD0 = 0;
  4712  000DDA  908C               	bcf	3980,0,c	;volatile
  4713                           
  4714                           ;hardware.c: 498: LATE7 = 1;
  4715  000DDC  8E8D               	bsf	3981,7,c	;volatile
  4716                           
  4717                           ;hardware.c: 499: LATE5 = 0;
  4718  000DDE  9A8D               	bcf	3981,5,c	;volatile
  4719                           
  4720                           ;hardware.c: 500: LATE4 = 0;
  4721  000DE0  988D               	bcf	3981,4,c	;volatile
  4722                           
  4723                           ;hardware.c: 501: LATH2 = 0;
  4724  000DE2  9490               	bcf	3984,2,c	;volatile
  4725                           
  4726                           ;hardware.c: 502: }
  4727  000DE4  0012               	return	
  4728  000DE6                     i2l696:
  4729                           
  4730                           ;hardware.c: 503: else if (psNum == 3)
  4731  000DE6  0E03               	movlw	3
  4732  000DE8  1821               	xorwf	updatePresetLEDs@psNum,w,c
  4733  000DEA  1022               	iorwf	updatePresetLEDs@psNum+1,w,c
  4734  000DEC  A4D8               	btfss	status,2,c
  4735  000DEE  D006               	goto	i2l698
  4736                           
  4737                           ;hardware.c: 504: {
  4738                           ;hardware.c: 505: LATD0 = 0;
  4739  000DF0  908C               	bcf	3980,0,c	;volatile
  4740                           
  4741                           ;hardware.c: 506: LATE7 = 0;
  4742  000DF2  9E8D               	bcf	3981,7,c	;volatile
  4743                           
  4744                           ;hardware.c: 507: LATE5 = 1;
  4745  000DF4  8A8D               	bsf	3981,5,c	;volatile
  4746                           
  4747                           ;hardware.c: 508: LATE4 = 0;
  4748  000DF6  988D               	bcf	3981,4,c	;volatile
  4749                           
  4750                           ;hardware.c: 509: LATH2 = 0;
  4751  000DF8  9490               	bcf	3984,2,c	;volatile
  4752                           
  4753                           ;hardware.c: 510: }
  4754  000DFA  0012               	return	
  4755  000DFC                     i2l698:
  4756                           
  4757                           ;hardware.c: 511: else if (psNum == 4)
  4758  000DFC  0E04               	movlw	4
  4759  000DFE  1821               	xorwf	updatePresetLEDs@psNum,w,c
  4760  000E00  1022               	iorwf	updatePresetLEDs@psNum+1,w,c
  4761  000E02  A4D8               	btfss	status,2,c
  4762  000E04  D006               	goto	i2l700
  4763                           
  4764                           ;hardware.c: 512: {
  4765                           ;hardware.c: 513: LATD0 = 0;
  4766  000E06  908C               	bcf	3980,0,c	;volatile
  4767                           
  4768                           ;hardware.c: 514: LATE7 = 0;
  4769  000E08  9E8D               	bcf	3981,7,c	;volatile
  4770                           
  4771                           ;hardware.c: 515: LATE5 = 0;
  4772  000E0A  9A8D               	bcf	3981,5,c	;volatile
  4773                           
  4774                           ;hardware.c: 516: LATE4 = 1;
  4775  000E0C  888D               	bsf	3981,4,c	;volatile
  4776                           
  4777                           ;hardware.c: 517: LATH2 = 0;
  4778  000E0E  9490               	bcf	3984,2,c	;volatile
  4779                           
  4780                           ;hardware.c: 518: }
  4781  000E10  0012               	return	
  4782  000E12                     i2l700:
  4783                           
  4784                           ;hardware.c: 519: else if (psNum == 5)
  4785  000E12  0E05               	movlw	5
  4786  000E14  1821               	xorwf	updatePresetLEDs@psNum,w,c
  4787  000E16  1022               	iorwf	updatePresetLEDs@psNum+1,w,c
  4788  000E18  A4D8               	btfss	status,2,c
  4789  000E1A  D006               	goto	i2l702
  4790                           
  4791                           ;hardware.c: 520: {
  4792                           ;hardware.c: 521: LATD0 = 0;
  4793  000E1C  908C               	bcf	3980,0,c	;volatile
  4794                           
  4795                           ;hardware.c: 522: LATE7 = 0;
  4796  000E1E  9E8D               	bcf	3981,7,c	;volatile
  4797                           
  4798                           ;hardware.c: 523: LATE5 = 0;
  4799  000E20  9A8D               	bcf	3981,5,c	;volatile
  4800                           
  4801                           ;hardware.c: 524: LATE4 = 0;
  4802  000E22  988D               	bcf	3981,4,c	;volatile
  4803                           
  4804                           ;hardware.c: 525: LATH2 = 1;
  4805  000E24  8490               	bsf	3984,2,c	;volatile
  4806                           
  4807                           ;hardware.c: 526: }
  4808  000E26  0012               	return	
  4809  000E28                     i2l702:
  4810                           
  4811                           ;hardware.c: 527: else
  4812                           ;hardware.c: 528: {
  4813                           ;hardware.c: 529: LATD0 = 0;
  4814  000E28  908C               	bcf	3980,0,c	;volatile
  4815                           
  4816                           ;hardware.c: 530: LATE7 = 0;
  4817  000E2A  9E8D               	bcf	3981,7,c	;volatile
  4818                           
  4819                           ;hardware.c: 531: LATE5 = 0;
  4820  000E2C  9A8D               	bcf	3981,5,c	;volatile
  4821                           
  4822                           ;hardware.c: 532: LATE4 = 0;
  4823  000E2E  988D               	bcf	3981,4,c	;volatile
  4824                           
  4825                           ;hardware.c: 533: LATH2 = 0;
  4826  000E30  9490               	bcf	3984,2,c	;volatile
  4827  000E32  0012               	return	
  4828  000E34                     __end_of_updatePresetLEDs:
  4829                           	opt stack 0
  4830                           pclatu	equ	0xFFB
  4831                           pclath	equ	0xFFA
  4832                           tblptru	equ	0xFF8
  4833                           tblptrh	equ	0xFF7
  4834                           tblptrl	equ	0xFF6
  4835                           tablat	equ	0xFF5
  4836                           prodh	equ	0xFF4
  4837                           prodl	equ	0xFF3
  4838                           intcon	equ	0xFF2
  4839                           postinc0	equ	0xFEE
  4840                           fsr0h	equ	0xFEA
  4841                           fsr0l	equ	0xFE9
  4842                           wreg	equ	0xFE8
  4843                           postdec1	equ	0xFE5
  4844                           fsr1h	equ	0xFE2
  4845                           fsr1l	equ	0xFE1
  4846                           fsr2h	equ	0xFDA
  4847                           fsr2l	equ	0xFD9
  4848                           status	equ	0xFD8
  4849                           
  4850 ;; *************** function _processTaps *****************
  4851 ;; Defined at:
  4852 ;;		line 30 in file "hardware.c"
  4853 ;; Parameters:    Size  Location     Type
  4854 ;;		None
  4855 ;; Auto vars:     Size  Location     Type
  4856 ;;  tapDiff         2   10[COMRAM] int 
  4857 ;; Return value:  Size  Location     Type
  4858 ;;                  1    wreg      void 
  4859 ;; Registers used:
  4860 ;;		wreg, status,2, status,0, cstack
  4861 ;; Tracked objects:
  4862 ;;		On entry : 0/0
  4863 ;;		On exit  : 0/0
  4864 ;;		Unchanged: 0/0
  4865 ;; Data sizes:     COMRAM   BANK0   BANK1   BANK2   BANK3   BANK4   BANK5   BANK6   BANK7   BANK8   BANK9  BANK10  BANK1
      +1  BANK12  BANK13
  4866 ;;      Params:         0       0       0       0       0       0       0       0       0       0       0       0       
      +0       0       0
  4867 ;;      Locals:         2       0       0       0       0       0       0       0       0       0       0       0       
      +0       0       0
  4868 ;;      Temps:          2       0       0       0       0       0       0       0       0       0       0       0       
      +0       0       0
  4869 ;;      Totals:         4       0       0       0       0       0       0       0       0       0       0       0       
      +0       0       0
  4870 ;;Total ram usage:        4 bytes
  4871 ;; Hardware stack levels used:    1
  4872 ;; Hardware stack levels required when called:    1
  4873 ;; This function calls:
  4874 ;;		___awdiv
  4875 ;;		_maxTapCheck
  4876 ;;		i2_absVal
  4877 ;; This function is called by:
  4878 ;;		_serviceSwitches
  4879 ;; This function uses a non-reentrant model
  4880 ;;
  4881                           
  4882                           	psect	text23
  4883  000962                     __ptext23:
  4884                           	opt stack 0
  4885  000962                     _processTaps:
  4886                           	opt stack 25
  4887                           
  4888                           ;hardware.c: 32: int tapDiff = 0;
  4889                           
  4890                           ;incstack = 0
  4891  000962  0E00               	movlw	0
  4892  000964  6E2C               	movwf	processTaps@tapDiff+1,c
  4893  000966  0E00               	movlw	0
  4894  000968  6E2B               	movwf	processTaps@tapDiff,c
  4895                           
  4896                           ;hardware.c: 34: if (tap < 1)
  4897  00096A  BE04               	btfsc	_tap+1,7,c
  4898  00096C  D005               	goto	i2u169_40
  4899  00096E  5004               	movf	_tap+1,w,c
  4900  000970  E114               	bnz	i2l594
  4901  000972  0403               	decf	_tap,w,c
  4902  000974  B0D8               	btfsc	status,0,c
  4903  000976  D011               	goto	i2l594
  4904  000978                     i2u169_40:
  4905                           
  4906                           ;hardware.c: 35: {
  4907                           ;hardware.c: 36: T2CONbits.TMR2ON = 0x1;
  4908  000978  84CA               	bsf	4042,2,c	;volatile
  4909                           
  4910                           ;hardware.c: 37: tapAccum = 0;
  4911  00097A  0E00               	movlw	0
  4912  00097C  0100               	movlb	0	; () banked
  4913  00097E  6F60               	movwf	_tapAccum& (0+255),b
  4914  000980  0E00               	movlw	0
  4915  000982  6F61               	movwf	(_tapAccum+1)& (0+255),b
  4916  000984  0E00               	movlw	0
  4917  000986  6F62               	movwf	(_tapAccum+2)& (0+255),b
  4918  000988  0E00               	movlw	0
  4919  00098A  6F63               	movwf	(_tapAccum+3)& (0+255),b
  4920                           
  4921                           ;hardware.c: 38: tapPrev = 0;
  4922  00098C  0E00               	movlw	0
  4923  00098E  6E06               	movwf	_tapPrev+1,c
  4924  000990  0E00               	movlw	0
  4925  000992  6E05               	movwf	_tapPrev,c
  4926                           
  4927                           ; BSR set to: 0
  4928                           ;hardware.c: 39: tap++;
  4929  000994  4A03               	infsnz	_tap,f,c
  4930  000996  2A04               	incf	_tap+1,f,c
  4931                           
  4932                           ;hardware.c: 40: }
  4933  000998  D05C               	goto	i2l595
  4934  00099A                     i2l594:
  4935                           
  4936                           ;hardware.c: 41: else
  4937                           ;hardware.c: 42: {
  4938                           ;hardware.c: 43: T2CONbits.TMR2ON = 0;
  4939  00099A  94CA               	bcf	4042,2,c	;volatile
  4940                           
  4941                           ;hardware.c: 44: tapFlash = 1;
  4942  00099C  0E00               	movlw	0
  4943  00099E  0100               	movlb	0	; () banked
  4944  0009A0  6F6F               	movwf	(_tapFlash+1)& (0+255),b
  4945  0009A2  0E01               	movlw	1
  4946  0009A4  6F6E               	movwf	_tapFlash& (0+255),b
  4947                           
  4948                           ;hardware.c: 45: tapDispCount = 0;
  4949  0009A6  0E00               	movlw	0
  4950  0009A8  6E12               	movwf	_tapDispCount+1,c
  4951  0009AA  0E00               	movlw	0
  4952  0009AC  6E11               	movwf	_tapDispCount,c
  4953                           
  4954                           ; BSR set to: 0
  4955                           ;hardware.c: 46: LATE0 = 0x1;
  4956  0009AE  808D               	bsf	3981,0,c	;volatile
  4957                           
  4958                           ; BSR set to: 0
  4959                           ;hardware.c: 48: if (tap < 2)
  4960  0009B0  BE04               	btfsc	_tap+1,7,c
  4961  0009B2  D006               	goto	i2u170_40
  4962  0009B4  5004               	movf	_tap+1,w,c
  4963  0009B6  E111               	bnz	i2l2616
  4964  0009B8  0E02               	movlw	2
  4965  0009BA  5C03               	subwf	_tap,w,c
  4966  0009BC  B0D8               	btfsc	status,0,c
  4967  0009BE  D00D               	goto	i2l596
  4968  0009C0                     i2u170_40:
  4969                           
  4970                           ; BSR set to: 0
  4971                           ;hardware.c: 49: {
  4972                           ;hardware.c: 50: currentTapTime = tapTimeCount;
  4973  0009C0  C007  F0A1         	movff	_tapTimeCount,_currentTapTime
  4974  0009C4  C008  F0A2         	movff	_tapTimeCount+1,_currentTapTime+1
  4975                           
  4976                           ;hardware.c: 51: tapPrev = tapTimeCount;
  4977  0009C8  C007  F005         	movff	_tapTimeCount,_tapPrev
  4978  0009CC  C008  F006         	movff	_tapTimeCount+1,_tapPrev+1
  4979                           
  4980                           ; BSR set to: 0
  4981                           ;hardware.c: 52: tap++;
  4982  0009D0  4A03               	infsnz	_tap,f,c
  4983  0009D2  2A04               	incf	_tap+1,f,c
  4984                           
  4985                           ; BSR set to: 0
  4986                           ;hardware.c: 53: maxTapCheck();
  4987  0009D4  EC71  F007         	call	_maxTapCheck	;wreg free
  4988                           
  4989                           ;hardware.c: 54: }
  4990  0009D8  D03B               	goto	i2l599
  4991  0009DA                     i2l596:
  4992  0009DA                     i2l2616:
  4993                           
  4994                           ;hardware.c: 55: else
  4995                           ;hardware.c: 56: {
  4996                           ;hardware.c: 57: tapDiff = tapTimeCount - tapPrev;
  4997  0009DA  C005  F029         	movff	_tapPrev,??_processTaps
  4998  0009DE  C006  F02A         	movff	_tapPrev+1,??_processTaps+1
  4999  0009E2  1E29               	comf	??_processTaps,f,c
  5000  0009E4  1E2A               	comf	??_processTaps+1,f,c
  5001  0009E6  4A29               	infsnz	??_processTaps,f,c
  5002  0009E8  2A2A               	incf	??_processTaps+1,f,c
  5003  0009EA  5007               	movf	_tapTimeCount,w,c
  5004  0009EC  2429               	addwf	??_processTaps,w,c
  5005  0009EE  6E2B               	movwf	processTaps@tapDiff,c
  5006  0009F0  5008               	movf	_tapTimeCount+1,w,c
  5007  0009F2  202A               	addwfc	??_processTaps+1,w,c
  5008  0009F4  6E2C               	movwf	processTaps@tapDiff+1,c
  5009                           
  5010                           ;hardware.c: 58: tapDiff = absVal(tapDiff);
  5011  0009F6  C02B  F021         	movff	processTaps@tapDiff,i2absVal@val
  5012  0009FA  C02C  F022         	movff	processTaps@tapDiff+1,i2absVal@val+1
  5013  0009FE  EC2B  F008         	call	i2_absVal	;wreg free
  5014  000A02  C021  F02B         	movff	?i2_absVal,processTaps@tapDiff
  5015  000A06  C022  F02C         	movff	?i2_absVal+1,processTaps@tapDiff+1
  5016                           
  5017                           ;hardware.c: 59: if (tapDiff >= 500)
  5018  000A0A  BE2C               	btfsc	processTaps@tapDiff+1,7,c
  5019  000A0C  D00B               	goto	i2l598
  5020  000A0E  0EF4               	movlw	244
  5021  000A10  5C2B               	subwf	processTaps@tapDiff,w,c
  5022  000A12  0E01               	movlw	1
  5023  000A14  582C               	subwfb	processTaps@tapDiff+1,w,c
  5024  000A16  A0D8               	btfss	status,0,c
  5025  000A18  D005               	goto	i2l598
  5026                           
  5027                           ;hardware.c: 60: {
  5028                           ;hardware.c: 61: tap = 1;
  5029  000A1A  0E00               	movlw	0
  5030  000A1C  6E04               	movwf	_tap+1,c
  5031  000A1E  0E01               	movlw	1
  5032  000A20  6E03               	movwf	_tap,c
  5033                           
  5034                           ;hardware.c: 62: }
  5035  000A22  D016               	goto	i2l599
  5036  000A24                     i2l598:
  5037                           
  5038                           ;hardware.c: 63: else
  5039                           ;hardware.c: 64: {
  5040                           ;hardware.c: 65: currentTapTime = (tapTimeCount + tapPrev)/2;
  5041  000A24  5005               	movf	_tapPrev,w,c
  5042  000A26  2407               	addwf	_tapTimeCount,w,c
  5043  000A28  6E21               	movwf	___awdiv@dividend,c
  5044  000A2A  5006               	movf	_tapPrev+1,w,c
  5045  000A2C  2008               	addwfc	_tapTimeCount+1,w,c
  5046  000A2E  6E22               	movwf	___awdiv@dividend+1,c
  5047  000A30  0E00               	movlw	0
  5048  000A32  6E24               	movwf	___awdiv@divisor+1,c
  5049  000A34  0E02               	movlw	2
  5050  000A36  6E23               	movwf	___awdiv@divisor,c
  5051  000A38  EC9C  F006         	call	___awdiv	;wreg free
  5052  000A3C  C021  F0A1         	movff	?___awdiv,_currentTapTime
  5053  000A40  C022  F0A2         	movff	?___awdiv+1,_currentTapTime+1
  5054                           
  5055                           ;hardware.c: 66: tapPrev = tapTimeCount;
  5056  000A44  C007  F005         	movff	_tapTimeCount,_tapPrev
  5057  000A48  C008  F006         	movff	_tapTimeCount+1,_tapPrev+1
  5058                           
  5059                           ;hardware.c: 67: tap++;
  5060  000A4C  4A03               	infsnz	_tap,f,c
  5061  000A4E  2A04               	incf	_tap+1,f,c
  5062  000A50                     i2l599:
  5063                           
  5064                           ;hardware.c: 68: }
  5065                           ;hardware.c: 69: }
  5066                           ;hardware.c: 70: T2CONbits.TMR2ON = 1;
  5067  000A50  84CA               	bsf	4042,2,c	;volatile
  5068  000A52                     i2l595:
  5069                           
  5070                           ;hardware.c: 71: }
  5071                           ;hardware.c: 72: tapTimeCount = 0;
  5072  000A52  0E00               	movlw	0
  5073  000A54  6E08               	movwf	_tapTimeCount+1,c
  5074  000A56  0E00               	movlw	0
  5075  000A58  6E07               	movwf	_tapTimeCount,c
  5076  000A5A  0012               	return		;funcret
  5077  000A5C                     __end_of_processTaps:
  5078                           	opt stack 0
  5079                           pclatu	equ	0xFFB
  5080                           pclath	equ	0xFFA
  5081                           tblptru	equ	0xFF8
  5082                           tblptrh	equ	0xFF7
  5083                           tblptrl	equ	0xFF6
  5084                           tablat	equ	0xFF5
  5085                           prodh	equ	0xFF4
  5086                           prodl	equ	0xFF3
  5087                           intcon	equ	0xFF2
  5088                           postinc0	equ	0xFEE
  5089                           fsr0h	equ	0xFEA
  5090                           fsr0l	equ	0xFE9
  5091                           wreg	equ	0xFE8
  5092                           postdec1	equ	0xFE5
  5093                           fsr1h	equ	0xFE2
  5094                           fsr1l	equ	0xFE1
  5095                           fsr2h	equ	0xFDA
  5096                           fsr2l	equ	0xFD9
  5097                           status	equ	0xFD8
  5098                           
  5099 ;; *************** function i2_absVal *****************
  5100 ;; Defined at:
  5101 ;;		line 160 in file "main.c"
  5102 ;; Parameters:    Size  Location     Type
  5103 ;;  val             2    0[COMRAM] int 
  5104 ;; Auto vars:     Size  Location     Type
  5105 ;;		None
  5106 ;; Return value:  Size  Location     Type
  5107 ;;                  2    0[COMRAM] int 
  5108 ;; Registers used:
  5109 ;;		wreg, status,2, status,0
  5110 ;; Tracked objects:
  5111 ;;		On entry : 0/0
  5112 ;;		On exit  : 0/0
  5113 ;;		Unchanged: 0/0
  5114 ;; Data sizes:     COMRAM   BANK0   BANK1   BANK2   BANK3   BANK4   BANK5   BANK6   BANK7   BANK8   BANK9  BANK10  BANK1
      +1  BANK12  BANK13
  5115 ;;      Params:         2       0       0       0       0       0       0       0       0       0       0       0       
      +0       0       0
  5116 ;;      Locals:         0       0       0       0       0       0       0       0       0       0       0       0       
      +0       0       0
  5117 ;;      Temps:          2       0       0       0       0       0       0       0       0       0       0       0       
      +0       0       0
  5118 ;;      Totals:         4       0       0       0       0       0       0       0       0       0       0       0       
      +0       0       0
  5119 ;;Total ram usage:        4 bytes
  5120 ;; Hardware stack levels used:    1
  5121 ;; This function calls:
  5122 ;;		Nothing
  5123 ;; This function is called by:
  5124 ;;		_processTaps
  5125 ;; This function uses a non-reentrant model
  5126 ;;
  5127                           
  5128                           	psect	text24
  5129  001056                     __ptext24:
  5130                           	opt stack 0
  5131  001056                     i2_absVal:
  5132                           	opt stack 25
  5133                           
  5134                           ;main.c: 162: if (val < 0)
  5135                           
  5136                           ;incstack = 0
  5137  001056  AE22               	btfss	i2absVal@val+1,7,c
  5138  001058  D00D               	goto	i2l112
  5139                           
  5140                           ;main.c: 163: return -val;
  5141  00105A  C021  F023         	movff	i2absVal@val,??i2_absVal
  5142  00105E  C022  F024         	movff	i2absVal@val+1,??i2_absVal+1
  5143  001062  1E23               	comf	??i2_absVal,f,c
  5144  001064  1E24               	comf	??i2_absVal+1,f,c
  5145  001066  4A23               	infsnz	??i2_absVal,f,c
  5146  001068  2A24               	incf	??i2_absVal+1,f,c
  5147  00106A  C023  F021         	movff	??i2_absVal,?i2_absVal
  5148  00106E  C024  F022         	movff	??i2_absVal+1,?i2_absVal+1
  5149  001072  0012               	return	
  5150  001074                     i2l112:
  5151                           
  5152                           ;main.c: 164: else return val;
  5153  001074  C021  F021         	movff	i2absVal@val,?i2_absVal
  5154  001078  C022  F022         	movff	i2absVal@val+1,?i2_absVal+1
  5155  00107C  0012               	return	
  5156  00107E                     __end_ofi2_absVal:
  5157                           	opt stack 0
  5158                           pclatu	equ	0xFFB
  5159                           pclath	equ	0xFFA
  5160                           tblptru	equ	0xFF8
  5161                           tblptrh	equ	0xFF7
  5162                           tblptrl	equ	0xFF6
  5163                           tablat	equ	0xFF5
  5164                           prodh	equ	0xFF4
  5165                           prodl	equ	0xFF3
  5166                           intcon	equ	0xFF2
  5167                           postinc0	equ	0xFEE
  5168                           fsr0h	equ	0xFEA
  5169                           fsr0l	equ	0xFE9
  5170                           wreg	equ	0xFE8
  5171                           postdec1	equ	0xFE5
  5172                           fsr1h	equ	0xFE2
  5173                           fsr1l	equ	0xFE1
  5174                           fsr2h	equ	0xFDA
  5175                           fsr2l	equ	0xFD9
  5176                           status	equ	0xFD8
  5177                           
  5178 ;; *************** function _maxTapCheck *****************
  5179 ;; Defined at:
  5180 ;;		line 15 in file "hardware.c"
  5181 ;; Parameters:    Size  Location     Type
  5182 ;;		None
  5183 ;; Auto vars:     Size  Location     Type
  5184 ;;		None
  5185 ;; Return value:  Size  Location     Type
  5186 ;;                  1    wreg      void 
  5187 ;; Registers used:
  5188 ;;		wreg, status,2, status,0
  5189 ;; Tracked objects:
  5190 ;;		On entry : 0/0
  5191 ;;		On exit  : 0/0
  5192 ;;		Unchanged: 0/0
  5193 ;; Data sizes:     COMRAM   BANK0   BANK1   BANK2   BANK3   BANK4   BANK5   BANK6   BANK7   BANK8   BANK9  BANK10  BANK1
      +1  BANK12  BANK13
  5194 ;;      Params:         0       0       0       0       0       0       0       0       0       0       0       0       
      +0       0       0
  5195 ;;      Locals:         0       0       0       0       0       0       0       0       0       0       0       0       
      +0       0       0
  5196 ;;      Temps:          0       0       0       0       0       0       0       0       0       0       0       0       
      +0       0       0
  5197 ;;      Totals:         0       0       0       0       0       0       0       0       0       0       0       0       
      +0       0       0
  5198 ;;Total ram usage:        0 bytes
  5199 ;; Hardware stack levels used:    1
  5200 ;; This function calls:
  5201 ;;		Nothing
  5202 ;; This function is called by:
  5203 ;;		_processTaps
  5204 ;; This function uses a non-reentrant model
  5205 ;;
  5206                           
  5207                           	psect	text25
  5208  000EE2                     __ptext25:
  5209                           	opt stack 0
  5210  000EE2                     _maxTapCheck:
  5211                           	opt stack 25
  5212                           
  5213                           ;hardware.c: 17: if (tapTimeCount > 3000)
  5214                           
  5215                           ;incstack = 0
  5216  000EE2  BE08               	btfsc	_tapTimeCount+1,7,c
  5217  000EE4  D00F               	goto	i2l588
  5218  000EE6  0EB9               	movlw	185
  5219  000EE8  5C07               	subwf	_tapTimeCount,w,c
  5220  000EEA  0E0B               	movlw	11
  5221  000EEC  5808               	subwfb	_tapTimeCount+1,w,c
  5222  000EEE  A0D8               	btfss	status,0,c
  5223  000EF0  D009               	goto	i2l588
  5224                           
  5225                           ;hardware.c: 18: {
  5226                           ;hardware.c: 19: tapTimeCount = 0;
  5227  000EF2  0E00               	movlw	0
  5228  000EF4  6E08               	movwf	_tapTimeCount+1,c
  5229  000EF6  0E00               	movlw	0
  5230  000EF8  6E07               	movwf	_tapTimeCount,c
  5231                           
  5232                           ;hardware.c: 20: tap = 0;
  5233  000EFA  0E00               	movlw	0
  5234  000EFC  6E04               	movwf	_tap+1,c
  5235  000EFE  0E00               	movlw	0
  5236  000F00  6E03               	movwf	_tap,c
  5237                           
  5238                           ;hardware.c: 21: }
  5239  000F02  0012               	return	
  5240  000F04                     i2l588:
  5241                           
  5242                           ;hardware.c: 22: else if (tapTimeCount >= 1500)
  5243  000F04  BE08               	btfsc	_tapTimeCount+1,7,c
  5244  000F06  0012               	return	
  5245  000F08  0EDC               	movlw	220
  5246  000F0A  5C07               	subwf	_tapTimeCount,w,c
  5247  000F0C  0E05               	movlw	5
  5248  000F0E  5808               	subwfb	_tapTimeCount+1,w,c
  5249  000F10  A0D8               	btfss	status,0,c
  5250  000F12  0012               	return	
  5251                           
  5252                           ;hardware.c: 23: {
  5253                           ;hardware.c: 24: newTempo = 1;
  5254  000F14  0E00               	movlw	0
  5255  000F16  0100               	movlb	0	; () banked
  5256  000F18  6F67               	movwf	(_newTempo+1)& (0+255),b
  5257  000F1A  0E01               	movlw	1
  5258  000F1C  6F66               	movwf	_newTempo& (0+255),b
  5259                           
  5260                           ;hardware.c: 25: tap = 0;
  5261  000F1E  0E00               	movlw	0
  5262  000F20  6E04               	movwf	_tap+1,c
  5263  000F22  0E00               	movlw	0
  5264  000F24  6E03               	movwf	_tap,c
  5265                           
  5266                           ;hardware.c: 26: currentTapTime = 1500;
  5267  000F26  0E05               	movlw	5
  5268  000F28  0100               	movlb	0	; () banked
  5269  000F2A  6FA2               	movwf	(_currentTapTime+1)& (0+255),b
  5270  000F2C  0EDC               	movlw	220
  5271  000F2E  6FA1               	movwf	_currentTapTime& (0+255),b
  5272                           
  5273                           ; BSR set to: 0
  5274  000F30  0012               	return	
  5275  000F32                     __end_of_maxTapCheck:
  5276                           	opt stack 0
  5277                           pclatu	equ	0xFFB
  5278                           pclath	equ	0xFFA
  5279                           tblptru	equ	0xFF8
  5280                           tblptrh	equ	0xFF7
  5281                           tblptrl	equ	0xFF6
  5282                           tablat	equ	0xFF5
  5283                           prodh	equ	0xFF4
  5284                           prodl	equ	0xFF3
  5285                           intcon	equ	0xFF2
  5286                           postinc0	equ	0xFEE
  5287                           fsr0h	equ	0xFEA
  5288                           fsr0l	equ	0xFE9
  5289                           wreg	equ	0xFE8
  5290                           postdec1	equ	0xFE5
  5291                           fsr1h	equ	0xFE2
  5292                           fsr1l	equ	0xFE1
  5293                           fsr2h	equ	0xFDA
  5294                           fsr2l	equ	0xFD9
  5295                           status	equ	0xFD8
  5296                           
  5297 ;; *************** function ___awdiv *****************
  5298 ;; Defined at:
  5299 ;;		line 8 in file "/Applications/microchip/xc8/v1.43/sources/common/awdiv.c"
  5300 ;; Parameters:    Size  Location     Type
  5301 ;;  dividend        2    0[COMRAM] int 
  5302 ;;  divisor         2    2[COMRAM] int 
  5303 ;; Auto vars:     Size  Location     Type
  5304 ;;  quotient        2    6[COMRAM] int 
  5305 ;;  sign            1    5[COMRAM] unsigned char 
  5306 ;;  counter         1    4[COMRAM] unsigned char 
  5307 ;; Return value:  Size  Location     Type
  5308 ;;                  2    0[COMRAM] int 
  5309 ;; Registers used:
  5310 ;;		wreg, status,2, status,0
  5311 ;; Tracked objects:
  5312 ;;		On entry : 0/0
  5313 ;;		On exit  : 0/0
  5314 ;;		Unchanged: 0/0
  5315 ;; Data sizes:     COMRAM   BANK0   BANK1   BANK2   BANK3   BANK4   BANK5   BANK6   BANK7   BANK8   BANK9  BANK10  BANK1
      +1  BANK12  BANK13
  5316 ;;      Params:         4       0       0       0       0       0       0       0       0       0       0       0       
      +0       0       0
  5317 ;;      Locals:         4       0       0       0       0       0       0       0       0       0       0       0       
      +0       0       0
  5318 ;;      Temps:          0       0       0       0       0       0       0       0       0       0       0       0       
      +0       0       0
  5319 ;;      Totals:         8       0       0       0       0       0       0       0       0       0       0       0       
      +0       0       0
  5320 ;;Total ram usage:        8 bytes
  5321 ;; Hardware stack levels used:    1
  5322 ;; This function calls:
  5323 ;;		Nothing
  5324 ;; This function is called by:
  5325 ;;		_processTaps
  5326 ;; This function uses a non-reentrant model
  5327 ;;
  5328                           
  5329                           	psect	text26
  5330  000D38                     __ptext26:
  5331                           	opt stack 0
  5332  000D38                     ___awdiv:
  5333                           	opt stack 25
  5334                           
  5335                           ;incstack = 0
  5336  000D38  0E00               	movlw	0
  5337  000D3A  6E26               	movwf	___awdiv@sign,c
  5338  000D3C  AE24               	btfss	___awdiv@divisor+1,7,c
  5339  000D3E  D006               	goto	i2l1072
  5340  000D40  6C23               	negf	___awdiv@divisor,c
  5341  000D42  1E24               	comf	___awdiv@divisor+1,f,c
  5342  000D44  B0D8               	btfsc	status,0,c
  5343  000D46  2A24               	incf	___awdiv@divisor+1,f,c
  5344  000D48  0E01               	movlw	1
  5345  000D4A  6E26               	movwf	___awdiv@sign,c
  5346  000D4C                     i2l1072:
  5347  000D4C  AE22               	btfss	___awdiv@dividend+1,7,c
  5348  000D4E  D006               	goto	i2l1073
  5349  000D50  6C21               	negf	___awdiv@dividend,c
  5350  000D52  1E22               	comf	___awdiv@dividend+1,f,c
  5351  000D54  B0D8               	btfsc	status,0,c
  5352  000D56  2A22               	incf	___awdiv@dividend+1,f,c
  5353  000D58  0E01               	movlw	1
  5354  000D5A  1A26               	xorwf	___awdiv@sign,f,c
  5355  000D5C                     i2l1073:
  5356  000D5C  0E00               	movlw	0
  5357  000D5E  6E28               	movwf	___awdiv@quotient+1,c
  5358  000D60  0E00               	movlw	0
  5359  000D62  6E27               	movwf	___awdiv@quotient,c
  5360  000D64  5023               	movf	___awdiv@divisor,w,c
  5361  000D66  1024               	iorwf	___awdiv@divisor+1,w,c
  5362  000D68  B4D8               	btfsc	status,2,c
  5363  000D6A  D01C               	goto	i2l1080
  5364  000D6C  0E01               	movlw	1
  5365  000D6E  6E25               	movwf	___awdiv@counter,c
  5366  000D70  D004               	goto	i2l1075
  5367  000D72  90D8               	bcf	status,0,c
  5368  000D74  3623               	rlcf	___awdiv@divisor,f,c
  5369  000D76  3624               	rlcf	___awdiv@divisor+1,f,c
  5370  000D78  2A25               	incf	___awdiv@counter,f,c
  5371  000D7A                     i2l1075:
  5372  000D7A  AE24               	btfss	___awdiv@divisor+1,7,c
  5373  000D7C  D7FA               	goto	i2l1076
  5374  000D7E                     i2u163_40:
  5375  000D7E  90D8               	bcf	status,0,c
  5376  000D80  3627               	rlcf	___awdiv@quotient,f,c
  5377  000D82  3628               	rlcf	___awdiv@quotient+1,f,c
  5378  000D84  5023               	movf	___awdiv@divisor,w,c
  5379  000D86  5C21               	subwf	___awdiv@dividend,w,c
  5380  000D88  5024               	movf	___awdiv@divisor+1,w,c
  5381  000D8A  5822               	subwfb	___awdiv@dividend+1,w,c
  5382  000D8C  A0D8               	btfss	status,0,c
  5383  000D8E  D005               	goto	i2l1079
  5384  000D90  5023               	movf	___awdiv@divisor,w,c
  5385  000D92  5E21               	subwf	___awdiv@dividend,f,c
  5386  000D94  5024               	movf	___awdiv@divisor+1,w,c
  5387  000D96  5A22               	subwfb	___awdiv@dividend+1,f,c
  5388  000D98  8027               	bsf	___awdiv@quotient,0,c
  5389  000D9A                     i2l1079:
  5390  000D9A  90D8               	bcf	status,0,c
  5391  000D9C  3224               	rrcf	___awdiv@divisor+1,f,c
  5392  000D9E  3223               	rrcf	___awdiv@divisor,f,c
  5393  000DA0  2E25               	decfsz	___awdiv@counter,f,c
  5394  000DA2  D7ED               	goto	i2u163_40
  5395  000DA4                     i2l1080:
  5396  000DA4  5026               	movf	___awdiv@sign,w,c
  5397  000DA6  B4D8               	btfsc	status,2,c
  5398  000DA8  D004               	goto	i2l1081
  5399  000DAA  6C27               	negf	___awdiv@quotient,c
  5400  000DAC  1E28               	comf	___awdiv@quotient+1,f,c
  5401  000DAE  B0D8               	btfsc	status,0,c
  5402  000DB0  2A28               	incf	___awdiv@quotient+1,f,c
  5403  000DB2                     i2l1081:
  5404  000DB2  C027  F021         	movff	___awdiv@quotient,?___awdiv
  5405  000DB6  C028  F022         	movff	___awdiv@quotient+1,?___awdiv+1
  5406  000DBA  0012               	return	
  5407  000DBC                     __end_of___awdiv:
  5408                           	opt stack 0
  5409                           pclatu	equ	0xFFB
  5410                           pclath	equ	0xFFA
  5411                           tblptru	equ	0xFF8
  5412                           tblptrh	equ	0xFF7
  5413                           tblptrl	equ	0xFF6
  5414                           tablat	equ	0xFF5
  5415                           prodh	equ	0xFF4
  5416                           prodl	equ	0xFF3
  5417                           intcon	equ	0xFF2
  5418                           postinc0	equ	0xFEE
  5419                           fsr0h	equ	0xFEA
  5420                           fsr0l	equ	0xFE9
  5421                           wreg	equ	0xFE8
  5422                           postdec1	equ	0xFE5
  5423                           fsr1h	equ	0xFE2
  5424                           fsr1l	equ	0xFE1
  5425                           fsr2h	equ	0xFDA
  5426                           fsr2l	equ	0xFD9
  5427                           status	equ	0xFD8
  5428                           
  5429 ;; *************** function _sendParam *****************
  5430 ;; Defined at:
  5431 ;;		line 129 in file "serial.c"
  5432 ;; Parameters:    Size  Location     Type
  5433 ;;		None
  5434 ;; Auto vars:     Size  Location     Type
  5435 ;;  byte            2    2[COMRAM] int 
  5436 ;; Return value:  Size  Location     Type
  5437 ;;                  1    wreg      void 
  5438 ;; Registers used:
  5439 ;;		wreg, status,2, status,0
  5440 ;; Tracked objects:
  5441 ;;		On entry : 0/0
  5442 ;;		On exit  : 0/0
  5443 ;;		Unchanged: 0/0
  5444 ;; Data sizes:     COMRAM   BANK0   BANK1   BANK2   BANK3   BANK4   BANK5   BANK6   BANK7   BANK8   BANK9  BANK10  BANK1
      +1  BANK12  BANK13
  5445 ;;      Params:         0       0       0       0       0       0       0       0       0       0       0       0       
      +0       0       0
  5446 ;;      Locals:         2       0       0       0       0       0       0       0       0       0       0       0       
      +0       0       0
  5447 ;;      Temps:          2       0       0       0       0       0       0       0       0       0       0       0       
      +0       0       0
  5448 ;;      Totals:         4       0       0       0       0       0       0       0       0       0       0       0       
      +0       0       0
  5449 ;;Total ram usage:        4 bytes
  5450 ;; Hardware stack levels used:    1
  5451 ;; This function calls:
  5452 ;;		Nothing
  5453 ;; This function is called by:
  5454 ;;		_highPriorityISR
  5455 ;; This function uses a non-reentrant model
  5456 ;;
  5457                           
  5458                           	psect	text27
  5459  000A5C                     __ptext27:
  5460                           	opt stack 0
  5461  000A5C                     _sendParam:
  5462                           	opt stack 27
  5463                           
  5464                           ;serial.c: 131: int byte = 0;
  5465                           
  5466                           ;incstack = 0
  5467  000A5C  0E00               	movlw	0
  5468  000A5E  6E24               	movwf	sendParam@byte+1,c
  5469  000A60  0E00               	movlw	0
  5470  000A62  6E23               	movwf	sendParam@byte,c
  5471                           
  5472                           ;serial.c: 133: dataTarget = SSP2BUF;
  5473  000A64  CF03 F00F          	movff	3843,_dataTarget	;volatile
  5474  000A68  6A10               	clrf	_dataTarget+1,c
  5475  000A6A  010F               	movlb	15	; () banked
  5476  000A6C  B11A               	btfsc	26,0,b	;volatile
  5477  000A6E  D7FD               	goto	i2l893
  5478                           
  5479                           ; BSR set to: 15
  5480                           ;serial.c: 137: if (dataTarget == 0xAC)
  5481                           
  5482                           ; BSR set to: 15
  5483  000A70  0EAC               	movlw	172
  5484  000A72  180F               	xorwf	_dataTarget,w,c
  5485  000A74  1010               	iorwf	_dataTarget+1,w,c
  5486  000A76  A4D8               	btfss	status,2,c
  5487  000A78  D005               	goto	i2l895
  5488                           
  5489                           ; BSR set to: 15
  5490                           ;serial.c: 138: {
  5491                           ;serial.c: 139: dataPtr = setupComplete;
  5492  000A7A  C001  F06A         	movff	_setupComplete,_dataPtr
  5493  000A7E  C002  F06B         	movff	_setupComplete+1,_dataPtr+1
  5494                           
  5495                           ;serial.c: 140: }
  5496  000A82  D033               	goto	i2l901
  5497  000A84                     i2l895:
  5498                           
  5499                           ; BSR set to: 15
  5500                           ;serial.c: 141: else if (dataTarget == 0xA1)
  5501                           
  5502                           ; BSR set to: 15
  5503  000A84  0EA1               	movlw	161
  5504  000A86  180F               	xorwf	_dataTarget,w,c
  5505  000A88  1010               	iorwf	_dataTarget+1,w,c
  5506  000A8A  A4D8               	btfss	status,2,c
  5507  000A8C  D005               	goto	i2l897
  5508                           
  5509                           ; BSR set to: 15
  5510                           ;serial.c: 142: {
  5511                           ;serial.c: 143: dataPtr = feedbackValue;
  5512  000A8E  C00D  F06A         	movff	_feedbackValue,_dataPtr
  5513  000A92  C00E  F06B         	movff	_feedbackValue+1,_dataPtr+1
  5514                           
  5515                           ;serial.c: 144: }
  5516  000A96  D029               	goto	i2l901
  5517  000A98                     i2l897:
  5518                           
  5519                           ; BSR set to: 15
  5520                           ;serial.c: 145: else if (dataTarget == 0xA5)
  5521                           
  5522                           ; BSR set to: 15
  5523  000A98  0EA5               	movlw	165
  5524  000A9A  180F               	xorwf	_dataTarget,w,c
  5525  000A9C  1010               	iorwf	_dataTarget+1,w,c
  5526  000A9E  A4D8               	btfss	status,2,c
  5527  000AA0  D005               	goto	i2l899
  5528                           
  5529                           ; BSR set to: 15
  5530                           ;serial.c: 146: {
  5531                           ;serial.c: 147: dataPtr = levelValue;
  5532  000AA2  C00B  F06A         	movff	_levelValue,_dataPtr
  5533  000AA6  C00C  F06B         	movff	_levelValue+1,_dataPtr+1
  5534                           
  5535                           ;serial.c: 148: }
  5536  000AAA  D01F               	goto	i2l901
  5537  000AAC                     i2l899:
  5538                           
  5539                           ; BSR set to: 15
  5540                           ;serial.c: 149: else if (dataTarget == 0xA9)
  5541                           
  5542                           ; BSR set to: 15
  5543  000AAC  0EA9               	movlw	169
  5544  000AAE  180F               	xorwf	_dataTarget,w,c
  5545  000AB0  1010               	iorwf	_dataTarget+1,w,c
  5546  000AB2  A4D8               	btfss	status,2,c
  5547  000AB4  D01A               	goto	i2l901
  5548                           
  5549                           ; BSR set to: 15
  5550                           ;serial.c: 150: {
  5551                           ;serial.c: 151: if (!hiLo)
  5552  000AB6  0100               	movlb	0	; () banked
  5553  000AB8  516C               	movf	_hiLo& (0+255),w,b
  5554  000ABA  0100               	movlb	0	; () banked
  5555  000ABC  116D               	iorwf	(_hiLo+1)& (0+255),w,b
  5556  000ABE  A4D8               	btfss	status,2,c
  5557  000AC0  D004               	goto	i2l902
  5558                           
  5559                           ; BSR set to: 0
  5560                           ;serial.c: 152: {
  5561                           ;serial.c: 153: byte = (timeValue & 0xFF);
  5562  000AC2  5009               	movf	_timeValue,w,c
  5563  000AC4  6E23               	movwf	sendParam@byte,c
  5564  000AC6  6A24               	clrf	sendParam@byte+1,c
  5565  000AC8  D009               	goto	i2l2680
  5566  000ACA                     i2l902:
  5567                           
  5568                           ; BSR set to: 0
  5569                           ;serial.c: 156: else
  5570                           ;serial.c: 157: {
  5571                           ;serial.c: 158: byte = timeValue>>8;
  5572                           
  5573                           ; BSR set to: 0
  5574  000ACA  C00A  F021         	movff	_timeValue+1,??_sendParam
  5575  000ACE  6A22               	clrf	(??_sendParam+1)& (0+255),c
  5576  000AD0  BE21               	btfsc	??_sendParam& (0+255),7,c
  5577  000AD2  6822               	setf	(??_sendParam+1)& (0+255),c
  5578  000AD4  C021  F023         	movff	??_sendParam,sendParam@byte
  5579  000AD8  C022  F024         	movff	??_sendParam+1,sendParam@byte+1
  5580  000ADC                     i2l2680:
  5581                           
  5582                           ; BSR set to: 0
  5583                           ;serial.c: 159: dataPtr = byte;
  5584  000ADC  C023  F06A         	movff	sendParam@byte,_dataPtr
  5585  000AE0  C024  F06B         	movff	sendParam@byte+1,_dataPtr+1
  5586                           
  5587                           ; BSR set to: 0
  5588                           ;serial.c: 160: }
  5589                           ;serial.c: 161: hiLo ^= 1;
  5590                           
  5591                           ; BSR set to: 0
  5592  000AE4  0E01               	movlw	1
  5593  000AE6  0100               	movlb	0	; () banked
  5594  000AE8  1B6C               	xorwf	_hiLo& (0+255),f,b
  5595  000AEA                     i2l901:
  5596                           
  5597                           ;serial.c: 162: }
  5598                           ;serial.c: 164: SSP2BUF = dataPtr;
  5599                           
  5600                           ; BSR set to: 0
  5601                           
  5602                           ; BSR set to: 0
  5603                           
  5604                           ; BSR set to: 0
  5605                           
  5606                           ; BSR set to: 0
  5607  000AEA  C06A  FF03         	movff	_dataPtr,3843	;volatile
  5608                           
  5609                           ;serial.c: 165: dataTarget ^= 1;
  5610  000AEE  0E01               	movlw	1
  5611  000AF0  1A0F               	xorwf	_dataTarget,f,c
  5612                           
  5613                           ;serial.c: 166: SSP2CON1bits.CKP = 0x1;
  5614  000AF2  010F               	movlb	15	; () banked
  5615  000AF4  8919               	bsf	25,4,b	;volatile
  5616                           
  5617                           ; BSR set to: 15
  5618                           ;serial.c: 167: PIR2bits.SSP2IF = 0x0;
  5619  000AF6  9CA1               	bcf	4001,6,c	;volatile
  5620                           
  5621                           ; BSR set to: 15
  5622  000AF8  0012               	return		;funcret
  5623  000AFA                     __end_of_sendParam:
  5624                           	opt stack 0
  5625                           pclatu	equ	0xFFB
  5626                           pclath	equ	0xFFA
  5627                           tblptru	equ	0xFF8
  5628                           tblptrh	equ	0xFF7
  5629                           tblptrl	equ	0xFF6
  5630                           tablat	equ	0xFF5
  5631                           prodh	equ	0xFF4
  5632                           prodl	equ	0xFF3
  5633                           intcon	equ	0xFF2
  5634                           postinc0	equ	0xFEE
  5635                           fsr0h	equ	0xFEA
  5636                           fsr0l	equ	0xFE9
  5637                           wreg	equ	0xFE8
  5638                           postdec1	equ	0xFE5
  5639                           fsr1h	equ	0xFE2
  5640                           fsr1l	equ	0xFE1
  5641                           fsr2h	equ	0xFDA
  5642                           fsr2l	equ	0xFD9
  5643                           status	equ	0xFD8
  5644                           
  5645 ;; *************** function _checkSwitches *****************
  5646 ;; Defined at:
  5647 ;;		line 106 in file "hardware.c"
  5648 ;; Parameters:    Size  Location     Type
  5649 ;;		None
  5650 ;; Auto vars:     Size  Location     Type
  5651 ;;  flag            1    0[COMRAM] unsigned char 
  5652 ;; Return value:  Size  Location     Type
  5653 ;;                  1    wreg      void 
  5654 ;; Registers used:
  5655 ;;		wreg, status,2
  5656 ;; Tracked objects:
  5657 ;;		On entry : 0/0
  5658 ;;		On exit  : 0/0
  5659 ;;		Unchanged: 0/0
  5660 ;; Data sizes:     COMRAM   BANK0   BANK1   BANK2   BANK3   BANK4   BANK5   BANK6   BANK7   BANK8   BANK9  BANK10  BANK1
      +1  BANK12  BANK13
  5661 ;;      Params:         0       0       0       0       0       0       0       0       0       0       0       0       
      +0       0       0
  5662 ;;      Locals:         1       0       0       0       0       0       0       0       0       0       0       0       
      +0       0       0
  5663 ;;      Temps:          0       0       0       0       0       0       0       0       0       0       0       0       
      +0       0       0
  5664 ;;      Totals:         1       0       0       0       0       0       0       0       0       0       0       0       
      +0       0       0
  5665 ;;Total ram usage:        1 bytes
  5666 ;; Hardware stack levels used:    1
  5667 ;; This function calls:
  5668 ;;		Nothing
  5669 ;; This function is called by:
  5670 ;;		_highPriorityISR
  5671 ;; This function uses a non-reentrant model
  5672 ;;
  5673                           
  5674                           	psect	text28
  5675  000AFA                     __ptext28:
  5676                           	opt stack 0
  5677  000AFA                     _checkSwitches:
  5678                           	opt stack 27
  5679                           
  5680                           ;hardware.c: 108: char flag = 0;
  5681                           
  5682                           ; BSR set to: 15
  5683                           ;incstack = 0
  5684  000AFA  0E00               	movlw	0
  5685  000AFC  6E21               	movwf	checkSwitches@flag,c
  5686                           
  5687                           ;hardware.c: 110: if(IOCF1)
  5688  000AFE  A2D1               	btfss	4049,1,c	;volatile
  5689  000B00  D008               	goto	i2l610
  5690                           
  5691                           ;hardware.c: 111: {
  5692                           ;hardware.c: 112: switch4 = 1;
  5693  000B02  0E00               	movlw	0
  5694  000B04  0100               	movlb	0	; () banked
  5695  000B06  6F79               	movwf	(_switch4+1)& (0+255),b
  5696  000B08  0E01               	movlw	1
  5697  000B0A  6F78               	movwf	_switch4& (0+255),b
  5698                           
  5699                           ;hardware.c: 113: flag = 1;
  5700  000B0C  0E01               	movlw	1
  5701  000B0E  6E21               	movwf	checkSwitches@flag,c
  5702                           
  5703                           ; BSR set to: 0
  5704                           ;hardware.c: 114: IOCFbits.IOCF1 = 0;
  5705  000B10  92D1               	bcf	4049,1,c	;volatile
  5706  000B12                     i2l610:
  5707                           
  5708                           ;hardware.c: 115: }
  5709                           ;hardware.c: 117: if (IOCF2)
  5710                           
  5711                           ; BSR set to: 0
  5712  000B12  A4D1               	btfss	4049,2,c	;volatile
  5713  000B14  D008               	goto	i2l611
  5714                           
  5715                           ;hardware.c: 118: {
  5716                           ;hardware.c: 119: switch2 = 1;
  5717  000B16  0E00               	movlw	0
  5718  000B18  0100               	movlb	0	; () banked
  5719  000B1A  6F7D               	movwf	(_switch2+1)& (0+255),b
  5720  000B1C  0E01               	movlw	1
  5721  000B1E  6F7C               	movwf	_switch2& (0+255),b
  5722                           
  5723                           ;hardware.c: 120: flag = 1;
  5724  000B20  0E01               	movlw	1
  5725  000B22  6E21               	movwf	checkSwitches@flag,c
  5726                           
  5727                           ; BSR set to: 0
  5728                           ;hardware.c: 121: IOCFbits.IOCF2 = 0;
  5729  000B24  94D1               	bcf	4049,2,c	;volatile
  5730  000B26                     i2l611:
  5731                           
  5732                           ;hardware.c: 122: }
  5733                           ;hardware.c: 124: if (IOCF3)
  5734                           
  5735                           ; BSR set to: 0
  5736  000B26  A6D1               	btfss	4049,3,c	;volatile
  5737  000B28  D007               	goto	i2l612
  5738                           
  5739                           ;hardware.c: 125: {
  5740                           ;hardware.c: 126: switch1 = 1;
  5741  000B2A  0E00               	movlw	0
  5742  000B2C  6E18               	movwf	_switch1+1,c
  5743  000B2E  0E01               	movlw	1
  5744  000B30  6E17               	movwf	_switch1,c
  5745                           
  5746                           ;hardware.c: 127: flag = 1;
  5747  000B32  0E01               	movlw	1
  5748  000B34  6E21               	movwf	checkSwitches@flag,c
  5749                           
  5750                           ;hardware.c: 128: IOCFbits.IOCF3 = 0;
  5751  000B36  96D1               	bcf	4049,3,c	;volatile
  5752  000B38                     i2l612:
  5753                           
  5754                           ;hardware.c: 129: }
  5755                           ;hardware.c: 131: if (IOCF4)
  5756  000B38  A8D1               	btfss	4049,4,c	;volatile
  5757  000B3A  D008               	goto	i2l613
  5758                           
  5759                           ;hardware.c: 132: {
  5760                           ;hardware.c: 133: fsw1 = 1;
  5761  000B3C  0E00               	movlw	0
  5762  000B3E  0100               	movlb	0	; () banked
  5763  000B40  6F75               	movwf	(_fsw1+1)& (0+255),b
  5764  000B42  0E01               	movlw	1
  5765  000B44  6F74               	movwf	_fsw1& (0+255),b
  5766                           
  5767                           ;hardware.c: 134: flag = 1;
  5768  000B46  0E01               	movlw	1
  5769  000B48  6E21               	movwf	checkSwitches@flag,c
  5770                           
  5771                           ; BSR set to: 0
  5772                           ;hardware.c: 135: IOCFbits.IOCF4 = 0;
  5773  000B4A  98D1               	bcf	4049,4,c	;volatile
  5774  000B4C                     i2l613:
  5775                           
  5776                           ;hardware.c: 136: }
  5777                           ;hardware.c: 138: if (IOCF5)
  5778                           
  5779                           ; BSR set to: 0
  5780  000B4C  AAD1               	btfss	4049,5,c	;volatile
  5781  000B4E  D008               	goto	i2l614
  5782                           
  5783                           ;hardware.c: 139: {
  5784                           ;hardware.c: 140: fsw2 = 1;
  5785  000B50  0E00               	movlw	0
  5786  000B52  0100               	movlb	0	; () banked
  5787  000B54  6F73               	movwf	(_fsw2+1)& (0+255),b
  5788  000B56  0E01               	movlw	1
  5789  000B58  6F72               	movwf	_fsw2& (0+255),b
  5790                           
  5791                           ;hardware.c: 141: flag = 1;
  5792  000B5A  0E01               	movlw	1
  5793  000B5C  6E21               	movwf	checkSwitches@flag,c
  5794                           
  5795                           ; BSR set to: 0
  5796                           ;hardware.c: 142: IOCFbits.IOCF5 = 0;
  5797  000B5E  9AD1               	bcf	4049,5,c	;volatile
  5798  000B60                     i2l614:
  5799                           
  5800                           ;hardware.c: 143: }
  5801                           ;hardware.c: 145: if (IOCF6)
  5802                           
  5803                           ; BSR set to: 0
  5804  000B60  ACD1               	btfss	4049,6,c	;volatile
  5805  000B62  D008               	goto	i2l615
  5806                           
  5807                           ;hardware.c: 146: {
  5808                           ;hardware.c: 147: switch3 = 1;
  5809  000B64  0E00               	movlw	0
  5810  000B66  0100               	movlb	0	; () banked
  5811  000B68  6F7B               	movwf	(_switch3+1)& (0+255),b
  5812  000B6A  0E01               	movlw	1
  5813  000B6C  6F7A               	movwf	_switch3& (0+255),b
  5814                           
  5815                           ;hardware.c: 148: flag = 1;
  5816  000B6E  0E01               	movlw	1
  5817  000B70  6E21               	movwf	checkSwitches@flag,c
  5818                           
  5819                           ; BSR set to: 0
  5820                           ;hardware.c: 149: IOCFbits.IOCF6 = 0;
  5821  000B72  9CD1               	bcf	4049,6,c	;volatile
  5822  000B74                     i2l615:
  5823                           
  5824                           ;hardware.c: 150: }
  5825                           ;hardware.c: 152: if (IOCF7)
  5826                           
  5827                           ; BSR set to: 0
  5828  000B74  AED1               	btfss	4049,7,c	;volatile
  5829  000B76  D008               	goto	i2l616
  5830                           
  5831                           ;hardware.c: 153: {
  5832                           ;hardware.c: 154: switch5 = 1;
  5833  000B78  0E00               	movlw	0
  5834  000B7A  0100               	movlb	0	; () banked
  5835  000B7C  6F77               	movwf	(_switch5+1)& (0+255),b
  5836  000B7E  0E01               	movlw	1
  5837  000B80  6F76               	movwf	_switch5& (0+255),b
  5838                           
  5839                           ;hardware.c: 155: flag = 1;
  5840  000B82  0E01               	movlw	1
  5841  000B84  6E21               	movwf	checkSwitches@flag,c
  5842                           
  5843                           ; BSR set to: 0
  5844                           ;hardware.c: 156: IOCFbits.IOCF7 = 0;
  5845  000B86  9ED1               	bcf	4049,7,c	;volatile
  5846  000B88                     i2l616:
  5847                           
  5848                           ;hardware.c: 157: }
  5849                           ;hardware.c: 159: if (flag)
  5850  000B88  5021               	movf	checkSwitches@flag,w,c
  5851  000B8A  B4D8               	btfsc	status,2,c
  5852  000B8C  0012               	return	
  5853                           
  5854                           ;hardware.c: 160: {
  5855                           ;hardware.c: 161: T0CONbits.TMR0ON = 0x1;
  5856  000B8E  8ED5               	bsf	4053,7,c	;volatile
  5857  000B90  0012               	return	
  5858  000B92                     __end_of_checkSwitches:
  5859                           	opt stack 0
  5860  0000                     pclatu	equ	0xFFB
  5861                           pclath	equ	0xFFA
  5862                           tblptru	equ	0xFF8
  5863                           tblptrh	equ	0xFF7
  5864                           tblptrl	equ	0xFF6
  5865                           tablat	equ	0xFF5
  5866                           prodh	equ	0xFF4
  5867                           prodl	equ	0xFF3
  5868                           intcon	equ	0xFF2
  5869                           postinc0	equ	0xFEE
  5870                           fsr0h	equ	0xFEA
  5871                           fsr0l	equ	0xFE9
  5872                           wreg	equ	0xFE8
  5873                           postdec1	equ	0xFE5
  5874                           fsr1h	equ	0xFE2
  5875                           fsr1l	equ	0xFE1
  5876                           fsr2h	equ	0xFDA
  5877                           fsr2l	equ	0xFD9
  5878                           status	equ	0xFD8
  5879                           pclatu	equ	0xFFB
  5880                           pclath	equ	0xFFA
  5881                           tblptru	equ	0xFF8
  5882                           tblptrh	equ	0xFF7
  5883                           tblptrl	equ	0xFF6
  5884                           tablat	equ	0xFF5
  5885                           prodh	equ	0xFF4
  5886                           prodl	equ	0xFF3
  5887                           intcon	equ	0xFF2
  5888                           postinc0	equ	0xFEE
  5889                           fsr0h	equ	0xFEA
  5890                           fsr0l	equ	0xFE9
  5891                           wreg	equ	0xFE8
  5892                           postdec1	equ	0xFE5
  5893                           fsr1h	equ	0xFE2
  5894                           fsr1l	equ	0xFE1
  5895                           fsr2h	equ	0xFDA
  5896                           fsr2l	equ	0xFD9
  5897                           status	equ	0xFD8
  5898                           
  5899                           	psect	rparam
  5900  0000                     pclatu	equ	0xFFB
  5901                           pclath	equ	0xFFA
  5902                           tblptru	equ	0xFF8
  5903                           tblptrh	equ	0xFF7
  5904                           tblptrl	equ	0xFF6
  5905                           tablat	equ	0xFF5
  5906                           prodh	equ	0xFF4
  5907                           prodl	equ	0xFF3
  5908                           intcon	equ	0xFF2
  5909                           postinc0	equ	0xFEE
  5910                           fsr0h	equ	0xFEA
  5911                           fsr0l	equ	0xFE9
  5912                           wreg	equ	0xFE8
  5913                           postdec1	equ	0xFE5
  5914                           fsr1h	equ	0xFE2
  5915                           fsr1l	equ	0xFE1
  5916                           fsr2h	equ	0xFDA
  5917                           fsr2l	equ	0xFD9
  5918                           status	equ	0xFD8
  5919                           
  5920                           	psect	temp
  5921  000041                     btemp:
  5922                           	opt stack 0
  5923  000041                     	ds	1
  5924  0000                     int$flags	set	btemp
  5925  0000                     wtemp6	set	btemp+1
  5926                           pclatu	equ	0xFFB
  5927                           pclath	equ	0xFFA
  5928                           tblptru	equ	0xFF8
  5929                           tblptrh	equ	0xFF7
  5930                           tblptrl	equ	0xFF6
  5931                           tablat	equ	0xFF5
  5932                           prodh	equ	0xFF4
  5933                           prodl	equ	0xFF3
  5934                           intcon	equ	0xFF2
  5935                           postinc0	equ	0xFEE
  5936                           fsr0h	equ	0xFEA
  5937                           fsr0l	equ	0xFE9
  5938                           wreg	equ	0xFE8
  5939                           postdec1	equ	0xFE5
  5940                           fsr1h	equ	0xFE2
  5941                           fsr1l	equ	0xFE1
  5942                           fsr2h	equ	0xFDA
  5943                           fsr2l	equ	0xFD9
  5944                           status	equ	0xFD8


Data Sizes:
    Strings     0
    Constant    0
    Data        12
    BSS         62
    Persistent  0
    Stack       0

Auto Spaces:
    Space          Size  Autos    Used
    COMRAM           94     30      64
    BANK0           160     29      69
    BANK1           256      0       0
    BANK2           256      0       0
    BANK3           256      0       0
    BANK4           256      0       0
    BANK5           256      0       0
    BANK6           256      0       0
    BANK7           256      0       0
    BANK8           256      0       0
    BANK9           256      0       0
    BANK10          256      0       0
    BANK11          256      0       0
    BANK12          256      0       0
    BANK13          250      0       0

Pointer List with Targets:

    dataPtr	PTR int  size(2) Largest target is 3577
		 -> NULL(NULL[0]), RAM(DATA[3577]), 


Critical Paths under _main in COMRAM

    None.

Critical Paths under _highPriorityISR in COMRAM

    _serviceSwitches->_processTaps
    _processTaps->___awdiv

Critical Paths under _main in BANK0

    _main->_ADC_Read
    _main->_absVal
    _systemInit->_startupSequence

Critical Paths under _highPriorityISR in BANK0

    None.

Critical Paths under _main in BANK1

    None.

Critical Paths under _highPriorityISR in BANK1

    None.

Critical Paths under _main in BANK2

    None.

Critical Paths under _highPriorityISR in BANK2

    None.

Critical Paths under _main in BANK3

    None.

Critical Paths under _highPriorityISR in BANK3

    None.

Critical Paths under _main in BANK4

    None.

Critical Paths under _highPriorityISR in BANK4

    None.

Critical Paths under _main in BANK5

    None.

Critical Paths under _highPriorityISR in BANK5

    None.

Critical Paths under _main in BANK6

    None.

Critical Paths under _highPriorityISR in BANK6

    None.

Critical Paths under _main in BANK7

    None.

Critical Paths under _highPriorityISR in BANK7

    None.

Critical Paths under _main in BANK8

    None.

Critical Paths under _highPriorityISR in BANK8

    None.

Critical Paths under _main in BANK9

    None.

Critical Paths under _highPriorityISR in BANK9

    None.

Critical Paths under _main in BANK10

    None.

Critical Paths under _highPriorityISR in BANK10

    None.

Critical Paths under _main in BANK11

    None.

Critical Paths under _highPriorityISR in BANK11

    None.

Critical Paths under _main in BANK12

    None.

Critical Paths under _highPriorityISR in BANK12

    None.

Critical Paths under _main in BANK13

    None.

Critical Paths under _highPriorityISR in BANK13

    None.

Call Graph Tables:

 ---------------------------------------------------------------------------------
 (Depth) Function   	        Calls       Base Space   Used Autos Params    Refs
 ---------------------------------------------------------------------------------
 (0) _main                                                25    25      0    1333
                                              4 BANK0     25    25      0
                           _ADC_Read
                 _I2C1_Write_DigiPot
                             _absVal
                         _systemInit
 ---------------------------------------------------------------------------------
 (1) _systemInit                                           0     0      0       0
                        _bypassSetup
                        _clockSwitch
                      _interfaceInit
                      _interruptInit
                           _killLEDs
                  _mapPeripheralPins
                           _setupADC
                          _setupI2C1
                          _setupI2C2
                          _setupTMR0
                          _setupTMR1
                          _setupTMR2
                          _setupTMR4
                    _startupSequence
 ---------------------------------------------------------------------------------
 (2) _startupSequence                                      2     2      0       0
                                              0 BANK0      2     2      0
 ---------------------------------------------------------------------------------
 (2) _setupTMR4                                            0     0      0       0
 ---------------------------------------------------------------------------------
 (2) _setupTMR2                                            0     0      0       0
 ---------------------------------------------------------------------------------
 (2) _setupTMR1                                            0     0      0       0
 ---------------------------------------------------------------------------------
 (2) _setupTMR0                                            0     0      0       0
 ---------------------------------------------------------------------------------
 (2) _setupI2C2                                            0     0      0       0
 ---------------------------------------------------------------------------------
 (2) _setupI2C1                                            0     0      0       0
 ---------------------------------------------------------------------------------
 (2) _setupADC                                             0     0      0       0
 ---------------------------------------------------------------------------------
 (2) _mapPeripheralPins                                    0     0      0       0
 ---------------------------------------------------------------------------------
 (2) _killLEDs                                             0     0      0       0
 ---------------------------------------------------------------------------------
 (2) _interruptInit                                        0     0      0       0
 ---------------------------------------------------------------------------------
 (2) _interfaceInit                                        0     0      0       0
 ---------------------------------------------------------------------------------
 (2) _clockSwitch                                          0     0      0       0
 ---------------------------------------------------------------------------------
 (2) _bypassSetup                                          0     0      0       0
 ---------------------------------------------------------------------------------
 (1) _absVal                                               4     2      2     238
                                              0 BANK0      4     2      2
 ---------------------------------------------------------------------------------
 (1) _I2C1_Write_DigiPot                                   2     2      0      65
                                              0 BANK0      2     2      0
 ---------------------------------------------------------------------------------
 (1) _ADC_Read                                             4     2      2     765
                                              0 BANK0      4     2      2
 ---------------------------------------------------------------------------------
 Estimated maximum stack depth 2
 ---------------------------------------------------------------------------------
 (Depth) Function   	        Calls       Base Space   Used Autos Params    Refs
 ---------------------------------------------------------------------------------
 (3) _highPriorityISR                                     18    18      0     854
                                             12 COMRAM    18    18      0
                      _checkSwitches
                          _sendParam
                    _serviceSwitches
                             _tapLED
 ---------------------------------------------------------------------------------
 (4) _tapLED                                               3     3      0       0
                                              0 COMRAM     3     3      0
 ---------------------------------------------------------------------------------
 (4) _serviceSwitches                                      0     0      0     777
                        _processTaps
                   _updatePresetLEDs
 ---------------------------------------------------------------------------------
 (5) _updatePresetLEDs                                     2     0      2     186
                                              0 COMRAM     2     0      2
 ---------------------------------------------------------------------------------
 (5) _processTaps                                          4     4      0     591
                                              8 COMRAM     4     4      0
                            ___awdiv
                        _maxTapCheck
                           i2_absVal
 ---------------------------------------------------------------------------------
 (6) i2_absVal                                             4     2      2      92
                                              0 COMRAM     4     2      2
 ---------------------------------------------------------------------------------
 (6) _maxTapCheck                                          0     0      0       0
 ---------------------------------------------------------------------------------
 (6) ___awdiv                                              8     4      4     452
                                              0 COMRAM     8     4      4
 ---------------------------------------------------------------------------------
 (4) _sendParam                                            4     4      0      47
                                              0 COMRAM     4     4      0
 ---------------------------------------------------------------------------------
 (4) _checkSwitches                                        1     1      0      30
                                              0 COMRAM     1     1      0
 ---------------------------------------------------------------------------------
 Estimated maximum stack depth 6
 ---------------------------------------------------------------------------------

 Call Graph Graphs:

 _main (ROOT)
   _ADC_Read
   _I2C1_Write_DigiPot
   _absVal
   _systemInit
     _bypassSetup
     _clockSwitch
     _interfaceInit
     _interruptInit
     _killLEDs
     _mapPeripheralPins
     _setupADC
     _setupI2C1
     _setupI2C2
     _setupTMR0
     _setupTMR1
     _setupTMR2
     _setupTMR4
     _startupSequence

 _highPriorityISR (ROOT)
   _checkSwitches
   _sendParam
   _serviceSwitches
     _processTaps
       ___awdiv
       _maxTapCheck
       i2_absVal
     _updatePresetLEDs
   _tapLED

 Address spaces:
Name               Size   Autos  Total    Cost      Usage
BIGRAM             DF9      0       0      33        0.0%
BITBANK12          100      0       0      29        0.0%
BANK12             100      0       0      30        0.0%
BITBANK11          100      0       0      27        0.0%
BANK11             100      0       0      28        0.0%
BITBANK10          100      0       0      25        0.0%
BANK10             100      0       0      26        0.0%
BITBANK9           100      0       0      23        0.0%
BANK9              100      0       0      24        0.0%
BITBANK8           100      0       0      21        0.0%
BANK8              100      0       0      22        0.0%
BITBANK7           100      0       0      19        0.0%
BANK7              100      0       0      20        0.0%
BITBANK6           100      0       0      17        0.0%
BANK6              100      0       0      18        0.0%
BITBANK5           100      0       0      15        0.0%
BANK5              100      0       0      16        0.0%
BITBANK4           100      0       0      13        0.0%
BANK4              100      0       0      14        0.0%
BITBANK3           100      0       0      11        0.0%
BANK3              100      0       0      12        0.0%
BITBANK2           100      0       0       9        0.0%
BANK2              100      0       0      10        0.0%
BITBANK1           100      0       0       6        0.0%
BANK1              100      0       0       7        0.0%
BITBANK13           FA      0       0      31        0.0%
BANK13              FA      0       0      32        0.0%
BITBANK0            A0      0       0       4        0.0%
BANK0               A0     1D      45       5       43.1%
BITCOMRAM           5E      0       0       0        0.0%
COMRAM              5E     1E      40       1       68.1%
BITSFR_3             0      0       0     200        0.0%
SFR_3                0      0       0     200        0.0%
BITSFR_2             0      0       0     200        0.0%
SFR_2                0      0       0     200        0.0%
BITSFR_1             0      0       0     200        0.0%
SFR_1                0      0       0     200        0.0%
BITSFR               0      0       0     200        0.0%
SFR                  0      0       0     200        0.0%
STACK                0      0       0       2        0.0%
NULL                 0      0       0       0        0.0%
ABS                  0      0      85       8        0.0%
DATA                 0      0      85       3        0.0%
CODE                 0      0       0       0        0.0%


Microchip Technology PIC18 Macro Assembler V1.43 build -156212558 
Symbol Table                                                                                   Sun Sep 23 16:08:53 2018

                 __CFG_BW$16 000000           __end_of_systemInit 0FB8        __end_of_interruptInit 102A  
               ___awdiv@sign 0026                  __CFG_BORV$1 000000                 __CFG_CP0$OFF 000000  
                        l112 104C                          l120 06FC                          l122 0824  
                        l119 06DA                          l360 1092                          l661 0878  
                        l671 08EE                          l663 088E                          l680 0958  
                        l673 0906                          l665 08A6                          l675 091E  
                        l667 08BE                          l659 085C                          l677 0936  
                        l669 08D6                          l679 094E                          l872 0FCE  
                        l881 0FE6                          l875 0FD8                          l887 0FF0  
                        _RC0 007C10                          _RC1 007C11                          _RD1 007C19  
                        _RD4 007C1C                          _RC6 007C16                          _RE3 007C23  
                        _RC7 007C17                          _RG1 007C31                          _RF3 007C2B  
                        _RD7 007C1F                          _RG2 007C32                          _RE6 007C26  
                        _RG3 007C33                          _RH4 007C3C                          _RJ0 007C40  
                        _RH5 007C3D                          _RJ1 007C41                          _RJ4 007C44  
                        _RJ5 007C45                          _PR2 000FCB                          _tap 0003  
                        _swX 0019                          wreg 000FE8        __end_of_checkSwitches 0B92  
              __CFG_ABW$XM16 000000                 ?_maxTapCheck 0021                         u3007 0300  
                       u3017 031E                         u3107 042E                         u3027 033C  
                       u3117 044E                         u3037 035A                         u3127 046E  
                       u3047 0378                         u3137 0FC6                         u3057 0398  
                       u2610 0FDC                         u3147 0848                         u3067 03B6  
                       u3157 0854                         u3077 03D4                         u2630 0FEA  
                       u3087 03F2                         u3097 0410                         u2570 109C  
                       u2810 0814                         u2805 07AA                         u2907 01D4  
                       u2917 01F2                         u2837 0102                         u2927 0210  
                       u2847 0120                         u2937 022E                         u2857 013E  
                       u2785 0720                         u2947 024C                         u2867 015C  
                       u2795 075A                         u2957 026A                         u2877 017A  
                       u2967 0288                         u2887 0198                         u2977 02A6  
                       u2897 01B6                         u2987 02C4                         u2997 02E2  
                       _hiLo 006C                         _fsw1 0074                         _fsw2 0072  
                       _intA 001F                         _intB 001D                         _intC 001B  
                       _main 0662                         fsr0h 000FEA                         fsr1h 000FE2  
                       fsr2h 000FDA                         fsr0l 000FE9                         fsr1l 000FE1  
                       fsr2l 000FD9                  main@prevDry 0095                         btemp 0041  
           __end_of_ADC_Read 0962                         prodh 000FF4                         prodl 000FF3  
         __CFG_WDTWIN$PS25_0 000000                         start 00EE     __size_of_serviceSwitches 01E0  
              __CFG_IESO$OFF 000000           __CFG_LS48MHZ$SYSX2 000000                 ___param_bank 000000  
                i2absVal@val 0021                 ?_bypassSetup 0021                __CFG_WAIT$OFF 000000  
                      ?_main 0021              __end_of___awdiv 0DBC                 main@dryLevel 0099  
            ___awdiv@divisor 0023                        _T2CON 000FCA                        _LATD0 007C60  
                      _LATB5 007C55                        _IOCF1 007E89                        _LATD2 007C62  
                      _LATE0 007C68                        _IOCF2 007E8A                        _LATD3 007C63  
                      _LATE1 007C69                        _IOCF3 007E8B                        _IOCF4 007E8C  
                      _IOCF5 007E8D                        _IOCF6 007E8E                        _LATF2 007C72  
                      _LATE4 007C6C                        _IOCF7 007E8F                        _LATE5 007C6D  
                      _LATH0 007C80                        _LATH1 007C81                        _LATF5 007C75  
                      _LATE7 007C6F                        _LATF6 007C76                        _LATG4 007C7C  
                      _LATH2 007C82                        _LATH7 007C87                        i2l103 005C  
                      i2l112 1074                        i2l104 006A                        i2l106 0090  
                      i2l107 0092                        i2l108 00A2                        i2l610 0B12  
                      i2l611 0B26                        i2l603 0CEE                        i2l612 0B38  
                      i2l700 0E12                        i2l613 0B4C                        i2l614 0B60  
                      i2l702 0E28                        i2l630 052E                        i2l615 0B74  
                      i2l623 04C2                        i2l616 0B88                        i2l640 0592  
                      i2l632 053A                        i2l633 053E                        i2l650 061C  
                      i2l626 04F0                        i2l643 05C8                        i2l644 05D6  
                      i2l636 0574                        i2l901 0AEA                        i2l653 065C  
                      i2l637 0582                        i2l629 0520                        i2l902 0ACA  
                      i2l646 05E2                        i2l647 05E6                        i2l639 058E  
                      i2l649 0628                        i2l594 099A                        i2l595 0A52  
                      i2l588 0F04                        i2l596 09DA                        i2l598 0A24  
                      i2l694 0DD0                        i2l599 0A50                        i2l696 0DE6  
                      i2l698 0DFC              ___awdiv@counter 0025                        i2l893 0A6A  
                      i2l895 0A84                        i2l897 0A98                        i2l899 0AAC  
              __CFG_WPSA$128 000000               __CFG_EASHFT$ON 000000                        main@i 0087  
             __CFG_BOREN$OFF 000000                        pclath 000FFA                        tablat 000FF5  
           __end_ofi2_absVal 107E                        status 000FD8                        wtemp6 0042  
 __size_of_mapPeripheralPins 0054              __initialization 0E34                 __end_of_main 0836  
__size_of_I2C1_Write_DigiPot 0042                       ??_main 0082                __activetblptr 000000  
        __CFG_WPEND$WPENDMEM 000000               __CFG_RETEN$OFF 000000                       _CCPR4H 000F12  
                     _CCPR4L 000F11             ___awdiv@dividend 0021     __size_of_startupSequence 0390  
       __size_of_clockSwitch 0024                       _LCDSE0 000ECE                       _LCDSE1 000ECF  
                     _LCDSE2 000ED0                       _LCDSE3 000ED1                       _LCDSE4 000ED2  
                     _LCDSE5 000ED3                       _LCDSE6 000ED4                       _LCDSE7 000ED5  
   __size_of_highPriorityISR 00E6                       i2l1080 0DA4                       i2l1072 0D4C  
                     i2l1081 0DB2                       i2l1073 0D5C                       i2l1075 0D7A  
                     i2l1076 0D72                       i2l1079 0D9A               __CFG_WDTEN$OFF 000000  
                     i2l2616 09DA                       i2l2680 0ADC                       _OSCCON 000FD3  
                     _TMR0IF 007F92                       _TMR2IF 007CF1                       _TMR4IF 007DC0  
                     _TMR2ON 007E52                       _SSP2IF 007D0E               __CFG_XINST$OFF 000000  
               _CCPTMRS1bits 000F35                       _absVal 102A             __end_of_killLEDs 10C2  
                  ??___awdiv 0025     __end_of_updatePresetLEDs 0E34            ??_serviceSwitches 002D  
            ADC_Read@channel 007E                       _tapLED 0CB4                       _bypass 0015  
                     _muxADC 0070                       clear_0 0E72                       clear_1 0E7E  
           ___awdiv@quotient 0027               _RPINR20_21bits 000E34              __CFG_CLKOEN$OFF 000000  
                     _preset 0013               _RPINR22_23bits 000E35                 __pdataCOMRAM 003F  
             _RPINR24_25bits 000E36             __end_of_setupADC 0CB4                    ?_ADC_Read 007E  
             _RPINR18_19bits 000E33           processTaps@tapDiff 002B                       tblptrh 000FF7  
                     tblptrl 000FF6                       tblptru 000FF8                 ?_processTaps 0021  
       __size_of_maxTapCheck 0050                   __accesstop 0060      __end_of__initialization 0E84  
         __CFG_DSWDTOSC$LPRC 000000                ___rparam_used 000001              __CFG_T5GSEL$T5G 000000  
            __CFG_IOL1WAY$ON 000000               __pcstackCOMRAM 0021                 __pidataBANK0 1134  
       __size_of_bypassSetup 000C                    ?i2_absVal 0021            __CFG_PLLDIV$PLL8X 000000  
                 ??_ADC_Read 003F                   _dataTarget 000F                   __pbssBANK0 0060  
     __size_of_interfaceInit 0092            ??_startupSequence 007E            ??_highPriorityISR 002D  
                    ?_absVal 007E           __size_of_sendParam 009E                      _ADCBUF0 000FC2  
                    _ADCBUF1 000E48                      _ADCBUF2 000E4A                      _ADCBUF3 000E4C  
                    _ADCBUF4 000E4E                      _ADCBUF5 000E50                      _ADCBUF6 000E52  
                    _ADCBUF8 000E56                      _ADCBUF9 000E58                      ?_tapLED 0021  
            __CFG_VBTBOR$OFF 000000                   ??i2_absVal 0023           __size_of_setupI2C1 001A  
         __size_of_setupI2C2 0044           __size_of_setupTMR0 0018           __size_of_setupTMR1 000E  
         __size_of_setupTMR2 0010           __size_of_setupTMR4 0016              __CFG_WDTCLK$FRC 000000  
              sendParam@byte 0023                      _SSP1ADD 000FC8                      _SSP2ADD 000F02  
                    _SSP1BUF 000FC9                      _SSP2BUF 000F03                      _SSP2MSK 000F17  
                  ?_killLEDs 0021       __size_of_interruptInit 0030                      __Hparam 0000  
                    __Lparam 0000                    ?_setupADC 0021       __size_of_checkSwitches 0098  
                    ___awdiv 0D38              __size_of_absVal 002C                   _levelValue 000B  
            __CFG_STVREN$OFF 000000                      _dataPtr 006A              __size_of_tapLED 0084  
                    __pcinit 0E34                      __ramtop 0E00                      __ptext0 0662  
                    __ptext1 0F76                      __ptext2 00F2                      __ptext3 10F4  
                    __ptext4 110A                      __ptext5 111A                      __ptext6 10DC  
                    __ptext7 0F32                      __ptext8 10C2                      __ptext9 0C24  
              _interfaceInit 0B92                    _T0CONbits 000FD5                      _bypMode 00A3  
                  _T1CONbits 000FCD                    _T2CONbits 000FCA                    _T3CONbits 000FB1  
                    _tapTime 0068                      _tapPrev 0005                    _T4CONbits 000F04  
                  _T5CONbits 000F14                      main@dir 008B                      _switch1 0017  
                    _switch2 007C                      _switch3 007A                      _switch4 0078  
                    _switch5 0076            __end_of_sendParam 0AFA         end_of_initialization 0E84  
                 ??_killLEDs 003F            checkSwitches@flag 0021         __size_of_processTaps 00FA  
            _serviceSwitches 0482            __end_of_setupI2C1 10DC            __end_of_setupI2C2 0F76  
          __end_of_setupTMR0 10F4            __end_of_setupTMR1 1128            __end_of_setupTMR2 111A  
          __end_of_setupTMR4 110A                   ??_setupADC 003F                      postdec1 000FE5  
                    postinc0 000FEE   __end_of_I2C1_Write_DigiPot 0FFA             __CFG_FSCM$CSECMD 000000  
           __CFG_DSBITEN$OFF 000000                _interruptInit 0FFA            ?_updatePresetLEDs 0021  
             ?_interfaceInit 0021             __CFG_DSBOREN$OFF 000000                  _ADCHS0Lbits 000E86  
         ??_updatePresetLEDs 0023             __CFG_FOSC$FRCDIV 000000                  _ADCON1Hbits 000FC1  
                _ADCON2Hbits 000E8D                  _ADCON1Lbits 000FC0                  _ADCON3Hbits 000E8B  
                  _TRISAbits 000F92                    _TRISBbits 000F93                    _TRISCbits 000F94  
              ??_clockSwitch 003F                    _TRISDbits 000F95                  _ADCON3Lbits 000E8A  
                _ADCON5Hbits 000E89                    _TRISEbits 000F96                    _TRISFbits 000F97  
                  _TRISGbits 000F98                    _TRISHbits 000F99                    _TRISJbits 000F9A  
              _checkSwitches 0AFA            __size_of_ADC_Read 012C         __CFG_CINASEL$DEFAULT 000000  
                _CCP4CONbits 000F10                   main@result 0085            __CFG_WPFP$WPFP255 000000  
             ?_interruptInit 0021               __end_of_absVal 1056                __pidataCOMRAM 113E  
             __end_of_tapLED 0D38             __CFG_DSWDTEN$OFF 000000          start_initialization 0E34  
          __size_ofi2_absVal 0028                   _systemInit 0F76               ?_checkSwitches 0021  
            _startupSequence 00F2                ??_maxTapCheck 0021      __end_of_serviceSwitches 0662  
            _highPriorityISR 0008                _feedbackValue 000D          __end_of_clockSwitch 10A2  
    I2C1_Write_DigiPot@value 007E                     ??_absVal 0080               _currentTapTime 00A1  
              ??_bypassSetup 003F              ??_interfaceInit 003F                  __pdataBANK0 009B  
                   ??_tapLED 0021                  __pbssCOMRAM 0001                __pcstackBANK0 007E  
          __size_of_killLEDs 0020        updatePresetLEDs@psNum 0021          __end_of_maxTapCheck 0F32  
            ??_interruptInit 003F                    __pintcode 0008                    absVal@val 007E  
                   ?___awdiv 0021            __size_of_setupADC 0090                     _ADCBUF14 000E62  
               _tapDispCount 0011      __end_of_startupSequence 0482      __end_of_highPriorityISR 00EE  
           __CFG_POSCMD$NONE 000000              ??_checkSwitches 0021          __end_of_bypassSetup 1134  
                   _ADC_Read 0836                  ?_systemInit 0021                  _clockSwitch 107E  
           ?_serviceSwitches 0021                    _tapOnTime 003F                     _IOCFbits 000FD1  
                  _sendParam 0A5C                     _IOCNbits 000F55                     _PIE1bits 000F9D  
                   _PIE2bits 000FA0                     _PIE5bits 000FB7                     i2u202_45 04CA  
                   i2u203_40 04D2                     i2u204_45 04D4                     i2u214_40 056C  
                   i2u224_40 0614                     i2u209_40 0518                     i2u170_40 09C0  
                   i2u163_40 0D7E                     i2u219_40 05C0                     i2u169_40 0978  
                   _PIR1bits 000F9E                     _PIR2bits 000FA1                     i2u197_40 04B8  
                   i2u198_45 04BA                     i2u199_41 04BE                    _timeValue 0009  
                  _setupI2C1 10C2                    _setupI2C2 0F32             __CFG_WDTPS$32768 000000  
                  _setupTMR0 10DC                    _setupTMR1 111A                    _setupTMR2 110A  
                  _setupTMR4 10F4                     _UCONbits 000F75                 _tapTimeCount 0007  
           __CFG_SOSCSEL$DIG 000000  I2C1_Write_DigiPot@wrCommand 007F                     i2_absVal 1056  
                 _CM1CONbits 000F53           _I2C1_Write_DigiPot 0FB8                   _CM2CONbits 000F38  
                 _CM3CONbits 000F37             __CFG_WPDIS$WPDIS 000000                  _maxTapCheck 0EE2  
                  copy_data0 0E48                ??_processTaps 0029    __size_of_updatePresetLEDs 0078  
        ?_I2C1_Write_DigiPot 0021                   ?_sendParam 0021                   _ANCON1bits 000E47  
                 _ANCON2bits 000E46                   _ANCON3bits 000E45                     __Hrparam 0000  
                   __Lrparam 0000                   ?_setupI2C1 0021                   ?_setupI2C2 0021  
        __size_of_systemInit 0042                   ?_setupTMR0 0021                   ?_setupTMR1 0021  
                 ?_setupTMR2 0021                   ?_setupTMR4 0021                ADC_Read@value 0080  
                _bypassSetup 1128             __size_of___awdiv 0084         ??_I2C1_Write_DigiPot 003F  
           ?_startupSequence 0021             ?_highPriorityISR 0021                     __ptext10 0E8E  
                   __ptext11 10A2                     __ptext20 0CB4                     __ptext12 0FFA  
                   __ptext21 0482                     __ptext13 0B92                     __ptext22 0DBC  
                   __ptext14 107E                     __ptext23 0962                     __ptext15 1128  
                   __ptext24 1056                     __ptext16 102A                     __ptext25 0EE2  
                   __ptext17 0FB8                     __ptext26 0D38                     __ptext18 0836  
                   __ptext27 0A5C                     __ptext28 0AFA                 _SSP1CON1bits 000FC6  
               _SSP1CON2bits 000FC5                   _LCDCONbits 000ED9                 _SSP2CON1bits 000F19  
               _SSP2CON2bits 000F18                 _SSP2CON3bits 000F39                     _killLEDs 10A2  
                _OSCCON2bits 000F66                  _OSCCON3bits 000F65                  _OSCCON4bits 000F64  
              __size_of_main 01D4                     _tapAccum 0060                     _newTempo 0066  
                   _tapFlash 006E           __CFG_MSSPMSK1$MSK7 000000           __CFG_MSSPMSK2$MSK7 000000  
        __end_of_processTaps 0A5C                     _setupADC 0C24                _setupComplete 0001  
                   int$flags 0041                   _MEMCONbits 000EE3                     main@bitA 008F  
                   main@bitB 0091                     main@bitC 0093                     main@diff 0097  
               _SSP1STATbits 000FC7                     main@byte 0089                     main@temp 008D  
               _SSP2STATbits 000F1A                   _INTCONbits 000FF2                     intlevel2 0000  
                ??_sendParam 0021                 _presetParams 009B                   _OSCCONbits 000FD3  
                ??_setupI2C1 003F                  ??_setupI2C2 003F                  ??_setupTMR0 003F  
                ??_setupTMR1 003F                  ??_setupTMR2 003F                  ??_setupTMR4 003F  
          _mapPeripheralPins 0E8E           ?_mapPeripheralPins 0021        __end_of_interfaceInit 0C24  
               _timeoutCount 0064          ??_mapPeripheralPins 003F                 ??_systemInit 003F  
               ?_clockSwitch 0021             _updatePresetLEDs 0DBC          __CFG_WPCFG$WPCFGDIS 000000  
                _processTaps 0962           __CFG_WINDIS$WDTSTD 000000       __CFG_DSWDTPS$DSWDTPS1F 000000  
  __end_of_mapPeripheralPins 0EE2  
