

Microchip Technology PIC18 LITE Macro Assembler V1.43 build -156212558 
                                                                                               Mon Oct 15 12:20:46 2018

Microchip Technology Omniscient Code Generator v1.43 (Free mode) build 201707250354
     1                           	processor	18F85J94
     2                           	fnconf	rparam,??,?,0
     3                           	opt	pw 120
     4                           	opt	lm
     5                           	psect	idataCOMRAM,global,class=CODE,delta=1,noexec
     6                           	psect	idataBANK0,global,class=CODE,delta=1,noexec
     7                           	psect	idataBANK1,global,class=CODE,delta=1,noexec
     8                           	psect	cinit,global,reloc=2,class=CODE,delta=1
     9                           	psect	bssCOMRAM,global,class=COMRAM,space=1,delta=1,noexec
    10                           	psect	dataCOMRAM,global,class=COMRAM,space=1,delta=1,noexec
    11                           	psect	bssBANK0,global,class=BANK0,space=1,delta=1,lowdata,noexec
    12                           	psect	dataBANK0,global,class=BANK0,space=1,delta=1,lowdata,noexec
    13                           	psect	bssBANK1,global,class=BANK1,space=1,delta=1,lowdata,noexec
    14                           	psect	dataBANK1,global,class=BANK1,space=1,delta=1,lowdata,noexec
    15                           	psect	cstackBANK0,global,class=BANK0,space=1,delta=1,noexec
    16                           	psect	cstackCOMRAM,global,class=COMRAM,space=1,delta=1,noexec
    17                           	psect	text0,global,reloc=2,class=CODE,delta=1
    18                           	psect	text1,global,reloc=2,class=CODE,delta=1
    19                           	psect	text2,global,reloc=2,class=CODE,delta=1
    20                           	psect	text3,global,reloc=2,class=CODE,delta=1
    21                           	psect	text4,global,reloc=2,class=CODE,delta=1
    22                           	psect	text5,global,reloc=2,class=CODE,delta=1
    23                           	psect	text6,global,reloc=2,class=CODE,delta=1
    24                           	psect	text7,global,reloc=2,class=CODE,delta=1
    25                           	psect	text8,global,reloc=2,class=CODE,delta=1
    26                           	psect	text9,global,reloc=2,class=CODE,delta=1
    27                           	psect	text10,global,reloc=2,class=CODE,delta=1
    28                           	psect	text11,global,reloc=2,class=CODE,delta=1
    29                           	psect	text12,global,reloc=2,class=CODE,delta=1
    30                           	psect	text13,global,reloc=2,class=CODE,delta=1
    31                           	psect	text14,global,reloc=2,class=CODE,delta=1
    32                           	psect	text15,global,reloc=2,class=CODE,delta=1
    33                           	psect	text16,global,reloc=2,class=CODE,delta=1
    34                           	psect	text17,global,reloc=2,class=CODE,delta=1
    35                           	psect	text18,global,reloc=2,class=CODE,delta=1
    36                           	psect	text19,global,reloc=2,class=CODE,delta=1,group=1
    37                           	psect	text20,global,reloc=2,class=CODE,delta=1
    38                           	psect	text21,global,reloc=2,class=CODE,delta=1
    39                           	psect	text22,global,reloc=2,class=CODE,delta=1
    40                           	psect	text23,global,reloc=2,class=CODE,delta=1,group=1
    41                           	psect	text24,global,reloc=2,class=CODE,delta=1
    42                           	psect	text25,global,reloc=2,class=CODE,delta=1
    43                           	psect	text26,global,reloc=2,class=CODE,delta=1
    44                           	psect	text27,global,reloc=2,class=CODE,delta=1
    45                           	psect	intcode,global,reloc=2,class=CODE,delta=1
    46                           	psect	text29,global,reloc=2,class=CODE,delta=1
    47                           	psect	text30,global,reloc=2,class=CODE,delta=1
    48                           	psect	text31,global,reloc=2,class=CODE,delta=1
    49                           	psect	text32,global,reloc=2,class=CODE,delta=1
    50                           	psect	text33,global,reloc=2,class=CODE,delta=1
    51                           	psect	text34,global,reloc=2,class=CODE,delta=1
    52                           	psect	text35,global,reloc=2,class=CODE,delta=1,group=1
    53                           	psect	text36,global,reloc=2,class=CODE,delta=1,group=1
    54                           	psect	text37,global,reloc=2,class=CODE,delta=1,group=1
    55                           	psect	text38,global,reloc=2,class=CODE,delta=1,group=1
    56                           	psect	text39,global,reloc=2,class=CODE,delta=1
    57                           	psect	text40,global,reloc=2,class=CODE,delta=1
    58                           	psect	text41,global,reloc=2,class=CODE,delta=1
    59                           	psect	text42,global,reloc=2,class=CODE,delta=1
    60                           	psect	intsave_regs,global,class=BIGRAM,space=1,delta=1,noexec
    61                           	psect	rparam,global,class=COMRAM,space=1,delta=1,noexec
    62                           	psect	temp,global,ovrld,common,class=COMRAM,space=1,delta=1
    63  0000                     
    64                           ; Version 1.43
    65                           ; Generated 25/07/2017 GMT
    66                           ; 
    67                           ; Copyright © 2017, Microchip Technology Inc. and its subsidiaries ("Microchip")
    68                           ; All rights reserved.
    69                           ; 
    70                           ; This software is developed by Microchip Technology Inc. and its subsidiaries ("Microch
      +                          ip").
    71                           ; 
    72                           ; Redistribution and use in source and binary forms, with or without modification, are
    73                           ; permitted provided that the following conditions are met:
    74                           ; 
    75                           ;     1. Redistributions of source code must retain the above copyright notice, this lis
      +                          t of
    76                           ;        conditions and the following disclaimer.
    77                           ; 
    78                           ;     2. Redistributions in binary form must reproduce the above copyright notice, this 
      +                          list
    79                           ;        of conditions and the following disclaimer in the documentation and/or other
    80                           ;        materials provided with the distribution.
    81                           ; 
    82                           ;     3. Microchip's name may not be used to endorse or promote products derived from th
      +                          is
    83                           ;        software without specific prior written permission.
    84                           ; 
    85                           ; THIS SOFTWARE IS PROVIDED BY MICROCHIP "AS IS" AND ANY EXPRESS OR IMPLIED WARRANTIES,
    86                           ; INCLUDING, BUT NOT LIMITED TO, THE IMPLIED WARRANTIES OF MERCHANTABILITY AND FITNESS F
      +                          OR
    87                           ; PURPOSE ARE DISCLAIMED.  IN NO EVENT SHALL MICROCHIP BE LIABLE FOR ANY DIRECT, INDIREC
      +                          T,
    88                           ; INCIDENTAL, SPECIAL, EXEMPLARY, OR CONSEQUENTIAL DAMAGES (INCLUDING BUT NOT LIMITED TO
    89                           ; PROCUREMENT OF SUBSTITUTE GOODS OR SERVICES; LOSS OF USE, DATA OR PROFITS; OR BUSINESS
    90                           ; INTERRUPTION) HOWSOEVER CAUSED AND ON ANY THEORY OF LIABILITY, WHETHER IN CONTRACT, ST
      +                          RICT
    91                           ; LIABILITY, OR TORT (INCLUDING NEGLIGENCE OR OTHERWISE) ARISING IN ANY WAY OUT OF THE U
      +                          SE OF
    92                           ; THIS SOFTWARE, EVEN IF ADVISED OF THE POSSIBILITY OF SUCH DAMAGE.
    93                           ; 
    94                           ; 
    95                           ; Code-generator required, PIC18F85J94 Definitions
    96                           ; 
    97                           ; SFR Addresses
    98  0000                     
    99                           	psect	idataCOMRAM
   100  001C62                     __pidataCOMRAM:
   101                           	opt stack 0
   102                           
   103                           ;initializer for _currentTapTime
   104  001C62  01F4               	dw	500
   105                           
   106                           ;initializer for _tapOnTime
   107  001C64  0005               	dw	5
   108                           
   109                           ;initializer for _swX
   110  001C66  0001               	dw	1
   111                           
   112                           	psect	idataBANK0
   113  001C4A                     __pidataBANK0:
   114                           	opt stack 0
   115                           
   116                           ;initializer for _presetAdd
   117  001C4A  0000               	dw	0
   118  001C4C  0010               	dw	16
   119  001C4E  0020               	dw	32
   120  001C50  0030               	dw	48
   121  001C52  0040               	dw	64
   122                           
   123                           ;initializer for _bypMode
   124  001C54  0001               	dw	1
   125                           
   126                           	psect	idataBANK1
   127  001A5E                     __pidataBANK1:
   128                           	opt stack 0
   129                           
   130                           ;initializer for _paramAddress
   131  001A5E  00A1               	dw	161
   132  001A60  00A3               	dw	163
   133  001A62  00A5               	dw	165
   134  001A64  00A7               	dw	167
   135  001A66  00A9               	dw	169
   136  001A68  00AB               	dw	171
   137  001A6A  00AD               	dw	173
   138  001A6C  00AF               	dw	175
   139  001A6E  00B1               	dw	177
   140  001A70  00B3               	dw	179
   141  001A72  00B5               	dw	181
   142  001A74  00B7               	dw	183
   143  001A76  00B9               	dw	185
   144  001A78  00BB               	dw	187
   145  001A7A  00BD               	dw	189
   146  001A7C  00BF               	dw	191
   147                           
   148                           ;initializer for _presetParams
   149  001A7E  0000               	dw	0
   150  001A80  00FF               	dw	255
   151  001A82  007F               	dw	127
   152  001A84  007F               	dw	127
   153  001A86  0000               	dw	0
   154  001A88  0000               	dw	0
   155  001A8A  0000               	dw	0
   156  001A8C  0000               	dw	0
   157  001A8E  0000               	dw	0
   158  001A90  0000               	dw	0
   159  001A92  0000               	dw	0
   160  001A94  0000               	dw	0
   161  0000                     _ADCBUF9	set	3672
   162  0000                     _ADCBUF8	set	3670
   163  0000                     _ADCBUF14	set	3682
   164  0000                     _ADCBUF6	set	3666
   165  0000                     _ADCBUF5	set	3664
   166  0000                     _ADCBUF4	set	3662
   167  0000                     _ADCBUF3	set	3660
   168  0000                     _ADCBUF2	set	3658
   169  0000                     _ADCBUF1	set	3656
   170  0000                     _MEMCONbits	set	3811
   171  0000                     _LCDSE7	set	3797
   172  0000                     _LCDSE6	set	3796
   173  0000                     _LCDSE5	set	3795
   174  0000                     _LCDSE4	set	3794
   175  0000                     _LCDSE3	set	3793
   176  0000                     _LCDSE2	set	3792
   177  0000                     _LCDSE1	set	3791
   178  0000                     _LCDSE0	set	3790
   179  0000                     _LCDCONbits	set	3801
   180  0000                     _RPINR22_23bits	set	3637
   181  0000                     _RPINR18_19bits	set	3635
   182  0000                     _RPINR24_25bits	set	3638
   183  0000                     _RPINR20_21bits	set	3636
   184  0000                     _ANCON3bits	set	3653
   185  0000                     _ANCON2bits	set	3654
   186  0000                     _ANCON1bits	set	3655
   187  0000                     _ADCHS0Lbits	set	3718
   188  0000                     _ADCON5Hbits	set	3721
   189  0000                     _ADCON3Lbits	set	3722
   190  0000                     _ADCON3Hbits	set	3723
   191  0000                     _ADCON2Hbits	set	3725
   192  0000                     _IOCPbits	set	3926
   193  0000                     _IOCNbits	set	3925
   194  0000                     _PADCFG1bits	set	3924
   195  0000                     _T5CONbits	set	3860
   196  0000                     _CM3CONbits	set	3895
   197  0000                     _CM2CONbits	set	3896
   198  0000                     _CM1CONbits	set	3923
   199  0000                     _SSP2BUF	set	3843
   200  0000                     _SSP2CON3bits	set	3897
   201  0000                     _SSP2CON2bits	set	3864
   202  0000                     _SSP2MSK	set	3863
   203  0000                     _SSP2ADD	set	3842
   204  0000                     _SSP2CON1bits	set	3865
   205  0000                     _CCPR4H	set	3858
   206  0000                     _CCPTMRS1bits	set	3893
   207  0000                     _CCP4CONbits	set	3856
   208  0000                     _CCPR4L	set	3857
   209  0000                     _T4CONbits	set	3844
   210  0000                     _ADCBUF0	set	4034
   211  0000                     _SSP1STATbits	set	4039
   212  0000                     _PIR1bits	set	3998
   213  0000                     _SSP1CON2bits	set	4037
   214  0000                     _IOCFbits	set	4049
   215  0000                     _PIE5bits	set	4023
   216  0000                     _PIE2bits	set	4000
   217  0000                     _PIE1bits	set	3997
   218  0000                     _INTCONbits	set	4082
   219  0000                     _TRISBbits	set	3987
   220  0000                     _TRISJbits	set	3994
   221  0000                     _TRISEbits	set	3990
   222  0000                     _T3CONbits	set	4017
   223  0000                     _UCONbits	set	3957
   224  0000                     _OSCCON	set	4051
   225  0000                     _TRISGbits	set	3992
   226  0000                     _TRISHbits	set	3993
   227  0000                     _TRISFbits	set	3991
   228  0000                     _TRISAbits	set	3986
   229  0000                     _ADCON1Lbits	set	4032
   230  0000                     _ADCON1Hbits	set	4033
   231  0000                     _TRISDbits	set	3989
   232  0000                     _SSP1BUF	set	4041
   233  0000                     _SSP1ADD	set	4040
   234  0000                     _SSP1CON1bits	set	4038
   235  0000                     _T2CON	set	4042
   236  0000                     _TRISCbits	set	3988
   237  0000                     _PR2	set	4043
   238  0000                     _OSCCONbits	set	4051
   239  0000                     _OSCCON2bits	set	3942
   240  0000                     _OSCCON3bits	set	3941
   241  0000                     _OSCCON4bits	set	3940
   242  0000                     _T1CONbits	set	4045
   243  0000                     _T0CONbits	set	4053
   244  0000                     _T2CONbits	set	4042
   245  0000                     _PIR2bits	set	4001
   246  0000                     _RJ0	set	31808
   247  0000                     _RJ1	set	31809
   248  0000                     _RH4	set	31804
   249  0000                     _RH5	set	31805
   250  0000                     _RF3	set	31787
   251  0000                     _RC6	set	31766
   252  0000                     _RC0	set	31760
   253  0000                     _RC1	set	31761
   254  0000                     _RJ5	set	31813
   255  0000                     _RJ4	set	31812
   256  0000                     _RC7	set	31767
   257  0000                     _RG3	set	31795
   258  0000                     _RD1	set	31769
   259  0000                     _RE6	set	31782
   260  0000                     _RG2	set	31794
   261  0000                     _RG1	set	31793
   262  0000                     _RE3	set	31779
   263  0000                     _RD4	set	31772
   264  0000                     _IOCF7	set	32399
   265  0000                     _IOCF6	set	32398
   266  0000                     _IOCF5	set	32397
   267  0000                     _IOCF4	set	32396
   268  0000                     _IOCF3	set	32395
   269  0000                     _IOCF2	set	32394
   270  0000                     _IOCF1	set	32393
   271  0000                     _LATE0	set	31848
   272  0000                     _LATD2	set	31842
   273  0000                     _LATH1	set	31873
   274  0000                     _LATE1	set	31849
   275  0000                     _LATH2	set	31874
   276  0000                     _LATE4	set	31852
   277  0000                     _LATE5	set	31853
   278  0000                     _LATE7	set	31855
   279  0000                     _LATD0	set	31840
   280  0000                     _LATH0	set	31872
   281  0000                     _LATG4	set	31868
   282  0000                     _LATF6	set	31862
   283  0000                     _LATF5	set	31861
   284  0000                     _LATF2	set	31858
   285  0000                     _LATH7	set	31879
   286  0000                     _LATD3	set	31843
   287  0000                     _LATB5	set	31829
   288  0000                     _TMR2ON	set	32338
   289  0000                     _RD7	set	31775
   290  0000                     _TMR0IF	set	32658
   291  0000                     _TMR2IF	set	31985
   292  0000                     _TMR4IF	set	32192
   293  0000                     _SSP2IF	set	32014
   294                           
   295                           ; #config settings
   296  0000                     
   297                           	psect	cinit
   298  001686                     __pcinit:
   299                           	opt stack 0
   300  001686                     start_initialization:
   301                           	opt stack 0
   302  001686                     __initialization:
   303                           	opt stack 0
   304                           
   305                           ; Initialize objects allocated to BANK1 (56 bytes)
   306                           ; load TBLPTR registers with __pidataBANK1
   307  001686  0E5E               	movlw	low __pidataBANK1
   308  001688  6EF6               	movwf	tblptrl,c
   309  00168A  0E1A               	movlw	high __pidataBANK1
   310  00168C  6EF7               	movwf	tblptrh,c
   311  00168E  0E00               	movlw	low (__pidataBANK1 shr (0+16))
   312  001690  6EF8               	movwf	tblptru,c
   313  001692  EE01  F090         	lfsr	0,__pdataBANK1
   314  001696  EE10 F038          	lfsr	1,56
   315  00169A                     copy_data0:
   316  00169A  0009               	tblrd		*+
   317  00169C  CFF5 FFEE          	movff	tablat,postinc0
   318  0016A0  50E5               	movf	postdec1,w,c
   319  0016A2  50E1               	movf	fsr1l,w,c
   320  0016A4  E1FA               	bnz	copy_data0
   321                           
   322                           ; Initialize objects allocated to BANK0 (12 bytes)
   323                           ; load TBLPTR registers with __pidataBANK0
   324  0016A6  0E4A               	movlw	low __pidataBANK0
   325  0016A8  6EF6               	movwf	tblptrl,c
   326  0016AA  0E1C               	movlw	high __pidataBANK0
   327  0016AC  6EF7               	movwf	tblptrh,c
   328  0016AE  0E00               	movlw	low (__pidataBANK0 shr (0+16))
   329  0016B0  6EF8               	movwf	tblptru,c
   330  0016B2  EE00  F0E8         	lfsr	0,__pdataBANK0
   331  0016B6  EE10 F00C          	lfsr	1,12
   332  0016BA                     copy_data1:
   333  0016BA  0009               	tblrd		*+
   334  0016BC  CFF5 FFEE          	movff	tablat,postinc0
   335  0016C0  50E5               	movf	postdec1,w,c
   336  0016C2  50E1               	movf	fsr1l,w,c
   337  0016C4  E1FA               	bnz	copy_data1
   338                           
   339                           ; Initialize objects allocated to COMRAM (6 bytes)
   340                           ; load TBLPTR registers with __pidataCOMRAM
   341  0016C6  0E62               	movlw	low __pidataCOMRAM
   342  0016C8  6EF6               	movwf	tblptrl,c
   343  0016CA  0E1C               	movlw	high __pidataCOMRAM
   344  0016CC  6EF7               	movwf	tblptrh,c
   345  0016CE  0E00               	movlw	low (__pidataCOMRAM shr (0+16))
   346  0016D0  6EF8               	movwf	tblptru,c
   347  0016D2  EE00  F058         	lfsr	0,__pdataCOMRAM
   348  0016D6  EE10 F006          	lfsr	1,6
   349  0016DA                     copy_data2:
   350  0016DA  0009               	tblrd		*+
   351  0016DC  CFF5 FFEE          	movff	tablat,postinc0
   352  0016E0  50E5               	movf	postdec1,w,c
   353  0016E2  50E1               	movf	fsr1l,w,c
   354  0016E4  E1FA               	bnz	copy_data2
   355                           
   356                           ; Clear objects allocated to BANK1 (144 bytes)
   357  0016E6  EE01  F000         	lfsr	0,__pbssBANK1
   358  0016EA  0E90               	movlw	144
   359  0016EC                     clear_0:
   360  0016EC  6AEE               	clrf	postinc0,c
   361  0016EE  06E8               	decf	wreg,f,c
   362  0016F0  E1FD               	bnz	clear_0
   363                           
   364                           ; Clear objects allocated to BANK0 (107 bytes)
   365  0016F2  EE00  F060         	lfsr	0,__pbssBANK0
   366  0016F6  0E6B               	movlw	107
   367  0016F8                     clear_1:
   368  0016F8  6AEE               	clrf	postinc0,c
   369  0016FA  06E8               	decf	wreg,f,c
   370  0016FC  E1FD               	bnz	clear_1
   371                           
   372                           ; Clear objects allocated to COMRAM (32 bytes)
   373  0016FE  EE00  F038         	lfsr	0,__pbssCOMRAM
   374  001702  0E20               	movlw	32
   375  001704                     clear_2:
   376  001704  6AEE               	clrf	postinc0,c
   377  001706  06E8               	decf	wreg,f,c
   378  001708  E1FD               	bnz	clear_2
   379  00170A                     end_of_initialization:
   380                           	opt stack 0
   381  00170A                     __end_of__initialization:
   382                           	opt stack 0
   383  00170A  905E               	bcf	int$flags,0,c	;clear compiler interrupt flag (level 1)
   384  00170C  925E               	bcf	int$flags,1,c	;clear compiler interrupt flag (level 2)
   385  00170E  0100               	movlb	0
   386  001710  EFDA  F004         	goto	_main	;jump to C main() function
   387                           tblptru	equ	0xFF8
   388                           tblptrh	equ	0xFF7
   389                           tblptrl	equ	0xFF6
   390                           tablat	equ	0xFF5
   391                           postinc0	equ	0xFEE
   392                           wreg	equ	0xFE8
   393                           postdec1	equ	0xFE5
   394                           fsr1l	equ	0xFE1
   395                           
   396                           	psect	bssCOMRAM
   397  000038                     __pbssCOMRAM:
   398                           	opt stack 0
   399  000038                     _tap:
   400                           	opt stack 0
   401  000038                     	ds	2
   402  00003A                     _tapPrev:
   403                           	opt stack 0
   404  00003A                     	ds	2
   405  00003C                     _tapTimeCount:
   406                           	opt stack 0
   407  00003C                     	ds	2
   408  00003E                     _shift:
   409                           	opt stack 0
   410  00003E                     	ds	2
   411  000040                     _tapDispCount:
   412                           	opt stack 0
   413  000040                     	ds	2
   414  000042                     _presetPend:
   415                           	opt stack 0
   416  000042                     	ds	2
   417  000044                     _targPreset:
   418                           	opt stack 0
   419  000044                     	ds	2
   420  000046                     _bypass:
   421                           	opt stack 0
   422  000046                     	ds	2
   423  000048                     _switch4:
   424                           	opt stack 0
   425  000048                     	ds	2
   426  00004A                     _switch3:
   427                           	opt stack 0
   428  00004A                     	ds	2
   429  00004C                     _switch2:
   430                           	opt stack 0
   431  00004C                     	ds	2
   432  00004E                     _switch1:
   433                           	opt stack 0
   434  00004E                     	ds	2
   435  000050                     _shiftAction:
   436                           	opt stack 0
   437  000050                     	ds	2
   438  000052                     _intC:
   439                           	opt stack 0
   440  000052                     	ds	2
   441  000054                     _intB:
   442                           	opt stack 0
   443  000054                     	ds	2
   444  000056                     _intA:
   445                           	opt stack 0
   446  000056                     	ds	2
   447                           tblptru	equ	0xFF8
   448                           tblptrh	equ	0xFF7
   449                           tblptrl	equ	0xFF6
   450                           tablat	equ	0xFF5
   451                           postinc0	equ	0xFEE
   452                           wreg	equ	0xFE8
   453                           postdec1	equ	0xFE5
   454                           fsr1l	equ	0xFE1
   455                           
   456                           	psect	dataCOMRAM
   457  000058                     __pdataCOMRAM:
   458                           	opt stack 0
   459  000058                     _currentTapTime:
   460                           	opt stack 0
   461  000058                     	ds	2
   462  00005A                     _tapOnTime:
   463                           	opt stack 0
   464  00005A                     	ds	2
   465  00005C                     _swX:
   466                           	opt stack 0
   467  00005C                     	ds	2
   468                           tblptru	equ	0xFF8
   469                           tblptrh	equ	0xFF7
   470                           tblptrl	equ	0xFF6
   471                           tablat	equ	0xFF5
   472                           postinc0	equ	0xFEE
   473                           wreg	equ	0xFE8
   474                           postdec1	equ	0xFE5
   475                           fsr1l	equ	0xFE1
   476                           
   477                           	psect	bssBANK0
   478  000060                     __pbssBANK0:
   479                           	opt stack 0
   480  000060                     _tapAccum:
   481                           	opt stack 0
   482  000060                     	ds	4
   483  000064                     _masterTime:
   484                           	opt stack 0
   485  000064                     	ds	3
   486  000067                     _sync:
   487                           	opt stack 0
   488  000067                     	ds	2
   489  000069                     _setupComplete:
   490                           	opt stack 0
   491  000069                     	ds	2
   492  00006B                     _lock:
   493                           	opt stack 0
   494  00006B                     	ds	2
   495  00006D                     _timeoutCount:
   496                           	opt stack 0
   497  00006D                     	ds	2
   498  00006F                     _newTempo:
   499                           	opt stack 0
   500  00006F                     	ds	2
   501  000071                     _tapTime:
   502                           	opt stack 0
   503  000071                     	ds	2
   504  000073                     _timeC:
   505                           	opt stack 0
   506  000073                     	ds	2
   507  000075                     _lvlC:
   508                           	opt stack 0
   509  000075                     	ds	2
   510  000077                     _fbkC:
   511                           	opt stack 0
   512  000077                     	ds	2
   513  000079                     _timeB:
   514                           	opt stack 0
   515  000079                     	ds	2
   516  00007B                     _lvlB:
   517                           	opt stack 0
   518  00007B                     	ds	2
   519  00007D                     _fbkB:
   520                           	opt stack 0
   521  00007D                     	ds	2
   522  00007F                     _timeA:
   523                           	opt stack 0
   524  00007F                     	ds	2
   525  000081                     _lvlA:
   526                           	opt stack 0
   527  000081                     	ds	2
   528  000083                     _fbkA:
   529                           	opt stack 0
   530  000083                     	ds	2
   531  000085                     _dataPtr:
   532                           	opt stack 0
   533  000085                     	ds	2
   534  000087                     _dataTarget:
   535                           	opt stack 0
   536  000087                     	ds	2
   537  000089                     _linesArmed:
   538                           	opt stack 0
   539  000089                     	ds	2
   540  00008B                     _armC:
   541                           	opt stack 0
   542  00008B                     	ds	2
   543  00008D                     _armB:
   544                           	opt stack 0
   545  00008D                     	ds	2
   546  00008F                     _armA:
   547                           	opt stack 0
   548  00008F                     	ds	2
   549  000091                     _armFlashToggle:
   550                           	opt stack 0
   551  000091                     	ds	2
   552  000093                     _armFlash:
   553                           	opt stack 0
   554  000093                     	ds	2
   555  000095                     _armFlashCount:
   556                           	opt stack 0
   557  000095                     	ds	2
   558  000097                     _tapFlash:
   559                           	opt stack 0
   560  000097                     	ds	2
   561  000099                     _pFlash:
   562                           	opt stack 0
   563  000099                     	ds	2
   564  00009B                     _pFlashCount:
   565                           	opt stack 0
   566  00009B                     	ds	2
   567  00009D                     _slotUsed:
   568                           	opt stack 0
   569  00009D                     	ds	2
   570  00009F                     _savePend:
   571                           	opt stack 0
   572  00009F                     	ds	2
   573  0000A1                     _preset:
   574                           	opt stack 0
   575  0000A1                     	ds	2
   576  0000A3                     _muxADC:
   577                           	opt stack 0
   578  0000A3                     	ds	2
   579  0000A5                     _bounceCount:
   580                           	opt stack 0
   581  0000A5                     	ds	2
   582  0000A7                     _fsw2:
   583                           	opt stack 0
   584  0000A7                     	ds	2
   585  0000A9                     _fsw1:
   586                           	opt stack 0
   587  0000A9                     	ds	2
   588  0000AB                     _switch5:
   589                           	opt stack 0
   590  0000AB                     	ds	2
   591  0000AD                     _parameter:
   592                           	opt stack 0
   593  0000AD                     	ds	30
   594                           tblptru	equ	0xFF8
   595                           tblptrh	equ	0xFF7
   596                           tblptrl	equ	0xFF6
   597                           tablat	equ	0xFF5
   598                           postinc0	equ	0xFEE
   599                           wreg	equ	0xFE8
   600                           postdec1	equ	0xFE5
   601                           fsr1l	equ	0xFE1
   602                           
   603                           	psect	dataBANK0
   604  0000E8                     __pdataBANK0:
   605                           	opt stack 0
   606  0000E8                     _presetAdd:
   607                           	opt stack 0
   608  0000E8                     	ds	10
   609  0000F2                     _bypMode:
   610                           	opt stack 0
   611  0000F2                     	ds	2
   612                           tblptru	equ	0xFF8
   613                           tblptrh	equ	0xFF7
   614                           tblptrl	equ	0xFF6
   615                           tablat	equ	0xFF5
   616                           postinc0	equ	0xFEE
   617                           wreg	equ	0xFE8
   618                           postdec1	equ	0xFE5
   619                           fsr1l	equ	0xFE1
   620                           
   621                           	psect	bssBANK1
   622  000100                     __pbssBANK1:
   623                           	opt stack 0
   624  000100                     _userParams:
   625                           	opt stack 0
   626  000100                     	ds	120
   627  000178                     _presetRead:
   628                           	opt stack 0
   629  000178                     	ds	24
   630                           tblptru	equ	0xFF8
   631                           tblptrh	equ	0xFF7
   632                           tblptrl	equ	0xFF6
   633                           tablat	equ	0xFF5
   634                           postinc0	equ	0xFEE
   635                           wreg	equ	0xFE8
   636                           postdec1	equ	0xFE5
   637                           fsr1l	equ	0xFE1
   638                           
   639                           	psect	dataBANK1
   640  000190                     __pdataBANK1:
   641                           	opt stack 0
   642  000190                     _paramAddress:
   643                           	opt stack 0
   644  000190                     	ds	32
   645  0001B0                     _presetParams:
   646                           	opt stack 0
   647  0001B0                     	ds	24
   648                           tblptru	equ	0xFF8
   649                           tblptrh	equ	0xFF7
   650                           tblptrl	equ	0xFF6
   651                           tablat	equ	0xFF5
   652                           postinc0	equ	0xFEE
   653                           wreg	equ	0xFE8
   654                           postdec1	equ	0xFE5
   655                           fsr1l	equ	0xFE1
   656                           
   657                           	psect	cstackBANK0
   658  0000CB                     __pcstackBANK0:
   659                           	opt stack 0
   660  0000CB                     ??_startupSequence:
   661  0000CB                     ?_ADC_Read:
   662                           	opt stack 0
   663  0000CB                     ?_absVal:
   664                           	opt stack 0
   665  0000CB                     ?___wmul:
   666                           	opt stack 0
   667  0000CB                     I2C1_Write_DigiPot@value:
   668                           	opt stack 0
   669  0000CB                     absVal@val:
   670                           	opt stack 0
   671  0000CB                     ADC_Read@channel:
   672                           	opt stack 0
   673  0000CB                     I2C1_Page_Write_EEPROM@slot:
   674                           	opt stack 0
   675  0000CB                     I2C1_Block_Read_EERPOM@slot:
   676                           	opt stack 0
   677  0000CB                     ___wmul@multiplier:
   678                           	opt stack 0
   679  0000CB                     ___ftge@ff1:
   680                           	opt stack 0
   681                           
   682                           ; 3 bytes @ 0x0
   683  0000CB                     	ds	1
   684  0000CC                     I2C1_Write_DigiPot@wrCommand:
   685                           	opt stack 0
   686                           
   687                           ; 1 bytes @ 0x1
   688  0000CC                     	ds	1
   689  0000CD                     ??_absVal:
   690  0000CD                     ADC_Read@value:
   691                           	opt stack 0
   692  0000CD                     I2C1_Page_Write_EEPROM@data:
   693                           	opt stack 0
   694  0000CD                     I2C1_Block_Read_EERPOM@data:
   695                           	opt stack 0
   696  0000CD                     ___wmul@multiplicand:
   697                           	opt stack 0
   698                           
   699                           ; 2 bytes @ 0x2
   700  0000CD                     	ds	1
   701  0000CE                     ___ftge@ff2:
   702                           	opt stack 0
   703                           
   704                           ; 3 bytes @ 0x3
   705  0000CE                     	ds	1
   706  0000CF                     I2C1_Page_Write_EEPROM@bytes:
   707                           	opt stack 0
   708  0000CF                     I2C1_Block_Read_EERPOM@bytes:
   709                           	opt stack 0
   710  0000CF                     ___wmul@product:
   711                           	opt stack 0
   712                           
   713                           ; 2 bytes @ 0x4
   714  0000CF                     	ds	2
   715  0000D1                     ??_I2C1_Block_Read_EERPOM:
   716  0000D1                     ??_I2C1_Page_Write_EEPROM:
   717  0000D1                     ??___ftge:
   718  0000D1                     updatePreset@slot:
   719                           	opt stack 0
   720  0000D1                     updateParams@slot:
   721                           	opt stack 0
   722                           
   723                           ; 2 bytes @ 0x6
   724  0000D1                     	ds	1
   725  0000D2                     I2C1_Page_Write_EEPROM@wrDevAddr:
   726                           	opt stack 0
   727                           
   728                           ; 1 bytes @ 0x7
   729  0000D2                     	ds	1
   730  0000D3                     ??_updateParams:
   731  0000D3                     I2C1_Page_Write_EEPROM@memValue:
   732                           	opt stack 0
   733  0000D3                     I2C1_Block_Read_EERPOM@rdAddr:
   734                           	opt stack 0
   735  0000D3                     updatePreset@data:
   736                           	opt stack 0
   737                           
   738                           ; 2 bytes @ 0x8
   739  0000D3                     	ds	1
   740  0000D4                     ??_readControls:
   741  0000D4                     I2C1_Block_Read_EERPOM@memValue:
   742                           	opt stack 0
   743  0000D4                     I2C1_Page_Write_EEPROM@n:
   744                           	opt stack 0
   745                           
   746                           ; 2 bytes @ 0x9
   747  0000D4                     	ds	1
   748  0000D5                     ??_updatePreset:
   749  0000D5                     I2C1_Block_Read_EERPOM@dummyWrite:
   750                           	opt stack 0
   751  0000D5                     updateParams@i:
   752                           	opt stack 0
   753                           
   754                           ; 2 bytes @ 0xA
   755  0000D5                     	ds	1
   756  0000D6                     I2C1_Block_Read_EERPOM@n:
   757                           	opt stack 0
   758                           
   759                           ; 2 bytes @ 0xB
   760  0000D6                     	ds	1
   761  0000D7                     updatePreset@temp:
   762                           	opt stack 0
   763                           
   764                           ; 2 bytes @ 0xC
   765  0000D7                     	ds	2
   766  0000D9                     updatePreset@i:
   767                           	opt stack 0
   768                           
   769                           ; 2 bytes @ 0xE
   770  0000D9                     	ds	2
   771  0000DB                     fetchPreset@test:
   772                           	opt stack 0
   773                           
   774                           ; 2 bytes @ 0x10
   775  0000DB                     	ds	2
   776  0000DD                     fetchPreset@i:
   777                           	opt stack 0
   778                           
   779                           ; 2 bytes @ 0x12
   780  0000DD                     	ds	2
   781  0000DF                     ??_main:
   782                           
   783                           ; 1 bytes @ 0x14
   784  0000DF                     	ds	3
   785  0000E2                     main@prevDry:
   786                           	opt stack 0
   787                           
   788                           ; 2 bytes @ 0x17
   789  0000E2                     	ds	2
   790  0000E4                     main@diff:
   791                           	opt stack 0
   792                           
   793                           ; 2 bytes @ 0x19
   794  0000E4                     	ds	2
   795  0000E6                     main@dryLevel:
   796                           	opt stack 0
   797                           
   798                           ; 2 bytes @ 0x1B
   799  0000E6                     	ds	2
   800                           tblptru	equ	0xFF8
   801                           tblptrh	equ	0xFF7
   802                           tblptrl	equ	0xFF6
   803                           tablat	equ	0xFF5
   804                           postinc0	equ	0xFEE
   805                           wreg	equ	0xFE8
   806                           postdec1	equ	0xFE5
   807                           fsr1l	equ	0xFE1
   808                           
   809                           	psect	cstackCOMRAM
   810  000001                     __pcstackCOMRAM:
   811                           	opt stack 0
   812  000001                     ??_tapLED:
   813  000001                     ?___awdiv:
   814                           	opt stack 0
   815  000001                     ?i2_absVal:
   816                           	opt stack 0
   817  000001                     ?___ftpack:
   818                           	opt stack 0
   819  000001                     checkSwitches@flag:
   820                           	opt stack 0
   821  000001                     updateLineLEDs@lineA:
   822                           	opt stack 0
   823  000001                     updatePresetLEDs@psNum:
   824                           	opt stack 0
   825  000001                     ___awdiv@dividend:
   826                           	opt stack 0
   827  000001                     i2absVal@val:
   828                           	opt stack 0
   829  000001                     ___ftpack@arg:
   830                           	opt stack 0
   831                           
   832                           ; 3 bytes @ 0x0
   833  000001                     	ds	2
   834  000003                     ??i2_absVal:
   835  000003                     updateLineLEDs@lineB:
   836                           	opt stack 0
   837  000003                     sendParam@n:
   838                           	opt stack 0
   839  000003                     ___awdiv@divisor:
   840                           	opt stack 0
   841                           
   842                           ; 2 bytes @ 0x2
   843  000003                     	ds	1
   844  000004                     ___ftpack@exp:
   845                           	opt stack 0
   846                           
   847                           ; 1 bytes @ 0x3
   848  000004                     	ds	1
   849  000005                     ___awdiv@counter:
   850                           	opt stack 0
   851  000005                     ___ftpack@sign:
   852                           	opt stack 0
   853  000005                     updateLineLEDs@lineC:
   854                           	opt stack 0
   855                           
   856                           ; 2 bytes @ 0x4
   857  000005                     	ds	1
   858  000006                     ??___ftpack:
   859  000006                     ___awdiv@sign:
   860                           	opt stack 0
   861                           
   862                           ; 1 bytes @ 0x5
   863  000006                     	ds	1
   864  000007                     ___awdiv@quotient:
   865                           	opt stack 0
   866                           
   867                           ; 2 bytes @ 0x6
   868  000007                     	ds	2
   869  000009                     ?___awtoft:
   870                           	opt stack 0
   871  000009                     ___awtoft@c:
   872                           	opt stack 0
   873                           
   874                           ; 2 bytes @ 0x8
   875  000009                     	ds	3
   876  00000C                     ___awtoft@sign:
   877                           	opt stack 0
   878                           
   879                           ; 1 bytes @ 0xB
   880  00000C                     	ds	1
   881  00000D                     ?___ftmul:
   882                           	opt stack 0
   883  00000D                     ___ftmul@f1:
   884                           	opt stack 0
   885                           
   886                           ; 3 bytes @ 0xC
   887  00000D                     	ds	3
   888  000010                     ___ftmul@f2:
   889                           	opt stack 0
   890                           
   891                           ; 3 bytes @ 0xF
   892  000010                     	ds	3
   893  000013                     ??___ftmul:
   894                           
   895                           ; 1 bytes @ 0x12
   896  000013                     	ds	3
   897  000016                     ___ftmul@exp:
   898                           	opt stack 0
   899                           
   900                           ; 1 bytes @ 0x15
   901  000016                     	ds	1
   902  000017                     ___ftmul@f3_as_product:
   903                           	opt stack 0
   904                           
   905                           ; 3 bytes @ 0x16
   906  000017                     	ds	3
   907  00001A                     ___ftmul@cntr:
   908                           	opt stack 0
   909                           
   910                           ; 1 bytes @ 0x19
   911  00001A                     	ds	1
   912  00001B                     ___ftmul@sign:
   913                           	opt stack 0
   914                           
   915                           ; 1 bytes @ 0x1A
   916  00001B                     	ds	1
   917  00001C                     ??_processTaps:
   918                           
   919                           ; 1 bytes @ 0x1B
   920  00001C                     	ds	2
   921  00001E                     processTaps@tapDiff:
   922                           	opt stack 0
   923                           
   924                           ; 2 bytes @ 0x1D
   925  00001E                     	ds	2
   926  000020                     serviceSwitches@a:
   927                           	opt stack 0
   928                           
   929                           ; 2 bytes @ 0x1F
   930  000020                     	ds	2
   931  000022                     serviceSwitches@b:
   932                           	opt stack 0
   933                           
   934                           ; 2 bytes @ 0x21
   935  000022                     	ds	2
   936  000024                     serviceSwitches@c:
   937                           	opt stack 0
   938                           
   939                           ; 2 bytes @ 0x23
   940  000024                     	ds	2
   941  000026                     ??_highPriorityISR:
   942                           
   943                           ; 1 bytes @ 0x25
   944  000026                     	ds	18
   945                           tblptru	equ	0xFF8
   946                           tblptrh	equ	0xFF7
   947                           tblptrl	equ	0xFF6
   948                           tablat	equ	0xFF5
   949                           postinc0	equ	0xFEE
   950                           wreg	equ	0xFE8
   951                           postdec1	equ	0xFE5
   952                           fsr1l	equ	0xFE1
   953                           
   954 ;;
   955 ;;Main: autosize = 0, tempsize = 3, incstack = 0, save=0
   956 ;;
   957 ;; *************** function _main *****************
   958 ;; Defined at:
   959 ;;		line 263 in file "main.c"
   960 ;; Parameters:    Size  Location     Type
   961 ;;		None
   962 ;; Auto vars:     Size  Location     Type
   963 ;;  dryLevel        2   27[BANK0 ] int 
   964 ;;  diff            2   25[BANK0 ] int 
   965 ;;  prevDry         2   23[BANK0 ] int 
   966 ;; Return value:  Size  Location     Type
   967 ;;                  1    wreg      void 
   968 ;; Registers used:
   969 ;;		wreg, fsr1l, fsr1h, fsr2l, fsr2h, status,2, status,0, prodl, prodh, cstack
   970 ;; Tracked objects:
   971 ;;		On entry : 0/0
   972 ;;		On exit  : 0/0
   973 ;;		Unchanged: 0/0
   974 ;; Data sizes:     COMRAM   BANK0   BANK1   BANK2   BANK3   BANK4   BANK5   BANK6   BANK7   BANK8   BANK9  BANK10  BANK1
      +1  BANK12  BANK13
   975 ;;      Params:         0       0       0       0       0       0       0       0       0       0       0       0       
      +0       0       0
   976 ;;      Locals:         0       6       0       0       0       0       0       0       0       0       0       0       
      +0       0       0
   977 ;;      Temps:          0       3       0       0       0       0       0       0       0       0       0       0       
      +0       0       0
   978 ;;      Totals:         0       9       0       0       0       0       0       0       0       0       0       0       
      +0       0       0
   979 ;;Total ram usage:        9 bytes
   980 ;; Hardware stack levels required when called:    8
   981 ;; This function calls:
   982 ;;		_ADC_Read
   983 ;;		_I2C1_Page_Write_EEPROM
   984 ;;		_I2C1_Write_DigiPot
   985 ;;		_absVal
   986 ;;		_fetchPreset
   987 ;;		_readControls
   988 ;;		_systemInit
   989 ;;		_updateParams
   990 ;;		_updatePreset
   991 ;; This function is called by:
   992 ;;		Startup code after reset
   993 ;; This function uses a non-reentrant model
   994 ;;
   995                           
   996                           	psect	text0
   997  0009B4                     __ptext0:
   998                           	opt stack 0
   999  0009B4                     _main:
  1000                           	opt stack 23
  1001                           
  1002                           ;main.c: 266: int dryLevel = 0;
  1003                           
  1004                           ;incstack = 0
  1005  0009B4  0E00               	movlw	0
  1006  0009B6  0100               	movlb	0	; () banked
  1007  0009B8  6FE7               	movwf	(main@dryLevel+1)& (0+255),b
  1008  0009BA  0E00               	movlw	0
  1009  0009BC  6FE6               	movwf	main@dryLevel& (0+255),b
  1010                           
  1011                           ;main.c: 267: int prevDry = 0;
  1012  0009BE  0E00               	movlw	0
  1013  0009C0  0100               	movlb	0	; () banked
  1014  0009C2  6FE3               	movwf	(main@prevDry+1)& (0+255),b
  1015  0009C4  0E00               	movlw	0
  1016  0009C6  6FE2               	movwf	main@prevDry& (0+255),b
  1017                           
  1018                           ;main.c: 268: int diff = 0;
  1019  0009C8  0E00               	movlw	0
  1020  0009CA  0100               	movlb	0	; () banked
  1021  0009CC  6FE5               	movwf	(main@diff+1)& (0+255),b
  1022  0009CE  0E00               	movlw	0
  1023  0009D0  6FE4               	movwf	main@diff& (0+255),b
  1024                           
  1025                           ; BSR set to: 0
  1026                           ;main.c: 270: systemInit();
  1027  0009D2  ECC9  F00C         	call	_systemInit	;wreg free
  1028                           
  1029                           ;main.c: 272: fetchPreset();
  1030  0009D6  EC8A  F00B         	call	_fetchPreset	;wreg free
  1031                           
  1032                           ;main.c: 274: T4CONbits.TMR4ON = 1;
  1033  0009DA  010F               	movlb	15	; () banked
  1034  0009DC  8504               	bsf	4,2,b	;volatile
  1035                           
  1036                           ; BSR set to: 15
  1037                           ;main.c: 276: I2C1_Write_DigiPot(0);
  1038  0009DE  0E00               	movlw	0
  1039  0009E0  EC0E  F00D         	call	_I2C1_Write_DigiPot
  1040  0009E4                     
  1041                           ;main.c: 279: {
  1042                           ;main.c: 280: if (savePend)
  1043  0009E4  0100               	movlb	0	; () banked
  1044  0009E6  519F               	movf	_savePend& (0+255),w,b
  1045  0009E8  0100               	movlb	0	; () banked
  1046  0009EA  11A0               	iorwf	(_savePend+1)& (0+255),w,b
  1047  0009EC  B4D8               	btfsc	status,2,c
  1048  0009EE  D028               	goto	l204
  1049                           
  1050                           ; BSR set to: 0
  1051                           ;main.c: 281: {
  1052                           ;main.c: 282: I2C1_Page_Write_EEPROM((preset-1), parameter, 12);
  1053  0009F0  0EFF               	movlw	255
  1054  0009F2  0100               	movlb	0	; () banked
  1055  0009F4  25A1               	addwf	_preset& (0+255),w,b
  1056  0009F6  0100               	movlb	0	; () banked
  1057  0009F8  6FCB               	movwf	I2C1_Page_Write_EEPROM@slot& (0+255),b
  1058  0009FA  0EFF               	movlw	255
  1059  0009FC  0100               	movlb	0	; () banked
  1060  0009FE  21A2               	addwfc	(_preset+1)& (0+255),w,b
  1061  000A00  0100               	movlb	0	; () banked
  1062  000A02  6FCC               	movwf	(I2C1_Page_Write_EEPROM@slot+1)& (0+255),b
  1063  000A04  0EAD               	movlw	low _parameter
  1064  000A06  0100               	movlb	0	; () banked
  1065  000A08  6FCD               	movwf	I2C1_Page_Write_EEPROM@data& (0+255),b
  1066  000A0A  0E00               	movlw	high _parameter
  1067  000A0C  0100               	movlb	0	; () banked
  1068  000A0E  6FCE               	movwf	(I2C1_Page_Write_EEPROM@data+1)& (0+255),b
  1069  000A10  0E00               	movlw	0
  1070  000A12  0100               	movlb	0	; () banked
  1071  000A14  6FD0               	movwf	(I2C1_Page_Write_EEPROM@bytes+1)& (0+255),b
  1072  000A16  0E0C               	movlw	12
  1073  000A18  6FCF               	movwf	I2C1_Page_Write_EEPROM@bytes& (0+255),b
  1074  000A1A  EC36  F008         	call	_I2C1_Page_Write_EEPROM	;wreg free
  1075                           
  1076                           ;main.c: 283: updatePreset(preset, parameter);
  1077  000A1E  C0A1  F0D1         	movff	_preset,updatePreset@slot
  1078  000A22  C0A2  F0D2         	movff	_preset+1,updatePreset@slot+1
  1079  000A26  0EAD               	movlw	low _parameter
  1080  000A28  0100               	movlb	0	; () banked
  1081  000A2A  6FD3               	movwf	updatePreset@data& (0+255),b
  1082  000A2C  0E00               	movlw	high _parameter
  1083  000A2E  0100               	movlb	0	; () banked
  1084  000A30  6FD4               	movwf	(updatePreset@data+1)& (0+255),b
  1085  000A32  ECEC  F008         	call	_updatePreset	;wreg free
  1086                           
  1087                           ;main.c: 284: savePend = 0;
  1088  000A36  0E00               	movlw	0
  1089  000A38  0100               	movlb	0	; () banked
  1090  000A3A  6FA0               	movwf	(_savePend+1)& (0+255),b
  1091  000A3C  0E00               	movlw	0
  1092  000A3E  6F9F               	movwf	_savePend& (0+255),b
  1093  000A40                     l204:
  1094                           
  1095                           ; BSR set to: 0
  1096                           ;main.c: 285: }
  1097                           ;main.c: 287: if (preset > 0)
  1098                           
  1099                           ; BSR set to: 0
  1100  000A40  0100               	movlb	0	; () banked
  1101  000A42  BFA2               	btfsc	(_preset+1)& (0+255),7,b
  1102  000A44  D00E               	goto	l205
  1103  000A46  0100               	movlb	0	; () banked
  1104  000A48  51A2               	movf	(_preset+1)& (0+255),w,b
  1105  000A4A  E104               	bnz	u4250
  1106  000A4C  0100               	movlb	0	; () banked
  1107  000A4E  05A1               	decf	_preset& (0+255),w,b
  1108  000A50  A0D8               	btfss	status,0,c
  1109  000A52  D007               	goto	l205
  1110  000A54                     u4250:
  1111                           
  1112                           ; BSR set to: 0
  1113                           ;main.c: 288: {
  1114                           ;main.c: 289: updateParams(preset);
  1115  000A54  C0A1  F0D1         	movff	_preset,updateParams@slot
  1116  000A58  C0A2  F0D2         	movff	_preset+1,updateParams@slot+1
  1117  000A5C  ECD6  F009         	call	_updateParams	;wreg free
  1118                           
  1119                           ;main.c: 290: }
  1120  000A60  D051               	goto	l207
  1121  000A62                     l205:
  1122                           
  1123                           ;main.c: 291: else
  1124                           ;main.c: 292: {
  1125                           ;main.c: 293: readControls();
  1126  000A62  EC18  F002         	call	_readControls	;wreg free
  1127                           
  1128                           ;main.c: 294: dryLevel = ADC_Read(8);
  1129  000A66  0E00               	movlw	0
  1130  000A68  0100               	movlb	0	; () banked
  1131  000A6A  6FCC               	movwf	(ADC_Read@channel+1)& (0+255),b
  1132  000A6C  0E08               	movlw	8
  1133  000A6E  6FCB               	movwf	ADC_Read@channel& (0+255),b
  1134  000A70  ECC2  F006         	call	_ADC_Read	;wreg free
  1135  000A74  C0CB  F0E6         	movff	?_ADC_Read,main@dryLevel
  1136  000A78  C0CC  F0E7         	movff	?_ADC_Read+1,main@dryLevel+1
  1137                           
  1138                           ;main.c: 295: dryLevel = dryLevel>>5;
  1139  000A7C  C0E6  F0DF         	movff	main@dryLevel,??_main
  1140  000A80  C0E7  F0E0         	movff	main@dryLevel+1,??_main+1
  1141  000A84  0E05               	movlw	5
  1142  000A86  0100               	movlb	0	; () banked
  1143  000A88  6FE1               	movwf	(??_main+2)& (0+255),b
  1144  000A8A                     u4265:
  1145  000A8A  0100               	movlb	0	; () banked
  1146  000A8C  35E0               	rlcf	(??_main+1)& (0+255),w,b
  1147  000A8E  33E0               	rrcf	(??_main+1)& (0+255),f,b
  1148  000A90  33DF               	rrcf	??_main& (0+255),f,b
  1149  000A92  0100               	movlb	0	; () banked
  1150  000A94  2FE1               	decfsz	(??_main+2)& (0+255),f,b
  1151  000A96  D7F9               	goto	u4265
  1152  000A98  C0DF  F0E6         	movff	??_main,main@dryLevel
  1153  000A9C  C0E0  F0E7         	movff	??_main+1,main@dryLevel+1
  1154                           
  1155                           ; BSR set to: 0
  1156                           ;main.c: 296: diff = dryLevel - prevDry;
  1157  000AA0  C0E2  F0DF         	movff	main@prevDry,??_main
  1158  000AA4  C0E3  F0E0         	movff	main@prevDry+1,??_main+1
  1159  000AA8  0100               	movlb	0	; () banked
  1160  000AAA  1FDF               	comf	??_main& (0+255),f,b
  1161  000AAC  1FE0               	comf	(??_main+1)& (0+255),f,b
  1162  000AAE  4BDF               	infsnz	??_main& (0+255),f,b
  1163  000AB0  2BE0               	incf	(??_main+1)& (0+255),f,b
  1164  000AB2  0100               	movlb	0	; () banked
  1165  000AB4  51E6               	movf	main@dryLevel& (0+255),w,b
  1166  000AB6  0100               	movlb	0	; () banked
  1167  000AB8  25DF               	addwf	??_main& (0+255),w,b
  1168  000ABA  0100               	movlb	0	; () banked
  1169  000ABC  6FE4               	movwf	main@diff& (0+255),b
  1170  000ABE  0100               	movlb	0	; () banked
  1171  000AC0  51E7               	movf	(main@dryLevel+1)& (0+255),w,b
  1172  000AC2  0100               	movlb	0	; () banked
  1173  000AC4  21E0               	addwfc	(??_main+1)& (0+255),w,b
  1174  000AC6  0100               	movlb	0	; () banked
  1175  000AC8  6FE5               	movwf	(main@diff+1)& (0+255),b
  1176                           
  1177                           ;main.c: 297: diff = absVal(diff);
  1178  000ACA  C0E4  F0CB         	movff	main@diff,absVal@val
  1179  000ACE  C0E5  F0CC         	movff	main@diff+1,absVal@val+1
  1180  000AD2  EC9A  F00D         	call	_absVal	;wreg free
  1181  000AD6  C0CB  F0E4         	movff	?_absVal,main@diff
  1182  000ADA  C0CC  F0E5         	movff	?_absVal+1,main@diff+1
  1183                           
  1184                           ;main.c: 299: if (diff >= 2)
  1185  000ADE  0100               	movlb	0	; () banked
  1186  000AE0  BFE5               	btfsc	(main@diff+1)& (0+255),7,b
  1187  000AE2  D010               	goto	l207
  1188  000AE4  0100               	movlb	0	; () banked
  1189  000AE6  51E5               	movf	(main@diff+1)& (0+255),w,b
  1190  000AE8  E105               	bnz	u4270
  1191  000AEA  0E02               	movlw	2
  1192  000AEC  0100               	movlb	0	; () banked
  1193  000AEE  5DE4               	subwf	main@diff& (0+255),w,b
  1194  000AF0  A0D8               	btfss	status,0,c
  1195  000AF2  D008               	goto	l207
  1196  000AF4                     u4270:
  1197                           
  1198                           ; BSR set to: 0
  1199                           ;main.c: 300: {
  1200                           ;main.c: 301: I2C1_Write_DigiPot(dryLevel);
  1201  000AF4  0100               	movlb	0	; () banked
  1202  000AF6  51E6               	movf	main@dryLevel& (0+255),w,b
  1203  000AF8  EC0E  F00D         	call	_I2C1_Write_DigiPot
  1204                           
  1205                           ;main.c: 302: prevDry = dryLevel;
  1206  000AFC  C0E6  F0E2         	movff	main@dryLevel,main@prevDry
  1207  000B00  C0E7  F0E3         	movff	main@dryLevel+1,main@prevDry+1
  1208  000B04                     l207:
  1209                           
  1210                           ;main.c: 303: }
  1211                           ;main.c: 304: }
  1212                           ;main.c: 307: if (!setupComplete)
  1213  000B04  0100               	movlb	0	; () banked
  1214  000B06  5169               	movf	_setupComplete& (0+255),w,b
  1215  000B08  0100               	movlb	0	; () banked
  1216  000B0A  116A               	iorwf	(_setupComplete+1)& (0+255),w,b
  1217  000B0C  A4D8               	btfss	status,2,c
  1218  000B0E  D76A               	goto	l203
  1219                           
  1220                           ; BSR set to: 0
  1221                           ;main.c: 308: {
  1222                           ;main.c: 309: setupComplete = 1;
  1223  000B10  0E00               	movlw	0
  1224  000B12  0100               	movlb	0	; () banked
  1225  000B14  6F6A               	movwf	(_setupComplete+1)& (0+255),b
  1226  000B16  0E01               	movlw	1
  1227  000B18  6F69               	movwf	_setupComplete& (0+255),b
  1228                           
  1229                           ; BSR set to: 0
  1230                           
  1231                           ; BSR set to: 0
  1232  000B1A  D764               	goto	l203
  1233  000B1C                     __end_of_main:
  1234                           	opt stack 0
  1235                           tblptru	equ	0xFF8
  1236                           tblptrh	equ	0xFF7
  1237                           tblptrl	equ	0xFF6
  1238                           tablat	equ	0xFF5
  1239                           postinc0	equ	0xFEE
  1240                           wreg	equ	0xFE8
  1241                           postdec1	equ	0xFE5
  1242                           fsr1l	equ	0xFE1
  1243                           status	equ	0xFD8
  1244                           
  1245 ;; *************** function _updateParams *****************
  1246 ;; Defined at:
  1247 ;;		line 241 in file "main.c"
  1248 ;; Parameters:    Size  Location     Type
  1249 ;;  slot            2    6[BANK0 ] int 
  1250 ;; Auto vars:     Size  Location     Type
  1251 ;;  i               2   10[BANK0 ] int 
  1252 ;; Return value:  Size  Location     Type
  1253 ;;                  1    wreg      void 
  1254 ;; Registers used:
  1255 ;;		wreg, fsr1l, fsr1h, fsr2l, fsr2h, status,2, status,0, prodl, prodh, cstack
  1256 ;; Tracked objects:
  1257 ;;		On entry : 0/0
  1258 ;;		On exit  : 0/0
  1259 ;;		Unchanged: 0/0
  1260 ;; Data sizes:     COMRAM   BANK0   BANK1   BANK2   BANK3   BANK4   BANK5   BANK6   BANK7   BANK8   BANK9  BANK10  BANK1
      +1  BANK12  BANK13
  1261 ;;      Params:         0       2       0       0       0       0       0       0       0       0       0       0       
      +0       0       0
  1262 ;;      Locals:         0       2       0       0       0       0       0       0       0       0       0       0       
      +0       0       0
  1263 ;;      Temps:          0       2       0       0       0       0       0       0       0       0       0       0       
      +0       0       0
  1264 ;;      Totals:         0       6       0       0       0       0       0       0       0       0       0       0       
      +0       0       0
  1265 ;;Total ram usage:        6 bytes
  1266 ;; Hardware stack levels used:    1
  1267 ;; Hardware stack levels required when called:    6
  1268 ;; This function calls:
  1269 ;;		___wmul
  1270 ;; This function is called by:
  1271 ;;		_main
  1272 ;; This function uses a non-reentrant model
  1273 ;;
  1274                           
  1275                           	psect	text1
  1276  0013AC                     __ptext1:
  1277                           	opt stack 0
  1278  0013AC                     _updateParams:
  1279                           	opt stack 24
  1280                           
  1281                           ;main.c: 243: int i;
  1282                           ;main.c: 245: for (i = 0; i < 12; i++)
  1283                           
  1284                           ; BSR set to: 0
  1285                           ;incstack = 0
  1286  0013AC  0E00               	movlw	0
  1287  0013AE  0100               	movlb	0	; () banked
  1288  0013B0  6FD6               	movwf	(updateParams@i+1)& (0+255),b
  1289  0013B2  0E00               	movlw	0
  1290  0013B4  6FD5               	movwf	updateParams@i& (0+255),b
  1291  0013B6                     l3937:
  1292                           
  1293                           ; BSR set to: 0
  1294  0013B6  0100               	movlb	0	; () banked
  1295  0013B8  BFD6               	btfsc	(updateParams@i+1)& (0+255),7,b
  1296  0013BA  D008               	goto	l191
  1297  0013BC  0100               	movlb	0	; () banked
  1298  0013BE  51D6               	movf	(updateParams@i+1)& (0+255),w,b
  1299  0013C0  E13E               	bnz	l193
  1300  0013C2  0E0C               	movlw	12
  1301  0013C4  0100               	movlb	0	; () banked
  1302  0013C6  5DD5               	subwf	updateParams@i& (0+255),w,b
  1303  0013C8  B0D8               	btfsc	status,0,c
  1304  0013CA  0012               	return	
  1305  0013CC                     l191:
  1306                           
  1307                           ; BSR set to: 0
  1308                           ;main.c: 246: {
  1309                           ;main.c: 247: parameter[i] = userParams[slot][i];
  1310                           
  1311                           ; BSR set to: 0
  1312  0013CC  C0D1  F0CB         	movff	updateParams@slot,___wmul@multiplier
  1313  0013D0  C0D2  F0CC         	movff	updateParams@slot+1,___wmul@multiplier+1
  1314  0013D4  0E00               	movlw	0
  1315  0013D6  0100               	movlb	0	; () banked
  1316  0013D8  6FCE               	movwf	(___wmul@multiplicand+1)& (0+255),b
  1317  0013DA  0E18               	movlw	24
  1318  0013DC  6FCD               	movwf	___wmul@multiplicand& (0+255),b
  1319  0013DE  EC67  F00D         	call	___wmul	;wreg free
  1320  0013E2  0E00               	movlw	low _userParams
  1321  0013E4  0100               	movlb	0	; () banked
  1322  0013E6  6FD3               	movwf	??_updateParams& (0+255),b
  1323  0013E8  0E01               	movlw	high _userParams
  1324  0013EA  0100               	movlb	0	; () banked
  1325  0013EC  6FD4               	movwf	(??_updateParams+1)& (0+255),b
  1326  0013EE  0100               	movlb	0	; () banked
  1327  0013F0  51CB               	movf	?___wmul& (0+255),w,b
  1328  0013F2  0100               	movlb	0	; () banked
  1329  0013F4  27D3               	addwf	??_updateParams& (0+255),f,b
  1330  0013F6  0100               	movlb	0	; () banked
  1331  0013F8  51CC               	movf	(?___wmul+1)& (0+255),w,b
  1332  0013FA  0100               	movlb	0	; () banked
  1333  0013FC  23D4               	addwfc	(??_updateParams+1)& (0+255),f,b
  1334  0013FE  90D8               	bcf	status,0,c
  1335  001400  0100               	movlb	0	; () banked
  1336  001402  35D5               	rlcf	updateParams@i& (0+255),w,b
  1337  001404  6ED9               	movwf	fsr2l,c
  1338  001406  0100               	movlb	0	; () banked
  1339  001408  35D6               	rlcf	(updateParams@i+1)& (0+255),w,b
  1340  00140A  6EDA               	movwf	fsr2h,c
  1341  00140C  0100               	movlb	0	; () banked
  1342  00140E  51D3               	movf	??_updateParams& (0+255),w,b
  1343  001410  26D9               	addwf	fsr2l,f,c
  1344  001412  0100               	movlb	0	; () banked
  1345  001414  51D4               	movf	(??_updateParams+1)& (0+255),w,b
  1346  001416  22DA               	addwfc	fsr2h,f,c
  1347  001418  90D8               	bcf	status,0,c
  1348  00141A  0100               	movlb	0	; () banked
  1349  00141C  35D5               	rlcf	updateParams@i& (0+255),w,b
  1350  00141E  6EE1               	movwf	fsr1l,c
  1351  001420  0100               	movlb	0	; () banked
  1352  001422  35D6               	rlcf	(updateParams@i+1)& (0+255),w,b
  1353  001424  6EE2               	movwf	fsr1h,c
  1354  001426  0EAD               	movlw	low _parameter
  1355  001428  26E1               	addwf	fsr1l,f,c
  1356  00142A  0E00               	movlw	high _parameter
  1357  00142C  22E2               	addwfc	fsr1h,f,c
  1358  00142E  CFDE FFE6          	movff	postinc2,postinc1
  1359  001432  CFDD FFE5          	movff	postdec2,postdec1
  1360                           
  1361                           ; BSR set to: 0
  1362  001436  0100               	movlb	0	; () banked
  1363  001438  4BD5               	infsnz	updateParams@i& (0+255),f,b
  1364  00143A  2BD6               	incf	(updateParams@i+1)& (0+255),f,b
  1365  00143C  D7BC               	goto	l3937
  1366  00143E                     l193:
  1367                           
  1368                           ; BSR set to: 0
  1369  00143E  0012               	return		;funcret
  1370  001440                     __end_of_updateParams:
  1371                           	opt stack 0
  1372                           tblptru	equ	0xFF8
  1373                           tblptrh	equ	0xFF7
  1374                           tblptrl	equ	0xFF6
  1375                           tablat	equ	0xFF5
  1376                           postinc0	equ	0xFEE
  1377                           wreg	equ	0xFE8
  1378                           postinc1	equ	0xFE6
  1379                           postdec1	equ	0xFE5
  1380                           fsr1h	equ	0xFE2
  1381                           fsr1l	equ	0xFE1
  1382                           postinc2	equ	0xFDE
  1383                           postdec2	equ	0xFDD
  1384                           fsr2h	equ	0xFDA
  1385                           fsr2l	equ	0xFD9
  1386                           status	equ	0xFD8
  1387                           
  1388 ;; *************** function _systemInit *****************
  1389 ;; Defined at:
  1390 ;;		line 338 in file "systemConfig.c"
  1391 ;; Parameters:    Size  Location     Type
  1392 ;;		None
  1393 ;; Auto vars:     Size  Location     Type
  1394 ;;		None
  1395 ;; Return value:  Size  Location     Type
  1396 ;;                  1    wreg      void 
  1397 ;; Registers used:
  1398 ;;		wreg, status,2, status,0, cstack
  1399 ;; Tracked objects:
  1400 ;;		On entry : 0/0
  1401 ;;		On exit  : 0/0
  1402 ;;		Unchanged: 0/0
  1403 ;; Data sizes:     COMRAM   BANK0   BANK1   BANK2   BANK3   BANK4   BANK5   BANK6   BANK7   BANK8   BANK9  BANK10  BANK1
      +1  BANK12  BANK13
  1404 ;;      Params:         0       0       0       0       0       0       0       0       0       0       0       0       
      +0       0       0
  1405 ;;      Locals:         0       0       0       0       0       0       0       0       0       0       0       0       
      +0       0       0
  1406 ;;      Temps:          0       0       0       0       0       0       0       0       0       0       0       0       
      +0       0       0
  1407 ;;      Totals:         0       0       0       0       0       0       0       0       0       0       0       0       
      +0       0       0
  1408 ;;Total ram usage:        0 bytes
  1409 ;; Hardware stack levels used:    1
  1410 ;; Hardware stack levels required when called:    6
  1411 ;; This function calls:
  1412 ;;		_bypassSetup
  1413 ;;		_clockSwitch
  1414 ;;		_defaultLED
  1415 ;;		_interfaceInit
  1416 ;;		_interruptInit
  1417 ;;		_killLEDs
  1418 ;;		_mapPeripheralPins
  1419 ;;		_setupADC
  1420 ;;		_setupI2C1
  1421 ;;		_setupI2C2
  1422 ;;		_setupTMR0
  1423 ;;		_setupTMR1
  1424 ;;		_setupTMR2
  1425 ;;		_setupTMR4
  1426 ;;		_startupSequence
  1427 ;; This function is called by:
  1428 ;;		_main
  1429 ;; This function uses a non-reentrant model
  1430 ;;
  1431                           
  1432                           	psect	text2
  1433  001992                     __ptext2:
  1434                           	opt stack 0
  1435  001992                     _systemInit:
  1436                           	opt stack 24
  1437                           
  1438                           ;systemConfig.c: 340: clockSwitch();
  1439                           
  1440                           ; BSR set to: 0
  1441                           ;incstack = 0
  1442  001992  ECC4  F00D         	call	_clockSwitch	;wreg free
  1443                           
  1444                           ;systemConfig.c: 342: setupTMR0();
  1445  001996  ECF3  F00D         	call	_setupTMR0	;wreg free
  1446                           
  1447                           ;systemConfig.c: 343: setupTMR1();
  1448  00199A  EC1E  F00E         	call	_setupTMR1	;wreg free
  1449                           
  1450                           ;systemConfig.c: 344: setupTMR2();
  1451  00199E  EC16  F00E         	call	_setupTMR2	;wreg free
  1452                           
  1453                           ;systemConfig.c: 345: setupTMR4();
  1454  0019A2  EC0B  F00E         	call	_setupTMR4	;wreg free
  1455                           
  1456                           ;systemConfig.c: 347: setupI2C1();
  1457  0019A6  ECE6  F00D         	call	_setupI2C1	;wreg free
  1458                           
  1459                           ;systemConfig.c: 348: setupI2C2();
  1460  0019AA  ECEC  F00C         	call	_setupI2C2	;wreg free
  1461                           
  1462                           ;systemConfig.c: 350: setupADC();
  1463  0019AE  ECB3  F00A         	call	_setupADC	;wreg free
  1464                           
  1465                           ;systemConfig.c: 353: mapPeripheralPins();
  1466  0019B2  EC78  F00C         	call	_mapPeripheralPins	;wreg free
  1467                           
  1468                           ;systemConfig.c: 354: interfaceInit();
  1469  0019B6  EC3C  F009         	call	_interfaceInit	;wreg free
  1470                           
  1471                           ;systemConfig.c: 355: bypassSetup();
  1472  0019BA  EC2B  F00E         	call	_bypassSetup	;wreg free
  1473                           
  1474                           ;systemConfig.c: 356: killLEDs();
  1475  0019BE  ECD6  F00D         	call	_killLEDs	;wreg free
  1476                           
  1477                           ;systemConfig.c: 357: startupSequence();
  1478  0019C2  EC8F  F003         	call	_startupSequence	;wreg free
  1479                           
  1480                           ;systemConfig.c: 358: defaultLED();
  1481  0019C6  ECFF  F00D         	call	_defaultLED	;wreg free
  1482                           
  1483                           ;systemConfig.c: 359: killLEDs();
  1484  0019CA  ECD6  F00D         	call	_killLEDs	;wreg free
  1485                           
  1486                           ;systemConfig.c: 360: bypassSetup();
  1487  0019CE  EC2B  F00E         	call	_bypassSetup	;wreg free
  1488                           
  1489                           ;systemConfig.c: 361: interruptInit();
  1490  0019D2  EC82  F00D         	call	_interruptInit	;wreg free
  1491  0019D6  0012               	return		;funcret
  1492  0019D8                     __end_of_systemInit:
  1493                           	opt stack 0
  1494                           tblptru	equ	0xFF8
  1495                           tblptrh	equ	0xFF7
  1496                           tblptrl	equ	0xFF6
  1497                           tablat	equ	0xFF5
  1498                           postinc0	equ	0xFEE
  1499                           wreg	equ	0xFE8
  1500                           postinc1	equ	0xFE6
  1501                           postdec1	equ	0xFE5
  1502                           fsr1h	equ	0xFE2
  1503                           fsr1l	equ	0xFE1
  1504                           postinc2	equ	0xFDE
  1505                           postdec2	equ	0xFDD
  1506                           fsr2h	equ	0xFDA
  1507                           fsr2l	equ	0xFD9
  1508                           status	equ	0xFD8
  1509                           
  1510 ;; *************** function _startupSequence *****************
  1511 ;; Defined at:
  1512 ;;		line 464 in file "hardware.c"
  1513 ;; Parameters:    Size  Location     Type
  1514 ;;		None
  1515 ;; Auto vars:     Size  Location     Type
  1516 ;;		None
  1517 ;; Return value:  Size  Location     Type
  1518 ;;                  1    wreg      void 
  1519 ;; Registers used:
  1520 ;;		wreg
  1521 ;; Tracked objects:
  1522 ;;		On entry : 0/0
  1523 ;;		On exit  : 0/0
  1524 ;;		Unchanged: 0/0
  1525 ;; Data sizes:     COMRAM   BANK0   BANK1   BANK2   BANK3   BANK4   BANK5   BANK6   BANK7   BANK8   BANK9  BANK10  BANK1
      +1  BANK12  BANK13
  1526 ;;      Params:         0       0       0       0       0       0       0       0       0       0       0       0       
      +0       0       0
  1527 ;;      Locals:         0       0       0       0       0       0       0       0       0       0       0       0       
      +0       0       0
  1528 ;;      Temps:          0       2       0       0       0       0       0       0       0       0       0       0       
      +0       0       0
  1529 ;;      Totals:         0       2       0       0       0       0       0       0       0       0       0       0       
      +0       0       0
  1530 ;;Total ram usage:        2 bytes
  1531 ;; Hardware stack levels used:    1
  1532 ;; Hardware stack levels required when called:    5
  1533 ;; This function calls:
  1534 ;;		Nothing
  1535 ;; This function is called by:
  1536 ;;		_systemInit
  1537 ;; This function uses a non-reentrant model
  1538 ;;
  1539                           
  1540                           	psect	text3
  1541  00071E                     __ptext3:
  1542                           	opt stack 0
  1543  00071E                     _startupSequence:
  1544                           	opt stack 24
  1545                           
  1546                           ;hardware.c: 469: LATD0 = 1;
  1547                           
  1548                           ;incstack = 0
  1549  00071E  808C               	bsf	3980,0,c	;volatile
  1550                           
  1551                           ;hardware.c: 470: _delay((unsigned long)((75)*(32000000/4000.0)));
  1552  000720  0E04               	movlw	4
  1553  000722  0100               	movlb	0	; () banked
  1554  000724  6FCC               	movwf	(??_startupSequence+1)& (0+255),b
  1555  000726  0E0C               	movlw	12
  1556  000728  0100               	movlb	0	; () banked
  1557  00072A  6FCB               	movwf	??_startupSequence& (0+255),b
  1558  00072C  0E33               	movlw	51
  1559  00072E                     u4297:
  1560  00072E  2EE8               	decfsz	wreg,f,c
  1561  000730  D7FE               	bra	u4297
  1562  000732  2FCB               	decfsz	??_startupSequence& (0+255),f,b
  1563  000734  D7FC               	bra	u4297
  1564  000736  2FCC               	decfsz	(??_startupSequence+1)& (0+255),f,b
  1565  000738  D7FA               	bra	u4297
  1566  00073A  D000               	nop2	
  1567                           
  1568                           ;hardware.c: 471: LATE7 = 1;
  1569  00073C  8E8D               	bsf	3981,7,c	;volatile
  1570                           
  1571                           ;hardware.c: 472: _delay((unsigned long)((75)*(32000000/4000.0)));
  1572  00073E  0E04               	movlw	4
  1573  000740  0100               	movlb	0	; () banked
  1574  000742  6FCC               	movwf	(??_startupSequence+1)& (0+255),b
  1575  000744  0E0C               	movlw	12
  1576  000746  0100               	movlb	0	; () banked
  1577  000748  6FCB               	movwf	??_startupSequence& (0+255),b
  1578  00074A  0E33               	movlw	51
  1579  00074C                     u4307:
  1580  00074C  2EE8               	decfsz	wreg,f,c
  1581  00074E  D7FE               	bra	u4307
  1582  000750  2FCB               	decfsz	??_startupSequence& (0+255),f,b
  1583  000752  D7FC               	bra	u4307
  1584  000754  2FCC               	decfsz	(??_startupSequence+1)& (0+255),f,b
  1585  000756  D7FA               	bra	u4307
  1586  000758  D000               	nop2	
  1587                           
  1588                           ;hardware.c: 473: LATE5 = 1;
  1589  00075A  8A8D               	bsf	3981,5,c	;volatile
  1590                           
  1591                           ;hardware.c: 474: _delay((unsigned long)((75)*(32000000/4000.0)));
  1592  00075C  0E04               	movlw	4
  1593  00075E  0100               	movlb	0	; () banked
  1594  000760  6FCC               	movwf	(??_startupSequence+1)& (0+255),b
  1595  000762  0E0C               	movlw	12
  1596  000764  0100               	movlb	0	; () banked
  1597  000766  6FCB               	movwf	??_startupSequence& (0+255),b
  1598  000768  0E33               	movlw	51
  1599  00076A                     u4317:
  1600  00076A  2EE8               	decfsz	wreg,f,c
  1601  00076C  D7FE               	bra	u4317
  1602  00076E  2FCB               	decfsz	??_startupSequence& (0+255),f,b
  1603  000770  D7FC               	bra	u4317
  1604  000772  2FCC               	decfsz	(??_startupSequence+1)& (0+255),f,b
  1605  000774  D7FA               	bra	u4317
  1606  000776  D000               	nop2	
  1607                           
  1608                           ;hardware.c: 475: LATE4 = 1;
  1609  000778  888D               	bsf	3981,4,c	;volatile
  1610                           
  1611                           ;hardware.c: 476: _delay((unsigned long)((75)*(32000000/4000.0)));
  1612  00077A  0E04               	movlw	4
  1613  00077C  0100               	movlb	0	; () banked
  1614  00077E  6FCC               	movwf	(??_startupSequence+1)& (0+255),b
  1615  000780  0E0C               	movlw	12
  1616  000782  0100               	movlb	0	; () banked
  1617  000784  6FCB               	movwf	??_startupSequence& (0+255),b
  1618  000786  0E33               	movlw	51
  1619  000788                     u4327:
  1620  000788  2EE8               	decfsz	wreg,f,c
  1621  00078A  D7FE               	bra	u4327
  1622  00078C  2FCB               	decfsz	??_startupSequence& (0+255),f,b
  1623  00078E  D7FC               	bra	u4327
  1624  000790  2FCC               	decfsz	(??_startupSequence+1)& (0+255),f,b
  1625  000792  D7FA               	bra	u4327
  1626  000794  D000               	nop2	
  1627                           
  1628                           ;hardware.c: 477: LATH2 = 1;
  1629  000796  8490               	bsf	3984,2,c	;volatile
  1630                           
  1631                           ;hardware.c: 478: _delay((unsigned long)((75)*(32000000/4000.0)));
  1632  000798  0E04               	movlw	4
  1633  00079A  0100               	movlb	0	; () banked
  1634  00079C  6FCC               	movwf	(??_startupSequence+1)& (0+255),b
  1635  00079E  0E0C               	movlw	12
  1636  0007A0  0100               	movlb	0	; () banked
  1637  0007A2  6FCB               	movwf	??_startupSequence& (0+255),b
  1638  0007A4  0E33               	movlw	51
  1639  0007A6                     u4337:
  1640  0007A6  2EE8               	decfsz	wreg,f,c
  1641  0007A8  D7FE               	bra	u4337
  1642  0007AA  2FCB               	decfsz	??_startupSequence& (0+255),f,b
  1643  0007AC  D7FC               	bra	u4337
  1644  0007AE  2FCC               	decfsz	(??_startupSequence+1)& (0+255),f,b
  1645  0007B0  D7FA               	bra	u4337
  1646  0007B2  D000               	nop2	
  1647                           
  1648                           ;hardware.c: 479: LATH2 = 0;
  1649  0007B4  9490               	bcf	3984,2,c	;volatile
  1650                           
  1651                           ;hardware.c: 480: _delay((unsigned long)((75)*(32000000/4000.0)));
  1652  0007B6  0E04               	movlw	4
  1653  0007B8  0100               	movlb	0	; () banked
  1654  0007BA  6FCC               	movwf	(??_startupSequence+1)& (0+255),b
  1655  0007BC  0E0C               	movlw	12
  1656  0007BE  0100               	movlb	0	; () banked
  1657  0007C0  6FCB               	movwf	??_startupSequence& (0+255),b
  1658  0007C2  0E33               	movlw	51
  1659  0007C4                     u4347:
  1660  0007C4  2EE8               	decfsz	wreg,f,c
  1661  0007C6  D7FE               	bra	u4347
  1662  0007C8  2FCB               	decfsz	??_startupSequence& (0+255),f,b
  1663  0007CA  D7FC               	bra	u4347
  1664  0007CC  2FCC               	decfsz	(??_startupSequence+1)& (0+255),f,b
  1665  0007CE  D7FA               	bra	u4347
  1666  0007D0  D000               	nop2	
  1667                           
  1668                           ;hardware.c: 481: LATE4 = 0;
  1669  0007D2  988D               	bcf	3981,4,c	;volatile
  1670                           
  1671                           ;hardware.c: 482: _delay((unsigned long)((75)*(32000000/4000.0)));
  1672  0007D4  0E04               	movlw	4
  1673  0007D6  0100               	movlb	0	; () banked
  1674  0007D8  6FCC               	movwf	(??_startupSequence+1)& (0+255),b
  1675  0007DA  0E0C               	movlw	12
  1676  0007DC  0100               	movlb	0	; () banked
  1677  0007DE  6FCB               	movwf	??_startupSequence& (0+255),b
  1678  0007E0  0E33               	movlw	51
  1679  0007E2                     u4357:
  1680  0007E2  2EE8               	decfsz	wreg,f,c
  1681  0007E4  D7FE               	bra	u4357
  1682  0007E6  2FCB               	decfsz	??_startupSequence& (0+255),f,b
  1683  0007E8  D7FC               	bra	u4357
  1684  0007EA  2FCC               	decfsz	(??_startupSequence+1)& (0+255),f,b
  1685  0007EC  D7FA               	bra	u4357
  1686  0007EE  D000               	nop2	
  1687                           
  1688                           ;hardware.c: 483: LATE5 = 0;
  1689  0007F0  9A8D               	bcf	3981,5,c	;volatile
  1690                           
  1691                           ;hardware.c: 484: _delay((unsigned long)((75)*(32000000/4000.0)));
  1692  0007F2  0E04               	movlw	4
  1693  0007F4  0100               	movlb	0	; () banked
  1694  0007F6  6FCC               	movwf	(??_startupSequence+1)& (0+255),b
  1695  0007F8  0E0C               	movlw	12
  1696  0007FA  0100               	movlb	0	; () banked
  1697  0007FC  6FCB               	movwf	??_startupSequence& (0+255),b
  1698  0007FE  0E33               	movlw	51
  1699  000800                     u4367:
  1700  000800  2EE8               	decfsz	wreg,f,c
  1701  000802  D7FE               	bra	u4367
  1702  000804  2FCB               	decfsz	??_startupSequence& (0+255),f,b
  1703  000806  D7FC               	bra	u4367
  1704  000808  2FCC               	decfsz	(??_startupSequence+1)& (0+255),f,b
  1705  00080A  D7FA               	bra	u4367
  1706  00080C  D000               	nop2	
  1707                           
  1708                           ;hardware.c: 485: LATE7 = 0;
  1709  00080E  9E8D               	bcf	3981,7,c	;volatile
  1710                           
  1711                           ;hardware.c: 486: _delay((unsigned long)((75)*(32000000/4000.0)));
  1712  000810  0E04               	movlw	4
  1713  000812  0100               	movlb	0	; () banked
  1714  000814  6FCC               	movwf	(??_startupSequence+1)& (0+255),b
  1715  000816  0E0C               	movlw	12
  1716  000818  0100               	movlb	0	; () banked
  1717  00081A  6FCB               	movwf	??_startupSequence& (0+255),b
  1718  00081C  0E33               	movlw	51
  1719  00081E                     u4377:
  1720  00081E  2EE8               	decfsz	wreg,f,c
  1721  000820  D7FE               	bra	u4377
  1722  000822  2FCB               	decfsz	??_startupSequence& (0+255),f,b
  1723  000824  D7FC               	bra	u4377
  1724  000826  2FCC               	decfsz	(??_startupSequence+1)& (0+255),f,b
  1725  000828  D7FA               	bra	u4377
  1726  00082A  D000               	nop2	
  1727                           
  1728                           ;hardware.c: 487: LATD0 = 0;
  1729  00082C  908C               	bcf	3980,0,c	;volatile
  1730                           
  1731                           ;hardware.c: 488: _delay((unsigned long)((75)*(32000000/4000.0)));
  1732  00082E  0E04               	movlw	4
  1733  000830  0100               	movlb	0	; () banked
  1734  000832  6FCC               	movwf	(??_startupSequence+1)& (0+255),b
  1735  000834  0E0C               	movlw	12
  1736  000836  0100               	movlb	0	; () banked
  1737  000838  6FCB               	movwf	??_startupSequence& (0+255),b
  1738  00083A  0E33               	movlw	51
  1739  00083C                     u4387:
  1740  00083C  2EE8               	decfsz	wreg,f,c
  1741  00083E  D7FE               	bra	u4387
  1742  000840  2FCB               	decfsz	??_startupSequence& (0+255),f,b
  1743  000842  D7FC               	bra	u4387
  1744  000844  2FCC               	decfsz	(??_startupSequence+1)& (0+255),f,b
  1745  000846  D7FA               	bra	u4387
  1746  000848  D000               	nop2	
  1747                           
  1748                           ;hardware.c: 491: LATH7 = 1;
  1749  00084A  8E90               	bsf	3984,7,c	;volatile
  1750                           
  1751                           ;hardware.c: 492: _delay((unsigned long)((75)*(32000000/4000.0)));
  1752  00084C  0E04               	movlw	4
  1753  00084E  0100               	movlb	0	; () banked
  1754  000850  6FCC               	movwf	(??_startupSequence+1)& (0+255),b
  1755  000852  0E0C               	movlw	12
  1756  000854  0100               	movlb	0	; () banked
  1757  000856  6FCB               	movwf	??_startupSequence& (0+255),b
  1758  000858  0E33               	movlw	51
  1759  00085A                     u4397:
  1760  00085A  2EE8               	decfsz	wreg,f,c
  1761  00085C  D7FE               	bra	u4397
  1762  00085E  2FCB               	decfsz	??_startupSequence& (0+255),f,b
  1763  000860  D7FC               	bra	u4397
  1764  000862  2FCC               	decfsz	(??_startupSequence+1)& (0+255),f,b
  1765  000864  D7FA               	bra	u4397
  1766  000866  D000               	nop2	
  1767                           
  1768                           ;hardware.c: 493: LATF2 = 1;
  1769  000868  848E               	bsf	3982,2,c	;volatile
  1770                           
  1771                           ;hardware.c: 494: _delay((unsigned long)((75)*(32000000/4000.0)));
  1772  00086A  0E04               	movlw	4
  1773  00086C  0100               	movlb	0	; () banked
  1774  00086E  6FCC               	movwf	(??_startupSequence+1)& (0+255),b
  1775  000870  0E0C               	movlw	12
  1776  000872  0100               	movlb	0	; () banked
  1777  000874  6FCB               	movwf	??_startupSequence& (0+255),b
  1778  000876  0E33               	movlw	51
  1779  000878                     u4407:
  1780  000878  2EE8               	decfsz	wreg,f,c
  1781  00087A  D7FE               	bra	u4407
  1782  00087C  2FCB               	decfsz	??_startupSequence& (0+255),f,b
  1783  00087E  D7FC               	bra	u4407
  1784  000880  2FCC               	decfsz	(??_startupSequence+1)& (0+255),f,b
  1785  000882  D7FA               	bra	u4407
  1786  000884  D000               	nop2	
  1787                           
  1788                           ;hardware.c: 495: LATF5 = 1;
  1789  000886  8A8E               	bsf	3982,5,c	;volatile
  1790                           
  1791                           ;hardware.c: 496: _delay((unsigned long)((75)*(32000000/4000.0)));
  1792  000888  0E04               	movlw	4
  1793  00088A  0100               	movlb	0	; () banked
  1794  00088C  6FCC               	movwf	(??_startupSequence+1)& (0+255),b
  1795  00088E  0E0C               	movlw	12
  1796  000890  0100               	movlb	0	; () banked
  1797  000892  6FCB               	movwf	??_startupSequence& (0+255),b
  1798  000894  0E33               	movlw	51
  1799  000896                     u4417:
  1800  000896  2EE8               	decfsz	wreg,f,c
  1801  000898  D7FE               	bra	u4417
  1802  00089A  2FCB               	decfsz	??_startupSequence& (0+255),f,b
  1803  00089C  D7FC               	bra	u4417
  1804  00089E  2FCC               	decfsz	(??_startupSequence+1)& (0+255),f,b
  1805  0008A0  D7FA               	bra	u4417
  1806  0008A2  D000               	nop2	
  1807                           
  1808                           ;hardware.c: 497: LATF6 = 1;
  1809  0008A4  8C8E               	bsf	3982,6,c	;volatile
  1810                           
  1811                           ;hardware.c: 498: _delay((unsigned long)((75)*(32000000/4000.0)));
  1812  0008A6  0E04               	movlw	4
  1813  0008A8  0100               	movlb	0	; () banked
  1814  0008AA  6FCC               	movwf	(??_startupSequence+1)& (0+255),b
  1815  0008AC  0E0C               	movlw	12
  1816  0008AE  0100               	movlb	0	; () banked
  1817  0008B0  6FCB               	movwf	??_startupSequence& (0+255),b
  1818  0008B2  0E33               	movlw	51
  1819  0008B4                     u4427:
  1820  0008B4  2EE8               	decfsz	wreg,f,c
  1821  0008B6  D7FE               	bra	u4427
  1822  0008B8  2FCB               	decfsz	??_startupSequence& (0+255),f,b
  1823  0008BA  D7FC               	bra	u4427
  1824  0008BC  2FCC               	decfsz	(??_startupSequence+1)& (0+255),f,b
  1825  0008BE  D7FA               	bra	u4427
  1826  0008C0  D000               	nop2	
  1827                           
  1828                           ;hardware.c: 499: LATG4 = 1;
  1829  0008C2  888F               	bsf	3983,4,c	;volatile
  1830                           
  1831                           ;hardware.c: 500: _delay((unsigned long)((75)*(32000000/4000.0)));
  1832  0008C4  0E04               	movlw	4
  1833  0008C6  0100               	movlb	0	; () banked
  1834  0008C8  6FCC               	movwf	(??_startupSequence+1)& (0+255),b
  1835  0008CA  0E0C               	movlw	12
  1836  0008CC  0100               	movlb	0	; () banked
  1837  0008CE  6FCB               	movwf	??_startupSequence& (0+255),b
  1838  0008D0  0E33               	movlw	51
  1839  0008D2                     u4437:
  1840  0008D2  2EE8               	decfsz	wreg,f,c
  1841  0008D4  D7FE               	bra	u4437
  1842  0008D6  2FCB               	decfsz	??_startupSequence& (0+255),f,b
  1843  0008D8  D7FC               	bra	u4437
  1844  0008DA  2FCC               	decfsz	(??_startupSequence+1)& (0+255),f,b
  1845  0008DC  D7FA               	bra	u4437
  1846  0008DE  D000               	nop2	
  1847                           
  1848                           ;hardware.c: 501: LATH0 = 1;
  1849  0008E0  8090               	bsf	3984,0,c	;volatile
  1850                           
  1851                           ;hardware.c: 502: _delay((unsigned long)((75)*(32000000/4000.0)));
  1852  0008E2  0E04               	movlw	4
  1853  0008E4  0100               	movlb	0	; () banked
  1854  0008E6  6FCC               	movwf	(??_startupSequence+1)& (0+255),b
  1855  0008E8  0E0C               	movlw	12
  1856  0008EA  0100               	movlb	0	; () banked
  1857  0008EC  6FCB               	movwf	??_startupSequence& (0+255),b
  1858  0008EE  0E33               	movlw	51
  1859  0008F0                     u4447:
  1860  0008F0  2EE8               	decfsz	wreg,f,c
  1861  0008F2  D7FE               	bra	u4447
  1862  0008F4  2FCB               	decfsz	??_startupSequence& (0+255),f,b
  1863  0008F6  D7FC               	bra	u4447
  1864  0008F8  2FCC               	decfsz	(??_startupSequence+1)& (0+255),f,b
  1865  0008FA  D7FA               	bra	u4447
  1866  0008FC  D000               	nop2	
  1867                           
  1868                           ;hardware.c: 503: LATH7 = 0;
  1869  0008FE  9E90               	bcf	3984,7,c	;volatile
  1870                           
  1871                           ;hardware.c: 504: _delay((unsigned long)((75)*(32000000/4000.0)));
  1872  000900  0E04               	movlw	4
  1873  000902  0100               	movlb	0	; () banked
  1874  000904  6FCC               	movwf	(??_startupSequence+1)& (0+255),b
  1875  000906  0E0C               	movlw	12
  1876  000908  0100               	movlb	0	; () banked
  1877  00090A  6FCB               	movwf	??_startupSequence& (0+255),b
  1878  00090C  0E33               	movlw	51
  1879  00090E                     u4457:
  1880  00090E  2EE8               	decfsz	wreg,f,c
  1881  000910  D7FE               	bra	u4457
  1882  000912  2FCB               	decfsz	??_startupSequence& (0+255),f,b
  1883  000914  D7FC               	bra	u4457
  1884  000916  2FCC               	decfsz	(??_startupSequence+1)& (0+255),f,b
  1885  000918  D7FA               	bra	u4457
  1886  00091A  D000               	nop2	
  1887                           
  1888                           ;hardware.c: 505: LATF2 = 0;
  1889  00091C  948E               	bcf	3982,2,c	;volatile
  1890                           
  1891                           ;hardware.c: 506: _delay((unsigned long)((75)*(32000000/4000.0)));
  1892  00091E  0E04               	movlw	4
  1893  000920  0100               	movlb	0	; () banked
  1894  000922  6FCC               	movwf	(??_startupSequence+1)& (0+255),b
  1895  000924  0E0C               	movlw	12
  1896  000926  0100               	movlb	0	; () banked
  1897  000928  6FCB               	movwf	??_startupSequence& (0+255),b
  1898  00092A  0E33               	movlw	51
  1899  00092C                     u4467:
  1900  00092C  2EE8               	decfsz	wreg,f,c
  1901  00092E  D7FE               	bra	u4467
  1902  000930  2FCB               	decfsz	??_startupSequence& (0+255),f,b
  1903  000932  D7FC               	bra	u4467
  1904  000934  2FCC               	decfsz	(??_startupSequence+1)& (0+255),f,b
  1905  000936  D7FA               	bra	u4467
  1906  000938  D000               	nop2	
  1907                           
  1908                           ;hardware.c: 507: LATF5 = 0;
  1909  00093A  9A8E               	bcf	3982,5,c	;volatile
  1910                           
  1911                           ;hardware.c: 508: _delay((unsigned long)((75)*(32000000/4000.0)));
  1912  00093C  0E04               	movlw	4
  1913  00093E  0100               	movlb	0	; () banked
  1914  000940  6FCC               	movwf	(??_startupSequence+1)& (0+255),b
  1915  000942  0E0C               	movlw	12
  1916  000944  0100               	movlb	0	; () banked
  1917  000946  6FCB               	movwf	??_startupSequence& (0+255),b
  1918  000948  0E33               	movlw	51
  1919  00094A                     u4477:
  1920  00094A  2EE8               	decfsz	wreg,f,c
  1921  00094C  D7FE               	bra	u4477
  1922  00094E  2FCB               	decfsz	??_startupSequence& (0+255),f,b
  1923  000950  D7FC               	bra	u4477
  1924  000952  2FCC               	decfsz	(??_startupSequence+1)& (0+255),f,b
  1925  000954  D7FA               	bra	u4477
  1926  000956  D000               	nop2	
  1927                           
  1928                           ;hardware.c: 509: LATF6 = 0;
  1929  000958  9C8E               	bcf	3982,6,c	;volatile
  1930                           
  1931                           ;hardware.c: 510: _delay((unsigned long)((75)*(32000000/4000.0)));
  1932  00095A  0E04               	movlw	4
  1933  00095C  0100               	movlb	0	; () banked
  1934  00095E  6FCC               	movwf	(??_startupSequence+1)& (0+255),b
  1935  000960  0E0C               	movlw	12
  1936  000962  0100               	movlb	0	; () banked
  1937  000964  6FCB               	movwf	??_startupSequence& (0+255),b
  1938  000966  0E33               	movlw	51
  1939  000968                     u4487:
  1940  000968  2EE8               	decfsz	wreg,f,c
  1941  00096A  D7FE               	bra	u4487
  1942  00096C  2FCB               	decfsz	??_startupSequence& (0+255),f,b
  1943  00096E  D7FC               	bra	u4487
  1944  000970  2FCC               	decfsz	(??_startupSequence+1)& (0+255),f,b
  1945  000972  D7FA               	bra	u4487
  1946  000974  D000               	nop2	
  1947                           
  1948                           ;hardware.c: 511: LATG4 = 0;
  1949  000976  988F               	bcf	3983,4,c	;volatile
  1950                           
  1951                           ;hardware.c: 512: _delay((unsigned long)((75)*(32000000/4000.0)));
  1952  000978  0E04               	movlw	4
  1953  00097A  0100               	movlb	0	; () banked
  1954  00097C  6FCC               	movwf	(??_startupSequence+1)& (0+255),b
  1955  00097E  0E0C               	movlw	12
  1956  000980  0100               	movlb	0	; () banked
  1957  000982  6FCB               	movwf	??_startupSequence& (0+255),b
  1958  000984  0E33               	movlw	51
  1959  000986                     u4497:
  1960  000986  2EE8               	decfsz	wreg,f,c
  1961  000988  D7FE               	bra	u4497
  1962  00098A  2FCB               	decfsz	??_startupSequence& (0+255),f,b
  1963  00098C  D7FC               	bra	u4497
  1964  00098E  2FCC               	decfsz	(??_startupSequence+1)& (0+255),f,b
  1965  000990  D7FA               	bra	u4497
  1966  000992  D000               	nop2	
  1967                           
  1968                           ;hardware.c: 513: LATH0 = 0;
  1969  000994  9090               	bcf	3984,0,c	;volatile
  1970                           
  1971                           ;hardware.c: 514: _delay((unsigned long)((75)*(32000000/4000.0)));
  1972  000996  0E04               	movlw	4
  1973  000998  0100               	movlb	0	; () banked
  1974  00099A  6FCC               	movwf	(??_startupSequence+1)& (0+255),b
  1975  00099C  0E0C               	movlw	12
  1976  00099E  0100               	movlb	0	; () banked
  1977  0009A0  6FCB               	movwf	??_startupSequence& (0+255),b
  1978  0009A2  0E33               	movlw	51
  1979  0009A4                     u4507:
  1980  0009A4  2EE8               	decfsz	wreg,f,c
  1981  0009A6  D7FE               	bra	u4507
  1982  0009A8  2FCB               	decfsz	??_startupSequence& (0+255),f,b
  1983  0009AA  D7FC               	bra	u4507
  1984  0009AC  2FCC               	decfsz	(??_startupSequence+1)& (0+255),f,b
  1985  0009AE  D7FA               	bra	u4507
  1986  0009B0  D000               	nop2	
  1987  0009B2  0012               	return		;funcret
  1988  0009B4                     __end_of_startupSequence:
  1989                           	opt stack 0
  1990                           tblptru	equ	0xFF8
  1991                           tblptrh	equ	0xFF7
  1992                           tblptrl	equ	0xFF6
  1993                           tablat	equ	0xFF5
  1994                           postinc0	equ	0xFEE
  1995                           wreg	equ	0xFE8
  1996                           postinc1	equ	0xFE6
  1997                           postdec1	equ	0xFE5
  1998                           fsr1h	equ	0xFE2
  1999                           fsr1l	equ	0xFE1
  2000                           postinc2	equ	0xFDE
  2001                           postdec2	equ	0xFDD
  2002                           fsr2h	equ	0xFDA
  2003                           fsr2l	equ	0xFD9
  2004                           status	equ	0xFD8
  2005                           
  2006 ;; *************** function _setupTMR4 *****************
  2007 ;; Defined at:
  2008 ;;		line 43 in file "systemConfig.c"
  2009 ;; Parameters:    Size  Location     Type
  2010 ;;		None
  2011 ;; Auto vars:     Size  Location     Type
  2012 ;;		None
  2013 ;; Return value:  Size  Location     Type
  2014 ;;                  1    wreg      void 
  2015 ;; Registers used:
  2016 ;;		wreg, status,2
  2017 ;; Tracked objects:
  2018 ;;		On entry : 0/0
  2019 ;;		On exit  : 0/0
  2020 ;;		Unchanged: 0/0
  2021 ;; Data sizes:     COMRAM   BANK0   BANK1   BANK2   BANK3   BANK4   BANK5   BANK6   BANK7   BANK8   BANK9  BANK10  BANK1
      +1  BANK12  BANK13
  2022 ;;      Params:         0       0       0       0       0       0       0       0       0       0       0       0       
      +0       0       0
  2023 ;;      Locals:         0       0       0       0       0       0       0       0       0       0       0       0       
      +0       0       0
  2024 ;;      Temps:          0       0       0       0       0       0       0       0       0       0       0       0       
      +0       0       0
  2025 ;;      Totals:         0       0       0       0       0       0       0       0       0       0       0       0       
      +0       0       0
  2026 ;;Total ram usage:        0 bytes
  2027 ;; Hardware stack levels used:    1
  2028 ;; Hardware stack levels required when called:    5
  2029 ;; This function calls:
  2030 ;;		Nothing
  2031 ;; This function is called by:
  2032 ;;		_systemInit
  2033 ;; This function uses a non-reentrant model
  2034 ;;
  2035                           
  2036                           	psect	text4
  2037  001C16                     __ptext4:
  2038                           	opt stack 0
  2039  001C16                     _setupTMR4:
  2040                           	opt stack 24
  2041                           
  2042                           ;systemConfig.c: 46: T4CONbits.TMR4ON = 0x0;
  2043                           
  2044                           ;incstack = 0
  2045  001C16  010F               	movlb	15	; () banked
  2046  001C18  9504               	bcf	4,2,b	;volatile
  2047                           
  2048                           ; BSR set to: 15
  2049                           ;systemConfig.c: 47: T4CONbits.T4CKPS = 0x3;
  2050  001C1A  0E03               	movlw	3
  2051  001C1C  010F               	movlb	15	; () banked
  2052  001C1E  1304               	iorwf	4,f,b	;volatile
  2053                           
  2054                           ;systemConfig.c: 48: T4CONbits.T4OUTPS = 0x1;
  2055  001C20  010F               	movlb	15	; () banked
  2056  001C22  5104               	movf	4,w,b	;volatile
  2057  001C24  0B87               	andlw	-121
  2058  001C26  0908               	iorlw	8
  2059  001C28  6F04               	movwf	4,b	;volatile
  2060                           
  2061                           ; BSR set to: 15
  2062  001C2A  0012               	return		;funcret
  2063  001C2C                     __end_of_setupTMR4:
  2064                           	opt stack 0
  2065                           tblptru	equ	0xFF8
  2066                           tblptrh	equ	0xFF7
  2067                           tblptrl	equ	0xFF6
  2068                           tablat	equ	0xFF5
  2069                           postinc0	equ	0xFEE
  2070                           wreg	equ	0xFE8
  2071                           postinc1	equ	0xFE6
  2072                           postdec1	equ	0xFE5
  2073                           fsr1h	equ	0xFE2
  2074                           fsr1l	equ	0xFE1
  2075                           postinc2	equ	0xFDE
  2076                           postdec2	equ	0xFDD
  2077                           fsr2h	equ	0xFDA
  2078                           fsr2l	equ	0xFD9
  2079                           status	equ	0xFD8
  2080                           
  2081 ;; *************** function _setupTMR2 *****************
  2082 ;; Defined at:
  2083 ;;		line 34 in file "systemConfig.c"
  2084 ;; Parameters:    Size  Location     Type
  2085 ;;		None
  2086 ;; Auto vars:     Size  Location     Type
  2087 ;;		None
  2088 ;; Return value:  Size  Location     Type
  2089 ;;                  1    wreg      void 
  2090 ;; Registers used:
  2091 ;;		wreg, status,2
  2092 ;; Tracked objects:
  2093 ;;		On entry : 0/0
  2094 ;;		On exit  : 0/0
  2095 ;;		Unchanged: 0/0
  2096 ;; Data sizes:     COMRAM   BANK0   BANK1   BANK2   BANK3   BANK4   BANK5   BANK6   BANK7   BANK8   BANK9  BANK10  BANK1
      +1  BANK12  BANK13
  2097 ;;      Params:         0       0       0       0       0       0       0       0       0       0       0       0       
      +0       0       0
  2098 ;;      Locals:         0       0       0       0       0       0       0       0       0       0       0       0       
      +0       0       0
  2099 ;;      Temps:          0       0       0       0       0       0       0       0       0       0       0       0       
      +0       0       0
  2100 ;;      Totals:         0       0       0       0       0       0       0       0       0       0       0       0       
      +0       0       0
  2101 ;;Total ram usage:        0 bytes
  2102 ;; Hardware stack levels used:    1
  2103 ;; Hardware stack levels required when called:    5
  2104 ;; This function calls:
  2105 ;;		Nothing
  2106 ;; This function is called by:
  2107 ;;		_systemInit
  2108 ;; This function uses a non-reentrant model
  2109 ;;
  2110                           
  2111                           	psect	text5
  2112  001C2C                     __ptext5:
  2113                           	opt stack 0
  2114  001C2C                     _setupTMR2:
  2115                           	opt stack 24
  2116                           
  2117                           ;systemConfig.c: 37: T2CONbits.TMR2ON = 0x0;
  2118                           
  2119                           ; BSR set to: 15
  2120                           ;incstack = 0
  2121  001C2C  94CA               	bcf	4042,2,c	;volatile
  2122                           
  2123                           ;systemConfig.c: 38: T2CONbits.T2CKPS = 0x3;
  2124  001C2E  0E03               	movlw	3
  2125  001C30  12CA               	iorwf	4042,f,c	;volatile
  2126                           
  2127                           ;systemConfig.c: 39: T2CONbits.T2OUTPS = 0x1;
  2128  001C32  50CA               	movf	4042,w,c	;volatile
  2129  001C34  0B87               	andlw	-121
  2130  001C36  0908               	iorlw	8
  2131  001C38  6ECA               	movwf	4042,c	;volatile
  2132  001C3A  0012               	return		;funcret
  2133  001C3C                     __end_of_setupTMR2:
  2134                           	opt stack 0
  2135                           tblptru	equ	0xFF8
  2136                           tblptrh	equ	0xFF7
  2137                           tblptrl	equ	0xFF6
  2138                           tablat	equ	0xFF5
  2139                           postinc0	equ	0xFEE
  2140                           wreg	equ	0xFE8
  2141                           postinc1	equ	0xFE6
  2142                           postdec1	equ	0xFE5
  2143                           fsr1h	equ	0xFE2
  2144                           fsr1l	equ	0xFE1
  2145                           postinc2	equ	0xFDE
  2146                           postdec2	equ	0xFDD
  2147                           fsr2h	equ	0xFDA
  2148                           fsr2l	equ	0xFD9
  2149                           status	equ	0xFD8
  2150                           
  2151 ;; *************** function _setupTMR1 *****************
  2152 ;; Defined at:
  2153 ;;		line 25 in file "systemConfig.c"
  2154 ;; Parameters:    Size  Location     Type
  2155 ;;		None
  2156 ;; Auto vars:     Size  Location     Type
  2157 ;;		None
  2158 ;; Return value:  Size  Location     Type
  2159 ;;                  1    wreg      void 
  2160 ;; Registers used:
  2161 ;;		wreg, status,2
  2162 ;; Tracked objects:
  2163 ;;		On entry : 0/0
  2164 ;;		On exit  : 0/0
  2165 ;;		Unchanged: 0/0
  2166 ;; Data sizes:     COMRAM   BANK0   BANK1   BANK2   BANK3   BANK4   BANK5   BANK6   BANK7   BANK8   BANK9  BANK10  BANK1
      +1  BANK12  BANK13
  2167 ;;      Params:         0       0       0       0       0       0       0       0       0       0       0       0       
      +0       0       0
  2168 ;;      Locals:         0       0       0       0       0       0       0       0       0       0       0       0       
      +0       0       0
  2169 ;;      Temps:          0       0       0       0       0       0       0       0       0       0       0       0       
      +0       0       0
  2170 ;;      Totals:         0       0       0       0       0       0       0       0       0       0       0       0       
      +0       0       0
  2171 ;;Total ram usage:        0 bytes
  2172 ;; Hardware stack levels used:    1
  2173 ;; Hardware stack levels required when called:    5
  2174 ;; This function calls:
  2175 ;;		Nothing
  2176 ;; This function is called by:
  2177 ;;		_systemInit
  2178 ;; This function uses a non-reentrant model
  2179 ;;
  2180                           
  2181                           	psect	text6
  2182  001C3C                     __ptext6:
  2183                           	opt stack 0
  2184  001C3C                     _setupTMR1:
  2185                           	opt stack 24
  2186                           
  2187                           ;systemConfig.c: 27: T1CONbits.TMR1ON = 0x0;
  2188                           
  2189                           ;incstack = 0
  2190  001C3C  90CD               	bcf	4045,0,c	;volatile
  2191                           
  2192                           ;systemConfig.c: 28: T1CONbits.TMR1CS = 0x0;
  2193  001C3E  0E3F               	movlw	-193
  2194  001C40  16CD               	andwf	4045,f,c	;volatile
  2195                           
  2196                           ;systemConfig.c: 29: T1CONbits.TCKPS = 0x3;
  2197  001C42  0E30               	movlw	48
  2198  001C44  12CD               	iorwf	4045,f,c	;volatile
  2199                           
  2200                           ;systemConfig.c: 30: T1CONbits.RD16 = 0x1;
  2201  001C46  82CD               	bsf	4045,1,c	;volatile
  2202  001C48  0012               	return		;funcret
  2203  001C4A                     __end_of_setupTMR1:
  2204                           	opt stack 0
  2205                           tblptru	equ	0xFF8
  2206                           tblptrh	equ	0xFF7
  2207                           tblptrl	equ	0xFF6
  2208                           tablat	equ	0xFF5
  2209                           postinc0	equ	0xFEE
  2210                           wreg	equ	0xFE8
  2211                           postinc1	equ	0xFE6
  2212                           postdec1	equ	0xFE5
  2213                           fsr1h	equ	0xFE2
  2214                           fsr1l	equ	0xFE1
  2215                           postinc2	equ	0xFDE
  2216                           postdec2	equ	0xFDD
  2217                           fsr2h	equ	0xFDA
  2218                           fsr2l	equ	0xFD9
  2219                           status	equ	0xFD8
  2220                           
  2221 ;; *************** function _setupTMR0 *****************
  2222 ;; Defined at:
  2223 ;;		line 16 in file "systemConfig.c"
  2224 ;; Parameters:    Size  Location     Type
  2225 ;;		None
  2226 ;; Auto vars:     Size  Location     Type
  2227 ;;		None
  2228 ;; Return value:  Size  Location     Type
  2229 ;;                  1    wreg      void 
  2230 ;; Registers used:
  2231 ;;		wreg, status,2
  2232 ;; Tracked objects:
  2233 ;;		On entry : 0/0
  2234 ;;		On exit  : 0/0
  2235 ;;		Unchanged: 0/0
  2236 ;; Data sizes:     COMRAM   BANK0   BANK1   BANK2   BANK3   BANK4   BANK5   BANK6   BANK7   BANK8   BANK9  BANK10  BANK1
      +1  BANK12  BANK13
  2237 ;;      Params:         0       0       0       0       0       0       0       0       0       0       0       0       
      +0       0       0
  2238 ;;      Locals:         0       0       0       0       0       0       0       0       0       0       0       0       
      +0       0       0
  2239 ;;      Temps:          0       0       0       0       0       0       0       0       0       0       0       0       
      +0       0       0
  2240 ;;      Totals:         0       0       0       0       0       0       0       0       0       0       0       0       
      +0       0       0
  2241 ;;Total ram usage:        0 bytes
  2242 ;; Hardware stack levels used:    1
  2243 ;; Hardware stack levels required when called:    5
  2244 ;; This function calls:
  2245 ;;		Nothing
  2246 ;; This function is called by:
  2247 ;;		_systemInit
  2248 ;; This function uses a non-reentrant model
  2249 ;;
  2250                           
  2251                           	psect	text7
  2252  001BE6                     __ptext7:
  2253                           	opt stack 0
  2254  001BE6                     _setupTMR0:
  2255                           	opt stack 24
  2256                           
  2257                           ;systemConfig.c: 18: T0CONbits.TMR0ON = 0x0;
  2258                           
  2259                           ;incstack = 0
  2260  001BE6  9ED5               	bcf	4053,7,c	;volatile
  2261                           
  2262                           ;systemConfig.c: 19: T0CONbits.T08BIT = 0x1;
  2263  001BE8  8CD5               	bsf	4053,6,c	;volatile
  2264                           
  2265                           ;systemConfig.c: 20: T0CONbits.T0CS = 0x1;
  2266  001BEA  50D5               	movf	4053,w,c	;volatile
  2267  001BEC  0BCF               	andlw	-49
  2268  001BEE  0910               	iorlw	16
  2269  001BF0  6ED5               	movwf	4053,c	;volatile
  2270                           
  2271                           ;systemConfig.c: 21: T0CONbits.PSA = 0x0;
  2272  001BF2  96D5               	bcf	4053,3,c	;volatile
  2273                           
  2274                           ;systemConfig.c: 22: T0CONbits.T0PS = 0x6;
  2275  001BF4  50D5               	movf	4053,w,c	;volatile
  2276  001BF6  0BF8               	andlw	-8
  2277  001BF8  0906               	iorlw	6
  2278  001BFA  6ED5               	movwf	4053,c	;volatile
  2279  001BFC  0012               	return		;funcret
  2280  001BFE                     __end_of_setupTMR0:
  2281                           	opt stack 0
  2282                           tblptru	equ	0xFF8
  2283                           tblptrh	equ	0xFF7
  2284                           tblptrl	equ	0xFF6
  2285                           tablat	equ	0xFF5
  2286                           postinc0	equ	0xFEE
  2287                           wreg	equ	0xFE8
  2288                           postinc1	equ	0xFE6
  2289                           postdec1	equ	0xFE5
  2290                           fsr1h	equ	0xFE2
  2291                           fsr1l	equ	0xFE1
  2292                           postinc2	equ	0xFDE
  2293                           postdec2	equ	0xFDD
  2294                           fsr2h	equ	0xFDA
  2295                           fsr2l	equ	0xFD9
  2296                           status	equ	0xFD8
  2297                           
  2298 ;; *************** function _setupI2C2 *****************
  2299 ;; Defined at:
  2300 ;;		line 92 in file "systemConfig.c"
  2301 ;; Parameters:    Size  Location     Type
  2302 ;;		None
  2303 ;; Auto vars:     Size  Location     Type
  2304 ;;		None
  2305 ;; Return value:  Size  Location     Type
  2306 ;;                  1    wreg      void 
  2307 ;; Registers used:
  2308 ;;		wreg, status,2
  2309 ;; Tracked objects:
  2310 ;;		On entry : 0/0
  2311 ;;		On exit  : 0/0
  2312 ;;		Unchanged: 0/0
  2313 ;; Data sizes:     COMRAM   BANK0   BANK1   BANK2   BANK3   BANK4   BANK5   BANK6   BANK7   BANK8   BANK9  BANK10  BANK1
      +1  BANK12  BANK13
  2314 ;;      Params:         0       0       0       0       0       0       0       0       0       0       0       0       
      +0       0       0
  2315 ;;      Locals:         0       0       0       0       0       0       0       0       0       0       0       0       
      +0       0       0
  2316 ;;      Temps:          0       0       0       0       0       0       0       0       0       0       0       0       
      +0       0       0
  2317 ;;      Totals:         0       0       0       0       0       0       0       0       0       0       0       0       
      +0       0       0
  2318 ;;Total ram usage:        0 bytes
  2319 ;; Hardware stack levels used:    1
  2320 ;; Hardware stack levels required when called:    5
  2321 ;; This function calls:
  2322 ;;		Nothing
  2323 ;; This function is called by:
  2324 ;;		_systemInit
  2325 ;; This function uses a non-reentrant model
  2326 ;;
  2327                           
  2328                           	psect	text8
  2329  0019D8                     __ptext8:
  2330                           	opt stack 0
  2331  0019D8                     _setupI2C2:
  2332                           	opt stack 24
  2333                           
  2334                           ;systemConfig.c: 94: SSP2CON1bits.SSPEN = 0x0;
  2335                           
  2336                           ;incstack = 0
  2337  0019D8  010F               	movlb	15	; () banked
  2338  0019DA  9B19               	bcf	25,5,b	;volatile
  2339                           
  2340                           ;systemConfig.c: 96: TRISDbits.TRISD5 = 0x1;
  2341  0019DC  8A95               	bsf	3989,5,c	;volatile
  2342                           
  2343                           ;systemConfig.c: 97: TRISDbits.TRISD6 = 0x1;
  2344  0019DE  8C95               	bsf	3989,6,c	;volatile
  2345                           
  2346                           ; BSR set to: 15
  2347                           ;systemConfig.c: 100: SSP2CON1bits.SSPM = 0x9;
  2348  0019E0  010F               	movlb	15	; () banked
  2349  0019E2  5119               	movf	25,w,b	;volatile
  2350  0019E4  0BF0               	andlw	-16
  2351  0019E6  0909               	iorlw	9
  2352  0019E8  6F19               	movwf	25,b	;volatile
  2353                           
  2354                           ;systemConfig.c: 103: SSP2ADD = 0b10100000;
  2355  0019EA  0EA0               	movlw	160
  2356  0019EC  010F               	movlb	15	; () banked
  2357  0019EE  6F02               	movwf	2,b	;volatile
  2358                           
  2359                           ;systemConfig.c: 104: SSP2MSK = 0b11000000;
  2360  0019F0  0EC0               	movlw	192
  2361  0019F2  010F               	movlb	15	; () banked
  2362  0019F4  6F17               	movwf	23,b	;volatile
  2363                           
  2364                           ;systemConfig.c: 105: SSP2CON1bits.SSPM = 0x6;
  2365  0019F6  010F               	movlb	15	; () banked
  2366  0019F8  5119               	movf	25,w,b	;volatile
  2367  0019FA  0BF0               	andlw	-16
  2368  0019FC  0906               	iorlw	6
  2369  0019FE  6F19               	movwf	25,b	;volatile
  2370                           
  2371                           ; BSR set to: 15
  2372                           ;systemConfig.c: 107: SSP2CON1bits.CKP = 0x1;
  2373  001A00  010F               	movlb	15	; () banked
  2374  001A02  8919               	bsf	25,4,b	;volatile
  2375                           
  2376                           ; BSR set to: 15
  2377                           ;systemConfig.c: 108: SSP2CON2bits.SEN = 0x1;
  2378  001A04  010F               	movlb	15	; () banked
  2379  001A06  8118               	bsf	24,0,b	;volatile
  2380                           
  2381                           ; BSR set to: 15
  2382                           ;systemConfig.c: 109: SSP2CON2bits.GCEN = 0x0;
  2383  001A08  010F               	movlb	15	; () banked
  2384  001A0A  9F18               	bcf	24,7,b	;volatile
  2385                           
  2386                           ; BSR set to: 15
  2387                           ;systemConfig.c: 110: SSP2CON3bits.SCIE = 0x0;
  2388  001A0C  010F               	movlb	15	; () banked
  2389  001A0E  9B39               	bcf	57,5,b	;volatile
  2390                           
  2391                           ;systemConfig.c: 112: SSP2BUF = 0x00;
  2392  001A10  0E00               	movlw	0
  2393  001A12  010F               	movlb	15	; () banked
  2394  001A14  6F03               	movwf	3,b	;volatile
  2395                           
  2396                           ; BSR set to: 15
  2397                           ;systemConfig.c: 113: SSP2CON1bits.SSPEN = 0x1;
  2398  001A16  010F               	movlb	15	; () banked
  2399  001A18  8B19               	bsf	25,5,b	;volatile
  2400                           
  2401                           ; BSR set to: 15
  2402  001A1A  0012               	return		;funcret
  2403  001A1C                     __end_of_setupI2C2:
  2404                           	opt stack 0
  2405                           tblptru	equ	0xFF8
  2406                           tblptrh	equ	0xFF7
  2407                           tblptrl	equ	0xFF6
  2408                           tablat	equ	0xFF5
  2409                           postinc0	equ	0xFEE
  2410                           wreg	equ	0xFE8
  2411                           postinc1	equ	0xFE6
  2412                           postdec1	equ	0xFE5
  2413                           fsr1h	equ	0xFE2
  2414                           fsr1l	equ	0xFE1
  2415                           postinc2	equ	0xFDE
  2416                           postdec2	equ	0xFDD
  2417                           fsr2h	equ	0xFDA
  2418                           fsr2l	equ	0xFD9
  2419                           status	equ	0xFD8
  2420                           
  2421 ;; *************** function _setupI2C1 *****************
  2422 ;; Defined at:
  2423 ;;		line 76 in file "systemConfig.c"
  2424 ;; Parameters:    Size  Location     Type
  2425 ;;		None
  2426 ;; Auto vars:     Size  Location     Type
  2427 ;;		None
  2428 ;; Return value:  Size  Location     Type
  2429 ;;                  1    wreg      void 
  2430 ;; Registers used:
  2431 ;;		wreg, status,2
  2432 ;; Tracked objects:
  2433 ;;		On entry : 0/0
  2434 ;;		On exit  : 0/0
  2435 ;;		Unchanged: 0/0
  2436 ;; Data sizes:     COMRAM   BANK0   BANK1   BANK2   BANK3   BANK4   BANK5   BANK6   BANK7   BANK8   BANK9  BANK10  BANK1
      +1  BANK12  BANK13
  2437 ;;      Params:         0       0       0       0       0       0       0       0       0       0       0       0       
      +0       0       0
  2438 ;;      Locals:         0       0       0       0       0       0       0       0       0       0       0       0       
      +0       0       0
  2439 ;;      Temps:          0       0       0       0       0       0       0       0       0       0       0       0       
      +0       0       0
  2440 ;;      Totals:         0       0       0       0       0       0       0       0       0       0       0       0       
      +0       0       0
  2441 ;;Total ram usage:        0 bytes
  2442 ;; Hardware stack levels used:    1
  2443 ;; Hardware stack levels required when called:    5
  2444 ;; This function calls:
  2445 ;;		Nothing
  2446 ;; This function is called by:
  2447 ;;		_systemInit
  2448 ;; This function uses a non-reentrant model
  2449 ;;
  2450                           
  2451                           	psect	text9
  2452  001BCC                     __ptext9:
  2453                           	opt stack 0
  2454  001BCC                     _setupI2C1:
  2455                           	opt stack 24
  2456                           
  2457                           ;systemConfig.c: 78: SSP1CON1bits.SSPEN = 0x0;
  2458                           
  2459                           ; BSR set to: 15
  2460                           ;incstack = 0
  2461  001BCC  9AC6               	bcf	4038,5,c	;volatile
  2462                           
  2463                           ;systemConfig.c: 80: TRISCbits.TRISC3 = 0x1;
  2464  001BCE  8694               	bsf	3988,3,c	;volatile
  2465                           
  2466                           ;systemConfig.c: 81: TRISCbits.TRISC4 = 0x1;
  2467  001BD0  8894               	bsf	3988,4,c	;volatile
  2468                           
  2469                           ;systemConfig.c: 84: SSP1ADD = 0x13;
  2470  001BD2  0E13               	movlw	19
  2471  001BD4  6EC8               	movwf	4040,c	;volatile
  2472                           
  2473                           ;systemConfig.c: 85: SSP1CON1bits.SSPM = 0x8;
  2474  001BD6  50C6               	movf	4038,w,c	;volatile
  2475  001BD8  0BF0               	andlw	-16
  2476  001BDA  0908               	iorlw	8
  2477  001BDC  6EC6               	movwf	4038,c	;volatile
  2478                           
  2479                           ;systemConfig.c: 87: SSP1BUF = 0x00;
  2480  001BDE  0E00               	movlw	0
  2481  001BE0  6EC9               	movwf	4041,c	;volatile
  2482                           
  2483                           ;systemConfig.c: 89: SSP1CON1bits.SSPEN = 0x1;
  2484  001BE2  8AC6               	bsf	4038,5,c	;volatile
  2485  001BE4  0012               	return		;funcret
  2486  001BE6                     __end_of_setupI2C1:
  2487                           	opt stack 0
  2488                           tblptru	equ	0xFF8
  2489                           tblptrh	equ	0xFF7
  2490                           tblptrl	equ	0xFF6
  2491                           tablat	equ	0xFF5
  2492                           postinc0	equ	0xFEE
  2493                           wreg	equ	0xFE8
  2494                           postinc1	equ	0xFE6
  2495                           postdec1	equ	0xFE5
  2496                           fsr1h	equ	0xFE2
  2497                           fsr1l	equ	0xFE1
  2498                           postinc2	equ	0xFDE
  2499                           postdec2	equ	0xFDD
  2500                           fsr2h	equ	0xFDA
  2501                           fsr2l	equ	0xFD9
  2502                           status	equ	0xFD8
  2503                           
  2504 ;; *************** function _setupADC *****************
  2505 ;; Defined at:
  2506 ;;		line 116 in file "systemConfig.c"
  2507 ;; Parameters:    Size  Location     Type
  2508 ;;		None
  2509 ;; Auto vars:     Size  Location     Type
  2510 ;;		None
  2511 ;; Return value:  Size  Location     Type
  2512 ;;                  1    wreg      void 
  2513 ;; Registers used:
  2514 ;;		wreg, status,2
  2515 ;; Tracked objects:
  2516 ;;		On entry : 0/0
  2517 ;;		On exit  : 0/0
  2518 ;;		Unchanged: 0/0
  2519 ;; Data sizes:     COMRAM   BANK0   BANK1   BANK2   BANK3   BANK4   BANK5   BANK6   BANK7   BANK8   BANK9  BANK10  BANK1
      +1  BANK12  BANK13
  2520 ;;      Params:         0       0       0       0       0       0       0       0       0       0       0       0       
      +0       0       0
  2521 ;;      Locals:         0       0       0       0       0       0       0       0       0       0       0       0       
      +0       0       0
  2522 ;;      Temps:          0       0       0       0       0       0       0       0       0       0       0       0       
      +0       0       0
  2523 ;;      Totals:         0       0       0       0       0       0       0       0       0       0       0       0       
      +0       0       0
  2524 ;;Total ram usage:        0 bytes
  2525 ;; Hardware stack levels used:    1
  2526 ;; Hardware stack levels required when called:    5
  2527 ;; This function calls:
  2528 ;;		Nothing
  2529 ;; This function is called by:
  2530 ;;		_systemInit
  2531 ;; This function uses a non-reentrant model
  2532 ;;
  2533                           
  2534                           	psect	text10
  2535  001566                     __ptext10:
  2536                           	opt stack 0
  2537  001566                     _setupADC:
  2538                           	opt stack 24
  2539                           
  2540                           ;systemConfig.c: 118: ADCON1Hbits.ADON = 0;
  2541                           
  2542                           ;incstack = 0
  2543  001566  9EC1               	bcf	4033,7,c	;volatile
  2544                           
  2545                           ;systemConfig.c: 119: ADCON1Hbits.MODE12 = 1;
  2546  001568  84C1               	bsf	4033,2,c	;volatile
  2547                           
  2548                           ;systemConfig.c: 120: ADCON1Hbits.FORM = 0;
  2549  00156A  0EFC               	movlw	-4
  2550  00156C  16C1               	andwf	4033,f,c	;volatile
  2551                           
  2552                           ;systemConfig.c: 121: ADCON1Lbits.SSRC = 0;
  2553  00156E  98C0               	bcf	4032,4,c	;volatile
  2554  001570  9AC0               	bcf	4032,5,c	;volatile
  2555  001572  9CC0               	bcf	4032,6,c	;volatile
  2556  001574  9EC0               	bcf	4032,7,c	;volatile
  2557                           
  2558                           ;systemConfig.c: 122: ADCON1Lbits.ASAM = 0;
  2559  001576  94C0               	bcf	4032,2,c	;volatile
  2560                           
  2561                           ;systemConfig.c: 124: ADCON2Hbits.PVCFG = 0;
  2562  001578  0E3F               	movlw	-193
  2563  00157A  010E               	movlb	14	; () banked
  2564  00157C  178D               	andwf	141,f,b	;volatile
  2565                           
  2566                           ; BSR set to: 14
  2567                           ;systemConfig.c: 125: ADCON2Hbits.NVCFG0 = 0;
  2568  00157E  010E               	movlb	14	; () banked
  2569  001580  9B8D               	bcf	141,5,b	;volatile
  2570                           
  2571                           ; BSR set to: 14
  2572                           ;systemConfig.c: 126: ADCON2Hbits.BUFREGEN = 1;
  2573  001582  010E               	movlb	14	; () banked
  2574  001584  878D               	bsf	141,3,b	;volatile
  2575                           
  2576                           ; BSR set to: 14
  2577                           ;systemConfig.c: 128: ADCON3Hbits.ADRC = 0;
  2578  001586  010E               	movlb	14	; () banked
  2579  001588  9F8B               	bcf	139,7,b	;volatile
  2580                           
  2581                           ; BSR set to: 14
  2582                           ;systemConfig.c: 129: ADCON3Hbits.PUMPEN = 0;
  2583  00158A  010E               	movlb	14	; () banked
  2584  00158C  9B8B               	bcf	139,5,b	;volatile
  2585                           
  2586                           ;systemConfig.c: 130: ADCON3Lbits.ADCS = 0x20;
  2587  00158E  0E20               	movlw	32
  2588  001590  010E               	movlb	14	; () banked
  2589  001592  6F8A               	movwf	138,b	;volatile
  2590                           
  2591                           ; BSR set to: 14
  2592                           ;systemConfig.c: 132: ADCON5Hbits.ASENA = 0;
  2593  001594  010E               	movlb	14	; () banked
  2594  001596  9F89               	bcf	137,7,b	;volatile
  2595                           
  2596                           ; BSR set to: 14
  2597                           ;systemConfig.c: 133: ADCHS0Lbits.CH0SA = 0;
  2598  001598  010E               	movlb	14	; () banked
  2599  00159A  9186               	bcf	134,0,b	;volatile
  2600  00159C  9386               	bcf	134,1,b	;volatile
  2601  00159E  9586               	bcf	134,2,b	;volatile
  2602  0015A0  9786               	bcf	134,3,b	;volatile
  2603  0015A2  9986               	bcf	134,4,b	;volatile
  2604                           
  2605                           ; BSR set to: 14
  2606                           ;systemConfig.c: 134: ADCHS0Lbits.CH0NA = 0;
  2607  0015A4  010E               	movlb	14	; () banked
  2608  0015A6  9B86               	bcf	134,5,b	;volatile
  2609  0015A8  9D86               	bcf	134,6,b	;volatile
  2610  0015AA  9F86               	bcf	134,7,b	;volatile
  2611                           
  2612                           ; BSR set to: 14
  2613                           ;systemConfig.c: 137: CM1CONbits.CON = 0;
  2614  0015AC  010F               	movlb	15	; () banked
  2615  0015AE  9F53               	bcf	83,7,b	;volatile
  2616                           
  2617                           ; BSR set to: 15
  2618                           ;systemConfig.c: 138: CM2CONbits.CON = 0;
  2619  0015B0  010F               	movlb	15	; () banked
  2620  0015B2  9F38               	bcf	56,7,b	;volatile
  2621                           
  2622                           ; BSR set to: 15
  2623                           ;systemConfig.c: 139: CM3CONbits.CON = 0;
  2624  0015B4  010F               	movlb	15	; () banked
  2625  0015B6  9F37               	bcf	55,7,b	;volatile
  2626                           
  2627                           ; BSR set to: 15
  2628                           ;systemConfig.c: 141: ANCON1bits.ANSEL0 = 1;
  2629  0015B8  010E               	movlb	14	; () banked
  2630  0015BA  8147               	bsf	71,0,b	;volatile
  2631                           
  2632                           ; BSR set to: 14
  2633                           ;systemConfig.c: 142: ANCON1bits.ANSEL1 = 1;
  2634  0015BC  010E               	movlb	14	; () banked
  2635  0015BE  8347               	bsf	71,1,b	;volatile
  2636                           
  2637                           ; BSR set to: 14
  2638                           ;systemConfig.c: 143: ANCON1bits.ANSEL2 = 1;
  2639  0015C0  010E               	movlb	14	; () banked
  2640  0015C2  8547               	bsf	71,2,b	;volatile
  2641                           
  2642                           ; BSR set to: 14
  2643                           ;systemConfig.c: 144: ANCON1bits.ANSEL3 = 1;
  2644  0015C4  010E               	movlb	14	; () banked
  2645  0015C6  8747               	bsf	71,3,b	;volatile
  2646                           
  2647                           ; BSR set to: 14
  2648                           ;systemConfig.c: 145: ANCON1bits.ANSEL4 = 1;
  2649  0015C8  010E               	movlb	14	; () banked
  2650  0015CA  8947               	bsf	71,4,b	;volatile
  2651                           
  2652                           ; BSR set to: 14
  2653                           ;systemConfig.c: 146: ANCON1bits.ANSEL5 = 1;
  2654  0015CC  010E               	movlb	14	; () banked
  2655  0015CE  8B47               	bsf	71,5,b	;volatile
  2656                           
  2657                           ; BSR set to: 14
  2658                           ;systemConfig.c: 147: ANCON2bits.ANSEL11 = 1;
  2659  0015D0  010E               	movlb	14	; () banked
  2660  0015D2  8746               	bsf	70,3,b	;volatile
  2661                           
  2662                           ; BSR set to: 14
  2663                           ;systemConfig.c: 148: ANCON1bits.ANSEL7 = 1;
  2664  0015D4  010E               	movlb	14	; () banked
  2665  0015D6  8F47               	bsf	71,7,b	;volatile
  2666                           
  2667                           ; BSR set to: 14
  2668                           ;systemConfig.c: 149: ANCON2bits.ANSEL8 = 1;
  2669  0015D8  010E               	movlb	14	; () banked
  2670  0015DA  8146               	bsf	70,0,b	;volatile
  2671                           
  2672                           ; BSR set to: 14
  2673                           ;systemConfig.c: 150: ANCON3bits.ANSEL22 = 1;
  2674  0015DC  010E               	movlb	14	; () banked
  2675  0015DE  8D45               	bsf	69,6,b	;volatile
  2676                           
  2677                           ; BSR set to: 14
  2678                           ;systemConfig.c: 152: TRISAbits.TRISA0 = 1;
  2679  0015E0  8092               	bsf	3986,0,c	;volatile
  2680                           
  2681                           ; BSR set to: 14
  2682                           ;systemConfig.c: 153: TRISAbits.TRISA1 = 1;
  2683  0015E2  8292               	bsf	3986,1,c	;volatile
  2684                           
  2685                           ; BSR set to: 14
  2686                           ;systemConfig.c: 154: TRISAbits.TRISA2 = 1;
  2687  0015E4  8492               	bsf	3986,2,c	;volatile
  2688                           
  2689                           ; BSR set to: 14
  2690                           ;systemConfig.c: 155: TRISAbits.TRISA3 = 1;
  2691  0015E6  8692               	bsf	3986,3,c	;volatile
  2692                           
  2693                           ; BSR set to: 14
  2694                           ;systemConfig.c: 156: TRISAbits.TRISA5 = 1;
  2695  0015E8  8A92               	bsf	3986,5,c	;volatile
  2696                           
  2697                           ; BSR set to: 14
  2698                           ;systemConfig.c: 157: TRISFbits.TRISF7 = 1;
  2699  0015EA  8E97               	bsf	3991,7,c	;volatile
  2700                           
  2701                           ; BSR set to: 14
  2702                           ;systemConfig.c: 158: TRISAbits.TRISA4 = 1;
  2703  0015EC  8892               	bsf	3986,4,c	;volatile
  2704                           
  2705                           ; BSR set to: 14
  2706                           ;systemConfig.c: 159: TRISHbits.TRISH6 = 1;
  2707  0015EE  8C99               	bsf	3993,6,c	;volatile
  2708                           
  2709                           ; BSR set to: 14
  2710                           ;systemConfig.c: 160: TRISGbits.TRISG0 = 1;
  2711  0015F0  8098               	bsf	3992,0,c	;volatile
  2712                           
  2713                           ; BSR set to: 14
  2714                           ;systemConfig.c: 161: TRISCbits.TRISC2 = 1;
  2715  0015F2  8494               	bsf	3988,2,c	;volatile
  2716                           
  2717                           ; BSR set to: 14
  2718  0015F4  0012               	return		;funcret
  2719  0015F6                     __end_of_setupADC:
  2720                           	opt stack 0
  2721                           tblptru	equ	0xFF8
  2722                           tblptrh	equ	0xFF7
  2723                           tblptrl	equ	0xFF6
  2724                           tablat	equ	0xFF5
  2725                           postinc0	equ	0xFEE
  2726                           wreg	equ	0xFE8
  2727                           postinc1	equ	0xFE6
  2728                           postdec1	equ	0xFE5
  2729                           fsr1h	equ	0xFE2
  2730                           fsr1l	equ	0xFE1
  2731                           postinc2	equ	0xFDE
  2732                           postdec2	equ	0xFDD
  2733                           fsr2h	equ	0xFDA
  2734                           fsr2l	equ	0xFD9
  2735                           status	equ	0xFD8
  2736                           
  2737 ;; *************** function _mapPeripheralPins *****************
  2738 ;; Defined at:
  2739 ;;		line 164 in file "systemConfig.c"
  2740 ;; Parameters:    Size  Location     Type
  2741 ;;		None
  2742 ;; Auto vars:     Size  Location     Type
  2743 ;;		None
  2744 ;; Return value:  Size  Location     Type
  2745 ;;                  1    wreg      void 
  2746 ;; Registers used:
  2747 ;;		wreg, status,2, status,0
  2748 ;; Tracked objects:
  2749 ;;		On entry : 0/0
  2750 ;;		On exit  : 0/0
  2751 ;;		Unchanged: 0/0
  2752 ;; Data sizes:     COMRAM   BANK0   BANK1   BANK2   BANK3   BANK4   BANK5   BANK6   BANK7   BANK8   BANK9  BANK10  BANK1
      +1  BANK12  BANK13
  2753 ;;      Params:         0       0       0       0       0       0       0       0       0       0       0       0       
      +0       0       0
  2754 ;;      Locals:         0       0       0       0       0       0       0       0       0       0       0       0       
      +0       0       0
  2755 ;;      Temps:          0       0       0       0       0       0       0       0       0       0       0       0       
      +0       0       0
  2756 ;;      Totals:         0       0       0       0       0       0       0       0       0       0       0       0       
      +0       0       0
  2757 ;;Total ram usage:        0 bytes
  2758 ;; Hardware stack levels used:    1
  2759 ;; Hardware stack levels required when called:    5
  2760 ;; This function calls:
  2761 ;;		Nothing
  2762 ;; This function is called by:
  2763 ;;		_systemInit
  2764 ;; This function uses a non-reentrant model
  2765 ;;
  2766                           
  2767                           	psect	text11
  2768  0018F0                     __ptext11:
  2769                           	opt stack 0
  2770  0018F0                     _mapPeripheralPins:
  2771                           	opt stack 24
  2772                           
  2773                           ;systemConfig.c: 167: OSCCON = (OSCCON & 0x5F);
  2774                           
  2775                           ; BSR set to: 14
  2776                           ;incstack = 0
  2777  0018F0  50D3               	movf	4051,w,c	;volatile
  2778  0018F2  0B5F               	andlw	95
  2779  0018F4  6ED3               	movwf	4051,c	;volatile
  2780                           
  2781                           ;systemConfig.c: 168: RPINR20_21bits.IOC3R = 0x9;
  2782  0018F6  010E               	movlb	14	; () banked
  2783  0018F8  5134               	movf	52,w,b	;volatile
  2784  0018FA  0B0F               	andlw	-241
  2785  0018FC  0990               	iorlw	144
  2786  0018FE  6F34               	movwf	52,b	;volatile
  2787                           
  2788                           ; BSR set to: 14
  2789                           ;systemConfig.c: 169: RPINR20_21bits.IOC2R = 0xA;
  2790  001900  010E               	movlb	14	; () banked
  2791  001902  5134               	movf	52,w,b	;volatile
  2792  001904  0BF0               	andlw	-16
  2793  001906  090A               	iorlw	10
  2794  001908  6F34               	movwf	52,b	;volatile
  2795                           
  2796                           ; BSR set to: 14
  2797                           ;systemConfig.c: 170: RPINR24_25bits.IOC6R = 0x8;
  2798  00190A  010E               	movlb	14	; () banked
  2799  00190C  5136               	movf	54,w,b	;volatile
  2800  00190E  0BF0               	andlw	-16
  2801  001910  0908               	iorlw	8
  2802  001912  6F36               	movwf	54,b	;volatile
  2803                           
  2804                           ; BSR set to: 14
  2805                           ;systemConfig.c: 171: RPINR18_19bits.IOC1R = 0x5;
  2806  001914  010E               	movlb	14	; () banked
  2807  001916  5133               	movf	51,w,b	;volatile
  2808  001918  0B0F               	andlw	-241
  2809  00191A  0950               	iorlw	80
  2810  00191C  6F33               	movwf	51,b	;volatile
  2811                           
  2812                           ; BSR set to: 14
  2813                           ;systemConfig.c: 172: RPINR24_25bits.IOC7R = 0xA;
  2814  00191E  010E               	movlb	14	; () banked
  2815  001920  5136               	movf	54,w,b	;volatile
  2816  001922  0B0F               	andlw	-241
  2817  001924  09A0               	iorlw	160
  2818  001926  6F36               	movwf	54,b	;volatile
  2819                           
  2820                           ; BSR set to: 14
  2821                           ;systemConfig.c: 173: RPINR22_23bits.IOC4R = 0x6;
  2822  001928  010E               	movlb	14	; () banked
  2823  00192A  5135               	movf	53,w,b	;volatile
  2824  00192C  0BF0               	andlw	-16
  2825  00192E  0906               	iorlw	6
  2826  001930  6F35               	movwf	53,b	;volatile
  2827                           
  2828                           ; BSR set to: 14
  2829                           ;systemConfig.c: 174: RPINR22_23bits.IOC5R = 0x8;
  2830  001932  010E               	movlb	14	; () banked
  2831  001934  5135               	movf	53,w,b	;volatile
  2832  001936  0B0F               	andlw	-241
  2833  001938  0980               	iorlw	128
  2834  00193A  6F35               	movwf	53,b	;volatile
  2835                           
  2836                           ; BSR set to: 14
  2837                           ;systemConfig.c: 175: OSCCON = (OSCCON | 0x40);
  2838  00193C  50D3               	movf	4051,w,c	;volatile
  2839  00193E  0940               	iorlw	64
  2840  001940  6ED3               	movwf	4051,c	;volatile
  2841                           
  2842                           ; BSR set to: 14
  2843  001942  0012               	return		;funcret
  2844  001944                     __end_of_mapPeripheralPins:
  2845                           	opt stack 0
  2846                           tblptru	equ	0xFF8
  2847                           tblptrh	equ	0xFF7
  2848                           tblptrl	equ	0xFF6
  2849                           tablat	equ	0xFF5
  2850                           postinc0	equ	0xFEE
  2851                           wreg	equ	0xFE8
  2852                           postinc1	equ	0xFE6
  2853                           postdec1	equ	0xFE5
  2854                           fsr1h	equ	0xFE2
  2855                           fsr1l	equ	0xFE1
  2856                           postinc2	equ	0xFDE
  2857                           postdec2	equ	0xFDD
  2858                           fsr2h	equ	0xFDA
  2859                           fsr2l	equ	0xFD9
  2860                           status	equ	0xFD8
  2861                           
  2862 ;; *************** function _killLEDs *****************
  2863 ;; Defined at:
  2864 ;;		line 679 in file "hardware.c"
  2865 ;; Parameters:    Size  Location     Type
  2866 ;;		None
  2867 ;; Auto vars:     Size  Location     Type
  2868 ;;		None
  2869 ;; Return value:  Size  Location     Type
  2870 ;;                  1    wreg      void 
  2871 ;; Registers used:
  2872 ;;		None
  2873 ;; Tracked objects:
  2874 ;;		On entry : 0/0
  2875 ;;		On exit  : 0/0
  2876 ;;		Unchanged: 0/0
  2877 ;; Data sizes:     COMRAM   BANK0   BANK1   BANK2   BANK3   BANK4   BANK5   BANK6   BANK7   BANK8   BANK9  BANK10  BANK1
      +1  BANK12  BANK13
  2878 ;;      Params:         0       0       0       0       0       0       0       0       0       0       0       0       
      +0       0       0
  2879 ;;      Locals:         0       0       0       0       0       0       0       0       0       0       0       0       
      +0       0       0
  2880 ;;      Temps:          0       0       0       0       0       0       0       0       0       0       0       0       
      +0       0       0
  2881 ;;      Totals:         0       0       0       0       0       0       0       0       0       0       0       0       
      +0       0       0
  2882 ;;Total ram usage:        0 bytes
  2883 ;; Hardware stack levels used:    1
  2884 ;; Hardware stack levels required when called:    5
  2885 ;; This function calls:
  2886 ;;		Nothing
  2887 ;; This function is called by:
  2888 ;;		_systemInit
  2889 ;; This function uses a non-reentrant model
  2890 ;;
  2891                           
  2892                           	psect	text12
  2893  001BAC                     __ptext12:
  2894                           	opt stack 0
  2895  001BAC                     _killLEDs:
  2896                           	opt stack 24
  2897                           
  2898                           ;hardware.c: 681: LATE0 = 0;
  2899                           
  2900                           ; BSR set to: 14
  2901                           ;incstack = 0
  2902  001BAC  908D               	bcf	3981,0,c	;volatile
  2903                           
  2904                           ;hardware.c: 682: LATD2 = 0;
  2905  001BAE  948C               	bcf	3980,2,c	;volatile
  2906                           
  2907                           ;hardware.c: 683: LATH7 = 0;
  2908  001BB0  9E90               	bcf	3984,7,c	;volatile
  2909                           
  2910                           ;hardware.c: 684: LATF2 = 0;
  2911  001BB2  948E               	bcf	3982,2,c	;volatile
  2912                           
  2913                           ;hardware.c: 685: LATF5 = 0;
  2914  001BB4  9A8E               	bcf	3982,5,c	;volatile
  2915                           
  2916                           ;hardware.c: 686: LATF6 = 0;
  2917  001BB6  9C8E               	bcf	3982,6,c	;volatile
  2918                           
  2919                           ;hardware.c: 687: LATG4 = 0;
  2920  001BB8  988F               	bcf	3983,4,c	;volatile
  2921                           
  2922                           ;hardware.c: 688: LATH0 = 0;
  2923  001BBA  9090               	bcf	3984,0,c	;volatile
  2924                           
  2925                           ;hardware.c: 689: LATE1 = 0;
  2926  001BBC  928D               	bcf	3981,1,c	;volatile
  2927                           
  2928                           ;hardware.c: 690: LATH1 = 0;
  2929  001BBE  9290               	bcf	3984,1,c	;volatile
  2930                           
  2931                           ;hardware.c: 691: LATD0 = 0;
  2932  001BC0  908C               	bcf	3980,0,c	;volatile
  2933                           
  2934                           ;hardware.c: 692: LATE7 = 0;
  2935  001BC2  9E8D               	bcf	3981,7,c	;volatile
  2936                           
  2937                           ;hardware.c: 693: LATE5 = 0;
  2938  001BC4  9A8D               	bcf	3981,5,c	;volatile
  2939                           
  2940                           ;hardware.c: 694: LATE4 = 0;
  2941  001BC6  988D               	bcf	3981,4,c	;volatile
  2942                           
  2943                           ;hardware.c: 695: LATH2 = 0;
  2944  001BC8  9490               	bcf	3984,2,c	;volatile
  2945  001BCA  0012               	return		;funcret
  2946  001BCC                     __end_of_killLEDs:
  2947                           	opt stack 0
  2948                           tblptru	equ	0xFF8
  2949                           tblptrh	equ	0xFF7
  2950                           tblptrl	equ	0xFF6
  2951                           tablat	equ	0xFF5
  2952                           postinc0	equ	0xFEE
  2953                           wreg	equ	0xFE8
  2954                           postinc1	equ	0xFE6
  2955                           postdec1	equ	0xFE5
  2956                           fsr1h	equ	0xFE2
  2957                           fsr1l	equ	0xFE1
  2958                           postinc2	equ	0xFDE
  2959                           postdec2	equ	0xFDD
  2960                           fsr2h	equ	0xFDA
  2961                           fsr2l	equ	0xFD9
  2962                           status	equ	0xFD8
  2963                           
  2964 ;; *************** function _interruptInit *****************
  2965 ;; Defined at:
  2966 ;;		line 291 in file "systemConfig.c"
  2967 ;; Parameters:    Size  Location     Type
  2968 ;;		None
  2969 ;; Auto vars:     Size  Location     Type
  2970 ;;		None
  2971 ;; Return value:  Size  Location     Type
  2972 ;;                  1    wreg      void 
  2973 ;; Registers used:
  2974 ;;		None
  2975 ;; Tracked objects:
  2976 ;;		On entry : 0/0
  2977 ;;		On exit  : 0/0
  2978 ;;		Unchanged: 0/0
  2979 ;; Data sizes:     COMRAM   BANK0   BANK1   BANK2   BANK3   BANK4   BANK5   BANK6   BANK7   BANK8   BANK9  BANK10  BANK1
      +1  BANK12  BANK13
  2980 ;;      Params:         0       0       0       0       0       0       0       0       0       0       0       0       
      +0       0       0
  2981 ;;      Locals:         0       0       0       0       0       0       0       0       0       0       0       0       
      +0       0       0
  2982 ;;      Temps:          0       0       0       0       0       0       0       0       0       0       0       0       
      +0       0       0
  2983 ;;      Totals:         0       0       0       0       0       0       0       0       0       0       0       0       
      +0       0       0
  2984 ;;Total ram usage:        0 bytes
  2985 ;; Hardware stack levels used:    1
  2986 ;; Hardware stack levels required when called:    5
  2987 ;; This function calls:
  2988 ;;		Nothing
  2989 ;; This function is called by:
  2990 ;;		_systemInit
  2991 ;; This function uses a non-reentrant model
  2992 ;;
  2993                           
  2994                           	psect	text13
  2995  001B04                     __ptext13:
  2996                           	opt stack 0
  2997  001B04                     _interruptInit:
  2998                           	opt stack 24
  2999                           
  3000                           ;systemConfig.c: 293: INTCONbits.T0IE = 0x1;
  3001                           
  3002                           ;incstack = 0
  3003  001B04  8AF2               	bsf	intcon,5,c	;volatile
  3004                           
  3005                           ;systemConfig.c: 294: PIE1bits.TMR1IE = 0x1;
  3006  001B06  809D               	bsf	3997,0,c	;volatile
  3007                           
  3008                           ;systemConfig.c: 295: PIE1bits.TMR2IE = 0x1;
  3009  001B08  829D               	bsf	3997,1,c	;volatile
  3010                           
  3011                           ;systemConfig.c: 296: PIE2bits.TMR3IE = 0x1;
  3012  001B0A  82A0               	bsf	4000,1,c	;volatile
  3013                           
  3014                           ;systemConfig.c: 297: PIE5bits.TMR4IE = 0x1;
  3015  001B0C  80B7               	bsf	4023,0,c	;volatile
  3016                           
  3017                           ;systemConfig.c: 299: PIE2bits.SSP2IE = 0x1;
  3018  001B0E  8CA0               	bsf	4000,6,c	;volatile
  3019                           
  3020                           ;systemConfig.c: 301: INTCONbits.IOCIE = 0x1;
  3021  001B10  86F2               	bsf	intcon,3,c	;volatile
  3022                           
  3023                           ;systemConfig.c: 302: IOCNbits.IOCN1 = 0x1;
  3024  001B12  010F               	movlb	15	; () banked
  3025  001B14  8355               	bsf	85,1,b	;volatile
  3026                           
  3027                           ;systemConfig.c: 303: IOCNbits.IOCN2 = 0x1;
  3028  001B16  010F               	movlb	15	; () banked
  3029  001B18  8555               	bsf	85,2,b	;volatile
  3030                           
  3031                           ;systemConfig.c: 304: IOCNbits.IOCN3 = 0x1;
  3032  001B1A  010F               	movlb	15	; () banked
  3033  001B1C  8755               	bsf	85,3,b	;volatile
  3034                           
  3035                           ;systemConfig.c: 305: IOCNbits.IOCN4 = 0x1;
  3036  001B1E  010F               	movlb	15	; () banked
  3037  001B20  8955               	bsf	85,4,b	;volatile
  3038                           
  3039                           ;systemConfig.c: 306: IOCNbits.IOCN5 = 0x1;
  3040  001B22  010F               	movlb	15	; () banked
  3041  001B24  8B55               	bsf	85,5,b	;volatile
  3042                           
  3043                           ;systemConfig.c: 307: IOCNbits.IOCN6 = 0x1;
  3044  001B26  010F               	movlb	15	; () banked
  3045  001B28  8D55               	bsf	85,6,b	;volatile
  3046                           
  3047                           ;systemConfig.c: 308: IOCNbits.IOCN7 = 0x1;
  3048  001B2A  010F               	movlb	15	; () banked
  3049  001B2C  8F55               	bsf	85,7,b	;volatile
  3050                           
  3051                           ;systemConfig.c: 310: INTCONbits.PEIE = 0x1;
  3052  001B2E  8CF2               	bsf	intcon,6,c	;volatile
  3053                           
  3054                           ;systemConfig.c: 311: INTCONbits.GIE = 0x1;
  3055  001B30  8EF2               	bsf	intcon,7,c	;volatile
  3056                           
  3057                           ; BSR set to: 15
  3058  001B32  0012               	return		;funcret
  3059  001B34                     __end_of_interruptInit:
  3060                           	opt stack 0
  3061                           tblptru	equ	0xFF8
  3062                           tblptrh	equ	0xFF7
  3063                           tblptrl	equ	0xFF6
  3064                           tablat	equ	0xFF5
  3065                           intcon	equ	0xFF2
  3066                           postinc0	equ	0xFEE
  3067                           wreg	equ	0xFE8
  3068                           postinc1	equ	0xFE6
  3069                           postdec1	equ	0xFE5
  3070                           fsr1h	equ	0xFE2
  3071                           fsr1l	equ	0xFE1
  3072                           postinc2	equ	0xFDE
  3073                           postdec2	equ	0xFDD
  3074                           fsr2h	equ	0xFDA
  3075                           fsr2l	equ	0xFD9
  3076                           status	equ	0xFD8
  3077                           
  3078 ;; *************** function _interfaceInit *****************
  3079 ;; Defined at:
  3080 ;;		line 193 in file "systemConfig.c"
  3081 ;; Parameters:    Size  Location     Type
  3082 ;;		None
  3083 ;; Auto vars:     Size  Location     Type
  3084 ;;		None
  3085 ;; Return value:  Size  Location     Type
  3086 ;;                  1    wreg      void 
  3087 ;; Registers used:
  3088 ;;		None
  3089 ;; Tracked objects:
  3090 ;;		On entry : 0/0
  3091 ;;		On exit  : 0/0
  3092 ;;		Unchanged: 0/0
  3093 ;; Data sizes:     COMRAM   BANK0   BANK1   BANK2   BANK3   BANK4   BANK5   BANK6   BANK7   BANK8   BANK9  BANK10  BANK1
      +1  BANK12  BANK13
  3094 ;;      Params:         0       0       0       0       0       0       0       0       0       0       0       0       
      +0       0       0
  3095 ;;      Locals:         0       0       0       0       0       0       0       0       0       0       0       0       
      +0       0       0
  3096 ;;      Temps:          0       0       0       0       0       0       0       0       0       0       0       0       
      +0       0       0
  3097 ;;      Totals:         0       0       0       0       0       0       0       0       0       0       0       0       
      +0       0       0
  3098 ;;Total ram usage:        0 bytes
  3099 ;; Hardware stack levels used:    1
  3100 ;; Hardware stack levels required when called:    5
  3101 ;; This function calls:
  3102 ;;		Nothing
  3103 ;; This function is called by:
  3104 ;;		_systemInit
  3105 ;; This function uses a non-reentrant model
  3106 ;;
  3107                           
  3108                           	psect	text14
  3109  001278                     __ptext14:
  3110                           	opt stack 0
  3111  001278                     _interfaceInit:
  3112                           	opt stack 24
  3113                           
  3114                           ;systemConfig.c: 196: MEMCONbits.EBDIS = 1;
  3115                           
  3116                           ; BSR set to: 15
  3117                           ;incstack = 0
  3118  001278  010E               	movlb	14	; () banked
  3119  00127A  8FE3               	bsf	227,7,b	;volatile
  3120                           
  3121                           ;systemConfig.c: 197: UCONbits.USBEN = 0;
  3122  00127C  9675               	bcf	3957,3,c	;volatile
  3123                           
  3124                           ;systemConfig.c: 200: OSCCON2bits.SOSCGO = 0;
  3125  00127E  9266               	bcf	3942,1,c	;volatile
  3126                           
  3127                           ;systemConfig.c: 201: T1CONbits.SOSCEN = 0;
  3128  001280  96CD               	bcf	4045,3,c	;volatile
  3129                           
  3130                           ;systemConfig.c: 202: T3CONbits.SOSCEN = 0;
  3131  001282  96B1               	bcf	4017,3,c	;volatile
  3132                           
  3133                           ;systemConfig.c: 203: T5CONbits.SOSCEN = 0;
  3134  001284  010F               	movlb	15	; () banked
  3135  001286  9714               	bcf	20,3,b	;volatile
  3136                           
  3137                           ;systemConfig.c: 208: ANCON2bits.ANSEL12 = 0;
  3138  001288  010E               	movlb	14	; () banked
  3139  00128A  9946               	bcf	70,4,b	;volatile
  3140                           
  3141                           ;systemConfig.c: 209: TRISGbits.TRISG1 = 1;
  3142  00128C  8298               	bsf	3992,1,c	;volatile
  3143                           
  3144                           ;systemConfig.c: 210: PADCFG1bits.RGPU = 1;
  3145  00128E  010F               	movlb	15	; () banked
  3146  001290  8954               	bsf	84,4,b	;volatile
  3147                           
  3148                           ;systemConfig.c: 212: ANCON2bits.ANSEL13 = 0;
  3149  001292  010E               	movlb	14	; () banked
  3150  001294  9B46               	bcf	70,5,b	;volatile
  3151                           
  3152                           ;systemConfig.c: 213: TRISGbits.TRISG2 = 1;
  3153  001296  8498               	bsf	3992,2,c	;volatile
  3154                           
  3155                           ;systemConfig.c: 215: TRISEbits.TRISE6 = 1;
  3156  001298  8C96               	bsf	3990,6,c	;volatile
  3157                           
  3158                           ;systemConfig.c: 217: TRISDbits.TRISD1 = 1;
  3159  00129A  8295               	bsf	3989,1,c	;volatile
  3160                           
  3161                           ;systemConfig.c: 218: PADCFG1bits.RDPU = 1;
  3162  00129C  010F               	movlb	15	; () banked
  3163  00129E  8F54               	bsf	84,7,b	;volatile
  3164                           
  3165                           ;systemConfig.c: 220: ANCON2bits.ANSEL14 = 0;
  3166  0012A0  010E               	movlb	14	; () banked
  3167  0012A2  9D46               	bcf	70,6,b	;volatile
  3168                           
  3169                           ;systemConfig.c: 221: TRISGbits.TRISG3 = 1;
  3170  0012A4  8698               	bsf	3992,3,c	;volatile
  3171                           
  3172                           ;systemConfig.c: 223: PADCFG1bits.REPU = 1;
  3173  0012A6  010F               	movlb	15	; () banked
  3174  0012A8  8D54               	bsf	84,6,b	;volatile
  3175                           
  3176                           ;systemConfig.c: 224: TRISDbits.TRISD4 = 1;
  3177  0012AA  8895               	bsf	3989,4,c	;volatile
  3178                           
  3179                           ;systemConfig.c: 225: TRISEbits.TRISE3 = 1;
  3180  0012AC  8696               	bsf	3990,3,c	;volatile
  3181                           
  3182                           ;systemConfig.c: 228: TRISEbits.TRISE0 = 0;
  3183  0012AE  9096               	bcf	3990,0,c	;volatile
  3184                           
  3185                           ;systemConfig.c: 229: TRISDbits.TRISD2 = 0;
  3186  0012B0  9495               	bcf	3989,2,c	;volatile
  3187                           
  3188                           ;systemConfig.c: 232: TRISEbits.TRISE1 = 0;
  3189  0012B2  9296               	bcf	3990,1,c	;volatile
  3190                           
  3191                           ;systemConfig.c: 233: ANCON3bits.ANSEL17 = 0;
  3192  0012B4  010E               	movlb	14	; () banked
  3193  0012B6  9345               	bcf	69,1,b	;volatile
  3194                           
  3195                           ;systemConfig.c: 234: TRISHbits.TRISH1 = 0;
  3196  0012B8  9299               	bcf	3993,1,c	;volatile
  3197                           
  3198                           ;systemConfig.c: 237: TRISDbits.TRISD0 = 0;
  3199  0012BA  9095               	bcf	3989,0,c	;volatile
  3200                           
  3201                           ;systemConfig.c: 238: TRISEbits.TRISE7 = 0;
  3202  0012BC  9E96               	bcf	3990,7,c	;volatile
  3203                           
  3204                           ;systemConfig.c: 239: TRISEbits.TRISE5 = 0;
  3205  0012BE  9A96               	bcf	3990,5,c	;volatile
  3206                           
  3207                           ;systemConfig.c: 240: TRISEbits.TRISE4 = 0;
  3208  0012C0  9896               	bcf	3990,4,c	;volatile
  3209                           
  3210                           ;systemConfig.c: 241: ANCON3bits.ANSEL18 = 0;
  3211  0012C2  010E               	movlb	14	; () banked
  3212  0012C4  9545               	bcf	69,2,b	;volatile
  3213                           
  3214                           ;systemConfig.c: 242: TRISHbits.TRISH2 = 0;
  3215  0012C6  9499               	bcf	3993,2,c	;volatile
  3216                           
  3217                           ;systemConfig.c: 245: ANCON1bits.ANSEL6 = 0;
  3218  0012C8  010E               	movlb	14	; () banked
  3219  0012CA  9D47               	bcf	71,6,b	;volatile
  3220                           
  3221                           ;systemConfig.c: 246: TRISFbits.TRISF2 = 0;
  3222  0012CC  9497               	bcf	3991,2,c	;volatile
  3223                           
  3224                           ;systemConfig.c: 247: ANCON3bits.ANSEL23 = 0;
  3225  0012CE  010E               	movlb	14	; () banked
  3226  0012D0  9F45               	bcf	69,7,b	;volatile
  3227                           
  3228                           ;systemConfig.c: 248: TRISHbits.TRISH7 = 0;
  3229  0012D2  9E99               	bcf	3993,7,c	;volatile
  3230                           
  3231                           ;systemConfig.c: 251: ANCON2bits.ANSEL10 = 0;
  3232  0012D4  010E               	movlb	14	; () banked
  3233  0012D6  9546               	bcf	70,2,b	;volatile
  3234                           
  3235                           ;systemConfig.c: 252: TRISFbits.TRISF6 = 0;
  3236  0012D8  9C97               	bcf	3991,6,c	;volatile
  3237                           
  3238                           ;systemConfig.c: 253: ANCON2bits.ANSEL9 = 0;
  3239  0012DA  010E               	movlb	14	; () banked
  3240  0012DC  9346               	bcf	70,1,b	;volatile
  3241                           
  3242                           ;systemConfig.c: 254: TRISFbits.TRISF5 = 0;
  3243  0012DE  9A97               	bcf	3991,5,c	;volatile
  3244                           
  3245                           ;systemConfig.c: 257: ANCON3bits.ANSEL16 = 0;
  3246  0012E0  010E               	movlb	14	; () banked
  3247  0012E2  9145               	bcf	69,0,b	;volatile
  3248                           
  3249                           ;systemConfig.c: 258: TRISHbits.TRISH0 = 0;
  3250  0012E4  9099               	bcf	3993,0,c	;volatile
  3251                           
  3252                           ;systemConfig.c: 259: TRISGbits.TRISG4 = 0;
  3253  0012E6  9898               	bcf	3992,4,c	;volatile
  3254                           
  3255                           ;systemConfig.c: 260: ANCON2bits.ANSEL15 = 0;
  3256  0012E8  010E               	movlb	14	; () banked
  3257  0012EA  9F46               	bcf	70,7,b	;volatile
  3258                           
  3259                           ;systemConfig.c: 263: TRISCbits.TRISC7 = 1;
  3260  0012EC  8E94               	bsf	3988,7,c	;volatile
  3261                           
  3262                           ;systemConfig.c: 264: TRISJbits.TRISJ4 = 1;
  3263  0012EE  889A               	bsf	3994,4,c	;volatile
  3264                           
  3265                           ;systemConfig.c: 265: TRISJbits.TRISJ5 = 1;
  3266  0012F0  8A9A               	bsf	3994,5,c	;volatile
  3267                           
  3268                           ;systemConfig.c: 268: TRISCbits.TRISC1 = 1;
  3269  0012F2  8294               	bsf	3988,1,c	;volatile
  3270                           
  3271                           ;systemConfig.c: 269: TRISCbits.TRISC0 = 1;
  3272  0012F4  8094               	bsf	3988,0,c	;volatile
  3273                           
  3274                           ;systemConfig.c: 270: TRISCbits.TRISC6 = 1;
  3275  0012F6  8C94               	bsf	3988,6,c	;volatile
  3276                           
  3277                           ;systemConfig.c: 273: ANCON3bits.ANSEL21 = 0;
  3278  0012F8  010E               	movlb	14	; () banked
  3279  0012FA  9B45               	bcf	69,5,b	;volatile
  3280                           
  3281                           ;systemConfig.c: 274: ANCON3bits.ANSEL20 = 0;
  3282  0012FC  010E               	movlb	14	; () banked
  3283  0012FE  9945               	bcf	69,4,b	;volatile
  3284                           
  3285                           ;systemConfig.c: 275: TRISFbits.TRISF3 = 1;
  3286  001300  8697               	bsf	3991,3,c	;volatile
  3287                           
  3288                           ;systemConfig.c: 276: TRISHbits.TRISH5 = 1;
  3289  001302  8A99               	bsf	3993,5,c	;volatile
  3290                           
  3291                           ;systemConfig.c: 277: TRISHbits.TRISH4 = 1;
  3292  001304  8899               	bsf	3993,4,c	;volatile
  3293                           
  3294                           ;systemConfig.c: 280: TRISBbits.TRISB5 = 0;
  3295  001306  9A93               	bcf	3987,5,c	;volatile
  3296                           
  3297                           ;systemConfig.c: 281: TRISDbits.TRISD3 = 0;
  3298  001308  9695               	bcf	3989,3,c	;volatile
  3299                           
  3300                           ;systemConfig.c: 282: LATB5 = 1;
  3301  00130A  8A8A               	bsf	3978,5,c	;volatile
  3302                           
  3303                           ;systemConfig.c: 283: LATD3 = 0;
  3304  00130C  968C               	bcf	3980,3,c	;volatile
  3305                           
  3306                           ;systemConfig.c: 286: TRISJbits.TRISJ0 = 1;
  3307  00130E  809A               	bsf	3994,0,c	;volatile
  3308                           
  3309                           ;systemConfig.c: 287: TRISJbits.TRISJ1 = 1;
  3310  001310  829A               	bsf	3994,1,c	;volatile
  3311                           
  3312                           ;systemConfig.c: 288: TRISDbits.TRISD7 = 1;
  3313  001312  8E95               	bsf	3989,7,c	;volatile
  3314                           
  3315                           ; BSR set to: 14
  3316  001314  0012               	return		;funcret
  3317  001316                     __end_of_interfaceInit:
  3318                           	opt stack 0
  3319                           tblptru	equ	0xFF8
  3320                           tblptrh	equ	0xFF7
  3321                           tblptrl	equ	0xFF6
  3322                           tablat	equ	0xFF5
  3323                           intcon	equ	0xFF2
  3324                           postinc0	equ	0xFEE
  3325                           wreg	equ	0xFE8
  3326                           postinc1	equ	0xFE6
  3327                           postdec1	equ	0xFE5
  3328                           fsr1h	equ	0xFE2
  3329                           fsr1l	equ	0xFE1
  3330                           postinc2	equ	0xFDE
  3331                           postdec2	equ	0xFDD
  3332                           fsr2h	equ	0xFDA
  3333                           fsr2l	equ	0xFD9
  3334                           status	equ	0xFD8
  3335                           
  3336 ;; *************** function _defaultLED *****************
  3337 ;; Defined at:
  3338 ;;		line 314 in file "systemConfig.c"
  3339 ;; Parameters:    Size  Location     Type
  3340 ;;		None
  3341 ;; Auto vars:     Size  Location     Type
  3342 ;;		None
  3343 ;; Return value:  Size  Location     Type
  3344 ;;                  1    wreg      void 
  3345 ;; Registers used:
  3346 ;;		None
  3347 ;; Tracked objects:
  3348 ;;		On entry : 0/0
  3349 ;;		On exit  : 0/0
  3350 ;;		Unchanged: 0/0
  3351 ;; Data sizes:     COMRAM   BANK0   BANK1   BANK2   BANK3   BANK4   BANK5   BANK6   BANK7   BANK8   BANK9  BANK10  BANK1
      +1  BANK12  BANK13
  3352 ;;      Params:         0       0       0       0       0       0       0       0       0       0       0       0       
      +0       0       0
  3353 ;;      Locals:         0       0       0       0       0       0       0       0       0       0       0       0       
      +0       0       0
  3354 ;;      Temps:          0       0       0       0       0       0       0       0       0       0       0       0       
      +0       0       0
  3355 ;;      Totals:         0       0       0       0       0       0       0       0       0       0       0       0       
      +0       0       0
  3356 ;;Total ram usage:        0 bytes
  3357 ;; Hardware stack levels used:    1
  3358 ;; Hardware stack levels required when called:    5
  3359 ;; This function calls:
  3360 ;;		Nothing
  3361 ;; This function is called by:
  3362 ;;		_systemInit
  3363 ;; This function uses a non-reentrant model
  3364 ;;
  3365                           
  3366                           	psect	text15
  3367  001BFE                     __ptext15:
  3368                           	opt stack 0
  3369  001BFE                     _defaultLED:
  3370                           	opt stack 24
  3371                           
  3372                           ;systemConfig.c: 316: LATH7 = 1;
  3373                           
  3374                           ; BSR set to: 14
  3375                           ;incstack = 0
  3376  001BFE  8E90               	bsf	3984,7,c	;volatile
  3377                           
  3378                           ;systemConfig.c: 317: LATF2 = 1;
  3379  001C00  848E               	bsf	3982,2,c	;volatile
  3380                           
  3381                           ;systemConfig.c: 318: LATF5 = 1;
  3382  001C02  8A8E               	bsf	3982,5,c	;volatile
  3383                           
  3384                           ;systemConfig.c: 319: LATF6 = 1;
  3385  001C04  8C8E               	bsf	3982,6,c	;volatile
  3386                           
  3387                           ;systemConfig.c: 320: LATG4 = 1;
  3388  001C06  888F               	bsf	3983,4,c	;volatile
  3389                           
  3390                           ;systemConfig.c: 321: LATH0 = 1;
  3391  001C08  8090               	bsf	3984,0,c	;volatile
  3392                           
  3393                           ;systemConfig.c: 322: LATD0 = 1;
  3394  001C0A  808C               	bsf	3980,0,c	;volatile
  3395                           
  3396                           ;systemConfig.c: 323: LATE7 = 1;
  3397  001C0C  8E8D               	bsf	3981,7,c	;volatile
  3398                           
  3399                           ;systemConfig.c: 324: LATE5 = 1;
  3400  001C0E  8A8D               	bsf	3981,5,c	;volatile
  3401                           
  3402                           ;systemConfig.c: 325: LATE4 = 1;
  3403  001C10  888D               	bsf	3981,4,c	;volatile
  3404                           
  3405                           ;systemConfig.c: 326: LATH2 = 1;
  3406  001C12  8490               	bsf	3984,2,c	;volatile
  3407  001C14  0012               	return		;funcret
  3408  001C16                     __end_of_defaultLED:
  3409                           	opt stack 0
  3410                           tblptru	equ	0xFF8
  3411                           tblptrh	equ	0xFF7
  3412                           tblptrl	equ	0xFF6
  3413                           tablat	equ	0xFF5
  3414                           intcon	equ	0xFF2
  3415                           postinc0	equ	0xFEE
  3416                           wreg	equ	0xFE8
  3417                           postinc1	equ	0xFE6
  3418                           postdec1	equ	0xFE5
  3419                           fsr1h	equ	0xFE2
  3420                           fsr1l	equ	0xFE1
  3421                           postinc2	equ	0xFDE
  3422                           postdec2	equ	0xFDD
  3423                           fsr2h	equ	0xFDA
  3424                           fsr2l	equ	0xFD9
  3425                           status	equ	0xFD8
  3426                           
  3427 ;; *************** function _clockSwitch *****************
  3428 ;; Defined at:
  3429 ;;		line 52 in file "systemConfig.c"
  3430 ;; Parameters:    Size  Location     Type
  3431 ;;		None
  3432 ;; Auto vars:     Size  Location     Type
  3433 ;;		None
  3434 ;; Return value:  Size  Location     Type
  3435 ;;                  1    wreg      void 
  3436 ;; Registers used:
  3437 ;;		wreg, status,2, status,0
  3438 ;; Tracked objects:
  3439 ;;		On entry : 0/0
  3440 ;;		On exit  : 0/0
  3441 ;;		Unchanged: 0/0
  3442 ;; Data sizes:     COMRAM   BANK0   BANK1   BANK2   BANK3   BANK4   BANK5   BANK6   BANK7   BANK8   BANK9  BANK10  BANK1
      +1  BANK12  BANK13
  3443 ;;      Params:         0       0       0       0       0       0       0       0       0       0       0       0       
      +0       0       0
  3444 ;;      Locals:         0       0       0       0       0       0       0       0       0       0       0       0       
      +0       0       0
  3445 ;;      Temps:          0       0       0       0       0       0       0       0       0       0       0       0       
      +0       0       0
  3446 ;;      Totals:         0       0       0       0       0       0       0       0       0       0       0       0       
      +0       0       0
  3447 ;;Total ram usage:        0 bytes
  3448 ;; Hardware stack levels used:    1
  3449 ;; Hardware stack levels required when called:    5
  3450 ;; This function calls:
  3451 ;;		Nothing
  3452 ;; This function is called by:
  3453 ;;		_systemInit
  3454 ;; This function uses a non-reentrant model
  3455 ;;
  3456                           
  3457                           	psect	text16
  3458  001B88                     __ptext16:
  3459                           	opt stack 0
  3460  001B88                     _clockSwitch:
  3461                           	opt stack 24
  3462                           
  3463                           ;systemConfig.c: 54: OSCCON4bits.PLLEN = 0x1;
  3464                           
  3465                           ;incstack = 0
  3466  001B88  8A64               	bsf	3940,5,c	;volatile
  3467                           
  3468                           ;systemConfig.c: 55: OSCCON3bits.IRCF = 0x1;
  3469  001B8A  5065               	movf	3941,w,c	;volatile
  3470  001B8C  0BF8               	andlw	-8
  3471  001B8E  0901               	iorlw	1
  3472  001B90  6E65               	movwf	3941,c	;volatile
  3473                           
  3474                           ;systemConfig.c: 56: OSCCON2bits.CLKLOCK = 0x0;
  3475  001B92  9E66               	bcf	3942,7,c	;volatile
  3476                           
  3477                           ;systemConfig.c: 57: OSCCONbits.NOSC = 0x1;
  3478  001B94  50D3               	movf	4051,w,c	;volatile
  3479  001B96  0BF8               	andlw	-8
  3480  001B98  0901               	iorlw	1
  3481  001B9A  6ED3               	movwf	4051,c	;volatile
  3482  001B9C  38D3               	swapf	4051,w,c	;volatile
  3483  001B9E  0B07               	andlw	7
  3484  001BA0  06E8               	decf	wreg,f,c
  3485  001BA2  A4D8               	btfss	status,2,c
  3486  001BA4  D7FB               	goto	l521
  3487  001BA6                     u2940:
  3488                           
  3489                           ;systemConfig.c: 60: while (!OSCCON2bits.LOCK);
  3490  001BA6  BA66               	btfsc	3942,5,c	;volatile
  3491  001BA8  0012               	return	
  3492  001BAA  D7FD               	goto	u2940
  3493  001BAC                     __end_of_clockSwitch:
  3494                           	opt stack 0
  3495                           tblptru	equ	0xFF8
  3496                           tblptrh	equ	0xFF7
  3497                           tblptrl	equ	0xFF6
  3498                           tablat	equ	0xFF5
  3499                           intcon	equ	0xFF2
  3500                           postinc0	equ	0xFEE
  3501                           wreg	equ	0xFE8
  3502                           postinc1	equ	0xFE6
  3503                           postdec1	equ	0xFE5
  3504                           fsr1h	equ	0xFE2
  3505                           fsr1l	equ	0xFE1
  3506                           postinc2	equ	0xFDE
  3507                           postdec2	equ	0xFDD
  3508                           fsr2h	equ	0xFDA
  3509                           fsr2l	equ	0xFD9
  3510                           status	equ	0xFD8
  3511                           
  3512 ;; *************** function _bypassSetup *****************
  3513 ;; Defined at:
  3514 ;;		line 329 in file "systemConfig.c"
  3515 ;; Parameters:    Size  Location     Type
  3516 ;;		None
  3517 ;; Auto vars:     Size  Location     Type
  3518 ;;		None
  3519 ;; Return value:  Size  Location     Type
  3520 ;;                  1    wreg      void 
  3521 ;; Registers used:
  3522 ;;		None
  3523 ;; Tracked objects:
  3524 ;;		On entry : 0/0
  3525 ;;		On exit  : 0/0
  3526 ;;		Unchanged: 0/0
  3527 ;; Data sizes:     COMRAM   BANK0   BANK1   BANK2   BANK3   BANK4   BANK5   BANK6   BANK7   BANK8   BANK9  BANK10  BANK1
      +1  BANK12  BANK13
  3528 ;;      Params:         0       0       0       0       0       0       0       0       0       0       0       0       
      +0       0       0
  3529 ;;      Locals:         0       0       0       0       0       0       0       0       0       0       0       0       
      +0       0       0
  3530 ;;      Temps:          0       0       0       0       0       0       0       0       0       0       0       0       
      +0       0       0
  3531 ;;      Totals:         0       0       0       0       0       0       0       0       0       0       0       0       
      +0       0       0
  3532 ;;Total ram usage:        0 bytes
  3533 ;; Hardware stack levels used:    1
  3534 ;; Hardware stack levels required when called:    5
  3535 ;; This function calls:
  3536 ;;		Nothing
  3537 ;; This function is called by:
  3538 ;;		_systemInit
  3539 ;; This function uses a non-reentrant model
  3540 ;;
  3541                           
  3542                           	psect	text17
  3543  001C56                     __ptext17:
  3544                           	opt stack 0
  3545  001C56                     _bypassSetup:
  3546                           	opt stack 24
  3547                           
  3548                           ;systemConfig.c: 331: LATB5 = 1;
  3549                           
  3550                           ;incstack = 0
  3551  001C56  8A8A               	bsf	3978,5,c	;volatile
  3552                           
  3553                           ;systemConfig.c: 332: LATD3 = 1;
  3554  001C58  868C               	bsf	3980,3,c	;volatile
  3555                           
  3556                           ;systemConfig.c: 333: LATE1 = 1;
  3557  001C5A  828D               	bsf	3981,1,c	;volatile
  3558                           
  3559                           ;systemConfig.c: 334: LATH1 = 0;
  3560  001C5C  9290               	bcf	3984,1,c	;volatile
  3561                           
  3562                           ;systemConfig.c: 335: LATD2 = 0;
  3563  001C5E  948C               	bcf	3980,2,c	;volatile
  3564  001C60  0012               	return		;funcret
  3565  001C62                     __end_of_bypassSetup:
  3566                           	opt stack 0
  3567                           tblptru	equ	0xFF8
  3568                           tblptrh	equ	0xFF7
  3569                           tblptrl	equ	0xFF6
  3570                           tablat	equ	0xFF5
  3571                           intcon	equ	0xFF2
  3572                           postinc0	equ	0xFEE
  3573                           wreg	equ	0xFE8
  3574                           postinc1	equ	0xFE6
  3575                           postdec1	equ	0xFE5
  3576                           fsr1h	equ	0xFE2
  3577                           fsr1l	equ	0xFE1
  3578                           postinc2	equ	0xFDE
  3579                           postdec2	equ	0xFDD
  3580                           fsr2h	equ	0xFDA
  3581                           fsr2l	equ	0xFD9
  3582                           status	equ	0xFD8
  3583                           
  3584 ;; *************** function _readControls *****************
  3585 ;; Defined at:
  3586 ;;		line 182 in file "main.c"
  3587 ;; Parameters:    Size  Location     Type
  3588 ;;		None
  3589 ;; Auto vars:     Size  Location     Type
  3590 ;;		None
  3591 ;; Return value:  Size  Location     Type
  3592 ;;                  1    wreg      void 
  3593 ;; Registers used:
  3594 ;;		wreg, status,2, status,0, cstack
  3595 ;; Tracked objects:
  3596 ;;		On entry : 0/0
  3597 ;;		On exit  : 0/0
  3598 ;;		Unchanged: 0/0
  3599 ;; Data sizes:     COMRAM   BANK0   BANK1   BANK2   BANK3   BANK4   BANK5   BANK6   BANK7   BANK8   BANK9  BANK10  BANK1
      +1  BANK12  BANK13
  3600 ;;      Params:         0       0       0       0       0       0       0       0       0       0       0       0       
      +0       0       0
  3601 ;;      Locals:         0       0       0       0       0       0       0       0       0       0       0       0       
      +0       0       0
  3602 ;;      Temps:          0       6       0       0       0       0       0       0       0       0       0       0       
      +0       0       0
  3603 ;;      Totals:         0       6       0       0       0       0       0       0       0       0       0       0       
      +0       0       0
  3604 ;;Total ram usage:        6 bytes
  3605 ;; Hardware stack levels used:    1
  3606 ;; Hardware stack levels required when called:    6
  3607 ;; This function calls:
  3608 ;;		_ADC_Read
  3609 ;;		___ftge
  3610 ;; This function is called by:
  3611 ;;		_main
  3612 ;; This function uses a non-reentrant model
  3613 ;;
  3614                           
  3615                           	psect	text18
  3616  000430                     __ptext18:
  3617                           	opt stack 0
  3618  000430                     _readControls:
  3619                           	opt stack 24
  3620                           
  3621                           ;main.c: 184: if (masterTime.f > 0)
  3622                           
  3623                           ;incstack = 0
  3624  000430  0E00               	movlw	0
  3625  000432  0100               	movlb	0	; () banked
  3626  000434  6FCB               	movwf	___ftge@ff1& (0+255),b
  3627  000436  0E00               	movlw	0
  3628  000438  0100               	movlb	0	; () banked
  3629  00043A  6FCC               	movwf	(___ftge@ff1+1)& (0+255),b
  3630  00043C  0E00               	movlw	0
  3631  00043E  0100               	movlb	0	; () banked
  3632  000440  6FCD               	movwf	(___ftge@ff1+2)& (0+255),b
  3633  000442  C064  F0CE         	movff	_masterTime,___ftge@ff2
  3634  000446  C065  F0CF         	movff	_masterTime+1,___ftge@ff2+1
  3635  00044A  C066  F0D0         	movff	_masterTime+2,___ftge@ff2+2
  3636  00044E  ECD2  F007         	call	___ftge	;wreg free
  3637  000452  0100               	movlb	0	; () banked
  3638  000454  B0D8               	btfsc	status,0,c
  3639  000456  D009               	goto	l181
  3640                           
  3641                           ; BSR set to: 0
  3642                           ;main.c: 185: {
  3643                           ;main.c: 186: lock = RD7;
  3644  000458  AE83               	btfss	3971,7,c	;volatile
  3645  00045A  D002               	goto	u3790
  3646  00045C  0E01               	movlw	1
  3647  00045E  D001               	goto	u3800
  3648  000460                     u3790:
  3649  000460  0E00               	movlw	0
  3650  000462                     u3800:
  3651  000462  0100               	movlb	0	; () banked
  3652  000464  6F6B               	movwf	_lock& (0+255),b
  3653  000466  6B6C               	clrf	(_lock+1)& (0+255),b
  3654                           
  3655                           ;main.c: 187: }
  3656  000468  D005               	goto	l182
  3657  00046A                     l181:
  3658                           
  3659                           ; BSR set to: 0
  3660                           ;main.c: 188: else lock = 0;
  3661                           
  3662                           ; BSR set to: 0
  3663  00046A  0E00               	movlw	0
  3664  00046C  0100               	movlb	0	; () banked
  3665  00046E  6F6C               	movwf	(_lock+1)& (0+255),b
  3666  000470  0E00               	movlw	0
  3667  000472  6F6B               	movwf	_lock& (0+255),b
  3668  000474                     l182:
  3669                           
  3670                           ; BSR set to: 0
  3671                           ;main.c: 191: timeA = ADC_Read(14);
  3672                           
  3673                           ; BSR set to: 0
  3674  000474  0E00               	movlw	0
  3675  000476  0100               	movlb	0	; () banked
  3676  000478  6FCC               	movwf	(ADC_Read@channel+1)& (0+255),b
  3677  00047A  0E0E               	movlw	14
  3678  00047C  6FCB               	movwf	ADC_Read@channel& (0+255),b
  3679  00047E  ECC2  F006         	call	_ADC_Read	;wreg free
  3680  000482  C0CB  F07F         	movff	?_ADC_Read,_timeA
  3681  000486  C0CC  F080         	movff	?_ADC_Read+1,_timeA+1
  3682                           
  3683                           ;main.c: 192: parameter[0] = ((timeA >> 8) | (armA << 7) | (lock << 6));
  3684  00048A  C06B  F0D4         	movff	_lock,??_readControls
  3685  00048E  C06C  F0D5         	movff	_lock+1,??_readControls+1
  3686  000492  0E06               	movlw	6
  3687  000494                     u3815:
  3688  000494  90D8               	bcf	status,0,c
  3689  000496  0100               	movlb	0	; () banked
  3690  000498  37D4               	rlcf	??_readControls& (0+255),f,b
  3691  00049A  37D5               	rlcf	(??_readControls+1)& (0+255),f,b
  3692  00049C  2EE8               	decfsz	wreg,f,c
  3693  00049E  D7FA               	goto	u3815
  3694  0004A0  C08F  F0D6         	movff	_armA,??_readControls+2
  3695  0004A4  C090  F0D7         	movff	_armA+1,??_readControls+3
  3696  0004A8  0E07               	movlw	7
  3697  0004AA                     u3825:
  3698  0004AA  90D8               	bcf	status,0,c
  3699  0004AC  0100               	movlb	0	; () banked
  3700  0004AE  37D6               	rlcf	(??_readControls+2)& (0+255),f,b
  3701  0004B0  37D7               	rlcf	(??_readControls+3)& (0+255),f,b
  3702  0004B2  2EE8               	decfsz	wreg,f,c
  3703  0004B4  D7FA               	goto	u3825
  3704  0004B6  C080  F0D8         	movff	_timeA+1,??_readControls+4
  3705  0004BA  0100               	movlb	0	; () banked
  3706  0004BC  6BD9               	clrf	(??_readControls+5)& (0+255),b
  3707  0004BE  BFD8               	btfsc	(??_readControls+4)& (0+255),7,b
  3708  0004C0  69D9               	setf	(??_readControls+5)& (0+255),b
  3709  0004C2  0100               	movlb	0	; () banked
  3710  0004C4  51D6               	movf	(??_readControls+2)& (0+255),w,b
  3711  0004C6  0100               	movlb	0	; () banked
  3712  0004C8  13D8               	iorwf	(??_readControls+4)& (0+255),f,b
  3713  0004CA  0100               	movlb	0	; () banked
  3714  0004CC  51D7               	movf	(??_readControls+3)& (0+255),w,b
  3715  0004CE  0100               	movlb	0	; () banked
  3716  0004D0  13D9               	iorwf	(??_readControls+5)& (0+255),f,b
  3717  0004D2  0100               	movlb	0	; () banked
  3718  0004D4  51D4               	movf	??_readControls& (0+255),w,b
  3719  0004D6  0100               	movlb	0	; () banked
  3720  0004D8  11D8               	iorwf	(??_readControls+4)& (0+255),w,b
  3721  0004DA  0100               	movlb	0	; () banked
  3722  0004DC  6FAD               	movwf	_parameter& (0+255),b
  3723  0004DE  0100               	movlb	0	; () banked
  3724  0004E0  51D5               	movf	(??_readControls+1)& (0+255),w,b
  3725  0004E2  0100               	movlb	0	; () banked
  3726  0004E4  11D9               	iorwf	(??_readControls+5)& (0+255),w,b
  3727  0004E6  0100               	movlb	0	; () banked
  3728  0004E8  6FAE               	movwf	(_parameter+1)& (0+255),b
  3729                           
  3730                           ; BSR set to: 0
  3731                           ;main.c: 193: parameter[1] = (timeA & 0xFF);
  3732  0004EA  0100               	movlb	0	; () banked
  3733  0004EC  517F               	movf	_timeA& (0+255),w,b
  3734  0004EE  0100               	movlb	0	; () banked
  3735  0004F0  6FAF               	movwf	(_parameter+2)& (0+255),b
  3736  0004F2  6BB0               	clrf	(_parameter+3)& (0+255),b
  3737                           
  3738                           ; BSR set to: 0
  3739                           ;main.c: 195: fbkA = ADC_Read(4);
  3740  0004F4  0E00               	movlw	0
  3741  0004F6  0100               	movlb	0	; () banked
  3742  0004F8  6FCC               	movwf	(ADC_Read@channel+1)& (0+255),b
  3743  0004FA  0E04               	movlw	4
  3744  0004FC  6FCB               	movwf	ADC_Read@channel& (0+255),b
  3745  0004FE  ECC2  F006         	call	_ADC_Read	;wreg free
  3746  000502  C0CB  F083         	movff	?_ADC_Read,_fbkA
  3747  000506  C0CC  F084         	movff	?_ADC_Read+1,_fbkA+1
  3748                           
  3749                           ;main.c: 196: parameter[2] = fbkA>>4;
  3750  00050A  C083  F0D4         	movff	_fbkA,??_readControls
  3751  00050E  C084  F0D5         	movff	_fbkA+1,??_readControls+1
  3752  000512  0E04               	movlw	4
  3753  000514  0100               	movlb	0	; () banked
  3754  000516  6FD6               	movwf	(??_readControls+2)& (0+255),b
  3755  000518                     u3835:
  3756  000518  0100               	movlb	0	; () banked
  3757  00051A  35D5               	rlcf	(??_readControls+1)& (0+255),w,b
  3758  00051C  33D5               	rrcf	(??_readControls+1)& (0+255),f,b
  3759  00051E  33D4               	rrcf	??_readControls& (0+255),f,b
  3760  000520  0100               	movlb	0	; () banked
  3761  000522  2FD6               	decfsz	(??_readControls+2)& (0+255),f,b
  3762  000524  D7F9               	goto	u3835
  3763  000526  C0D4  F0B1         	movff	??_readControls,_parameter+4
  3764  00052A  C0D5  F0B2         	movff	??_readControls+1,_parameter+5
  3765                           
  3766                           ; BSR set to: 0
  3767                           ;main.c: 198: lvlA = ADC_Read(3);
  3768  00052E  0E00               	movlw	0
  3769  000530  0100               	movlb	0	; () banked
  3770  000532  6FCC               	movwf	(ADC_Read@channel+1)& (0+255),b
  3771  000534  0E03               	movlw	3
  3772  000536  6FCB               	movwf	ADC_Read@channel& (0+255),b
  3773  000538  ECC2  F006         	call	_ADC_Read	;wreg free
  3774  00053C  C0CB  F081         	movff	?_ADC_Read,_lvlA
  3775  000540  C0CC  F082         	movff	?_ADC_Read+1,_lvlA+1
  3776                           
  3777                           ;main.c: 199: parameter[3] = lvlA>>4;
  3778  000544  C081  F0D4         	movff	_lvlA,??_readControls
  3779  000548  C082  F0D5         	movff	_lvlA+1,??_readControls+1
  3780  00054C  0E04               	movlw	4
  3781  00054E  0100               	movlb	0	; () banked
  3782  000550  6FD6               	movwf	(??_readControls+2)& (0+255),b
  3783  000552                     u3845:
  3784  000552  0100               	movlb	0	; () banked
  3785  000554  35D5               	rlcf	(??_readControls+1)& (0+255),w,b
  3786  000556  33D5               	rrcf	(??_readControls+1)& (0+255),f,b
  3787  000558  33D4               	rrcf	??_readControls& (0+255),f,b
  3788  00055A  0100               	movlb	0	; () banked
  3789  00055C  2FD6               	decfsz	(??_readControls+2)& (0+255),f,b
  3790  00055E  D7F9               	goto	u3845
  3791  000560  C0D4  F0B3         	movff	??_readControls,_parameter+6
  3792  000564  C0D5  F0B4         	movff	??_readControls+1,_parameter+7
  3793                           
  3794                           ;main.c: 202: timeB = ADC_Read(6);
  3795  000568  0E00               	movlw	0
  3796  00056A  0100               	movlb	0	; () banked
  3797  00056C  6FCC               	movwf	(ADC_Read@channel+1)& (0+255),b
  3798  00056E  0E06               	movlw	6
  3799  000570  6FCB               	movwf	ADC_Read@channel& (0+255),b
  3800  000572  ECC2  F006         	call	_ADC_Read	;wreg free
  3801  000576  C0CB  F079         	movff	?_ADC_Read,_timeB
  3802  00057A  C0CC  F07A         	movff	?_ADC_Read+1,_timeB+1
  3803                           
  3804                           ;main.c: 203: parameter[4] = ((timeB >> 8) | (armB << 7));
  3805  00057E  C08D  F0D4         	movff	_armB,??_readControls
  3806  000582  C08E  F0D5         	movff	_armB+1,??_readControls+1
  3807  000586  0E07               	movlw	7
  3808  000588                     u3855:
  3809  000588  90D8               	bcf	status,0,c
  3810  00058A  0100               	movlb	0	; () banked
  3811  00058C  37D4               	rlcf	??_readControls& (0+255),f,b
  3812  00058E  37D5               	rlcf	(??_readControls+1)& (0+255),f,b
  3813  000590  2EE8               	decfsz	wreg,f,c
  3814  000592  D7FA               	goto	u3855
  3815  000594  C07A  F0D6         	movff	_timeB+1,??_readControls+2
  3816  000598  0100               	movlb	0	; () banked
  3817  00059A  6BD7               	clrf	(??_readControls+3)& (0+255),b
  3818  00059C  BFD6               	btfsc	(??_readControls+2)& (0+255),7,b
  3819  00059E  69D7               	setf	(??_readControls+3)& (0+255),b
  3820  0005A0  0100               	movlb	0	; () banked
  3821  0005A2  51D4               	movf	??_readControls& (0+255),w,b
  3822  0005A4  0100               	movlb	0	; () banked
  3823  0005A6  11D6               	iorwf	(??_readControls+2)& (0+255),w,b
  3824  0005A8  0100               	movlb	0	; () banked
  3825  0005AA  6FB5               	movwf	(_parameter+8)& (0+255),b
  3826  0005AC  0100               	movlb	0	; () banked
  3827  0005AE  51D5               	movf	(??_readControls+1)& (0+255),w,b
  3828  0005B0  0100               	movlb	0	; () banked
  3829  0005B2  11D7               	iorwf	(??_readControls+3)& (0+255),w,b
  3830  0005B4  0100               	movlb	0	; () banked
  3831  0005B6  6FB6               	movwf	(_parameter+9)& (0+255),b
  3832                           
  3833                           ; BSR set to: 0
  3834                           ;main.c: 204: parameter[5] = (timeB & 0xFF);
  3835  0005B8  0100               	movlb	0	; () banked
  3836  0005BA  5179               	movf	_timeB& (0+255),w,b
  3837  0005BC  0100               	movlb	0	; () banked
  3838  0005BE  6FB7               	movwf	(_parameter+10)& (0+255),b
  3839  0005C0  6BB8               	clrf	(_parameter+11)& (0+255),b
  3840                           
  3841                           ; BSR set to: 0
  3842                           ;main.c: 206: fbkB = ADC_Read(2);
  3843  0005C2  0E00               	movlw	0
  3844  0005C4  0100               	movlb	0	; () banked
  3845  0005C6  6FCC               	movwf	(ADC_Read@channel+1)& (0+255),b
  3846  0005C8  0E02               	movlw	2
  3847  0005CA  6FCB               	movwf	ADC_Read@channel& (0+255),b
  3848  0005CC  ECC2  F006         	call	_ADC_Read	;wreg free
  3849  0005D0  C0CB  F07D         	movff	?_ADC_Read,_fbkB
  3850  0005D4  C0CC  F07E         	movff	?_ADC_Read+1,_fbkB+1
  3851                           
  3852                           ;main.c: 207: parameter[6] = fbkB>>4;
  3853  0005D8  C07D  F0D4         	movff	_fbkB,??_readControls
  3854  0005DC  C07E  F0D5         	movff	_fbkB+1,??_readControls+1
  3855  0005E0  0E04               	movlw	4
  3856  0005E2  0100               	movlb	0	; () banked
  3857  0005E4  6FD6               	movwf	(??_readControls+2)& (0+255),b
  3858  0005E6                     u3865:
  3859  0005E6  0100               	movlb	0	; () banked
  3860  0005E8  35D5               	rlcf	(??_readControls+1)& (0+255),w,b
  3861  0005EA  33D5               	rrcf	(??_readControls+1)& (0+255),f,b
  3862  0005EC  33D4               	rrcf	??_readControls& (0+255),f,b
  3863  0005EE  0100               	movlb	0	; () banked
  3864  0005F0  2FD6               	decfsz	(??_readControls+2)& (0+255),f,b
  3865  0005F2  D7F9               	goto	u3865
  3866  0005F4  C0D4  F0B9         	movff	??_readControls,_parameter+12
  3867  0005F8  C0D5  F0BA         	movff	??_readControls+1,_parameter+13
  3868                           
  3869                           ; BSR set to: 0
  3870                           ;main.c: 209: lvlB = ADC_Read(9);
  3871  0005FC  0E00               	movlw	0
  3872  0005FE  0100               	movlb	0	; () banked
  3873  000600  6FCC               	movwf	(ADC_Read@channel+1)& (0+255),b
  3874  000602  0E09               	movlw	9
  3875  000604  6FCB               	movwf	ADC_Read@channel& (0+255),b
  3876  000606  ECC2  F006         	call	_ADC_Read	;wreg free
  3877  00060A  C0CB  F07B         	movff	?_ADC_Read,_lvlB
  3878  00060E  C0CC  F07C         	movff	?_ADC_Read+1,_lvlB+1
  3879                           
  3880                           ;main.c: 210: parameter[7] = lvlB>>4;
  3881  000612  C07B  F0D4         	movff	_lvlB,??_readControls
  3882  000616  C07C  F0D5         	movff	_lvlB+1,??_readControls+1
  3883  00061A  0E04               	movlw	4
  3884  00061C  0100               	movlb	0	; () banked
  3885  00061E  6FD6               	movwf	(??_readControls+2)& (0+255),b
  3886  000620                     u3875:
  3887  000620  0100               	movlb	0	; () banked
  3888  000622  35D5               	rlcf	(??_readControls+1)& (0+255),w,b
  3889  000624  33D5               	rrcf	(??_readControls+1)& (0+255),f,b
  3890  000626  33D4               	rrcf	??_readControls& (0+255),f,b
  3891  000628  0100               	movlb	0	; () banked
  3892  00062A  2FD6               	decfsz	(??_readControls+2)& (0+255),f,b
  3893  00062C  D7F9               	goto	u3875
  3894  00062E  C0D4  F0BB         	movff	??_readControls,_parameter+14
  3895  000632  C0D5  F0BC         	movff	??_readControls+1,_parameter+15
  3896                           
  3897                           ; BSR set to: 0
  3898                           ;main.c: 213: timeC = ADC_Read(1);
  3899  000636  0E00               	movlw	0
  3900  000638  0100               	movlb	0	; () banked
  3901  00063A  6FCC               	movwf	(ADC_Read@channel+1)& (0+255),b
  3902  00063C  0E01               	movlw	1
  3903  00063E  6FCB               	movwf	ADC_Read@channel& (0+255),b
  3904  000640  ECC2  F006         	call	_ADC_Read	;wreg free
  3905  000644  C0CB  F073         	movff	?_ADC_Read,_timeC
  3906  000648  C0CC  F074         	movff	?_ADC_Read+1,_timeC+1
  3907                           
  3908                           ;main.c: 214: parameter[8] = ((timeC >> 8) | (armC << 7));
  3909  00064C  C08B  F0D4         	movff	_armC,??_readControls
  3910  000650  C08C  F0D5         	movff	_armC+1,??_readControls+1
  3911  000654  0E07               	movlw	7
  3912  000656                     u3885:
  3913  000656  90D8               	bcf	status,0,c
  3914  000658  0100               	movlb	0	; () banked
  3915  00065A  37D4               	rlcf	??_readControls& (0+255),f,b
  3916  00065C  37D5               	rlcf	(??_readControls+1)& (0+255),f,b
  3917  00065E  2EE8               	decfsz	wreg,f,c
  3918  000660  D7FA               	goto	u3885
  3919  000662  C074  F0D6         	movff	_timeC+1,??_readControls+2
  3920  000666  0100               	movlb	0	; () banked
  3921  000668  6BD7               	clrf	(??_readControls+3)& (0+255),b
  3922  00066A  BFD6               	btfsc	(??_readControls+2)& (0+255),7,b
  3923  00066C  69D7               	setf	(??_readControls+3)& (0+255),b
  3924  00066E  0100               	movlb	0	; () banked
  3925  000670  51D4               	movf	??_readControls& (0+255),w,b
  3926  000672  0100               	movlb	0	; () banked
  3927  000674  11D6               	iorwf	(??_readControls+2)& (0+255),w,b
  3928  000676  0100               	movlb	0	; () banked
  3929  000678  6FBD               	movwf	(_parameter+16)& (0+255),b
  3930  00067A  0100               	movlb	0	; () banked
  3931  00067C  51D5               	movf	(??_readControls+1)& (0+255),w,b
  3932  00067E  0100               	movlb	0	; () banked
  3933  000680  11D7               	iorwf	(??_readControls+3)& (0+255),w,b
  3934  000682  0100               	movlb	0	; () banked
  3935  000684  6FBE               	movwf	(_parameter+17)& (0+255),b
  3936                           
  3937                           ;main.c: 215: parameter[9] = (timeC & 0xFF);
  3938  000686  0100               	movlb	0	; () banked
  3939  000688  5173               	movf	_timeC& (0+255),w,b
  3940  00068A  0100               	movlb	0	; () banked
  3941  00068C  6FBF               	movwf	(_parameter+18)& (0+255),b
  3942  00068E  6BC0               	clrf	(_parameter+19)& (0+255),b
  3943                           
  3944                           ; BSR set to: 0
  3945                           ;main.c: 217: fbkC = ADC_Read(5);
  3946  000690  0E00               	movlw	0
  3947  000692  0100               	movlb	0	; () banked
  3948  000694  6FCC               	movwf	(ADC_Read@channel+1)& (0+255),b
  3949  000696  0E05               	movlw	5
  3950  000698  6FCB               	movwf	ADC_Read@channel& (0+255),b
  3951  00069A  ECC2  F006         	call	_ADC_Read	;wreg free
  3952  00069E  C0CB  F077         	movff	?_ADC_Read,_fbkC
  3953  0006A2  C0CC  F078         	movff	?_ADC_Read+1,_fbkC+1
  3954                           
  3955                           ;main.c: 218: parameter[10] = fbkC>>4;
  3956  0006A6  C077  F0D4         	movff	_fbkC,??_readControls
  3957  0006AA  C078  F0D5         	movff	_fbkC+1,??_readControls+1
  3958  0006AE  0E04               	movlw	4
  3959  0006B0  0100               	movlb	0	; () banked
  3960  0006B2  6FD6               	movwf	(??_readControls+2)& (0+255),b
  3961  0006B4                     u3895:
  3962  0006B4  0100               	movlb	0	; () banked
  3963  0006B6  35D5               	rlcf	(??_readControls+1)& (0+255),w,b
  3964  0006B8  33D5               	rrcf	(??_readControls+1)& (0+255),f,b
  3965  0006BA  33D4               	rrcf	??_readControls& (0+255),f,b
  3966  0006BC  0100               	movlb	0	; () banked
  3967  0006BE  2FD6               	decfsz	(??_readControls+2)& (0+255),f,b
  3968  0006C0  D7F9               	goto	u3895
  3969  0006C2  C0D4  F0C1         	movff	??_readControls,_parameter+20
  3970  0006C6  C0D5  F0C2         	movff	??_readControls+1,_parameter+21
  3971                           
  3972                           ; BSR set to: 0
  3973                           ;main.c: 220: lvlC = ADC_Read(0);
  3974  0006CA  0E00               	movlw	0
  3975  0006CC  0100               	movlb	0	; () banked
  3976  0006CE  6FCC               	movwf	(ADC_Read@channel+1)& (0+255),b
  3977  0006D0  0E00               	movlw	0
  3978  0006D2  6FCB               	movwf	ADC_Read@channel& (0+255),b
  3979  0006D4  ECC2  F006         	call	_ADC_Read	;wreg free
  3980  0006D8  C0CB  F075         	movff	?_ADC_Read,_lvlC
  3981  0006DC  C0CC  F076         	movff	?_ADC_Read+1,_lvlC+1
  3982                           
  3983                           ;main.c: 221: parameter[11] = lvlC>>4;
  3984  0006E0  C075  F0D4         	movff	_lvlC,??_readControls
  3985  0006E4  C076  F0D5         	movff	_lvlC+1,??_readControls+1
  3986  0006E8  0E04               	movlw	4
  3987  0006EA  0100               	movlb	0	; () banked
  3988  0006EC  6FD6               	movwf	(??_readControls+2)& (0+255),b
  3989  0006EE                     u3905:
  3990  0006EE  0100               	movlb	0	; () banked
  3991  0006F0  35D5               	rlcf	(??_readControls+1)& (0+255),w,b
  3992  0006F2  33D5               	rrcf	(??_readControls+1)& (0+255),f,b
  3993  0006F4  33D4               	rrcf	??_readControls& (0+255),f,b
  3994  0006F6  0100               	movlb	0	; () banked
  3995  0006F8  2FD6               	decfsz	(??_readControls+2)& (0+255),f,b
  3996  0006FA  D7F9               	goto	u3905
  3997  0006FC  C0D4  F0C3         	movff	??_readControls,_parameter+22
  3998  000700  C0D5  F0C4         	movff	??_readControls+1,_parameter+23
  3999                           
  4000                           ; BSR set to: 0
  4001                           ;main.c: 224: parameter[12] = masterTime.b[0];
  4002  000704  C064  F0C5         	movff	_masterTime,_parameter+24
  4003  000708  0100               	movlb	0	; () banked
  4004  00070A  6BC6               	clrf	(_parameter+25)& (0+255),b
  4005                           
  4006                           ; BSR set to: 0
  4007                           ;main.c: 225: parameter[13] = masterTime.b[1];
  4008  00070C  C065  F0C7         	movff	_masterTime+1,_parameter+26
  4009  000710  0100               	movlb	0	; () banked
  4010  000712  6BC8               	clrf	(_parameter+27)& (0+255),b
  4011                           
  4012                           ; BSR set to: 0
  4013                           ;main.c: 226: parameter[14] = masterTime.b[2];
  4014  000714  C066  F0C9         	movff	_masterTime+2,_parameter+28
  4015  000718  0100               	movlb	0	; () banked
  4016  00071A  6BCA               	clrf	(_parameter+29)& (0+255),b
  4017                           
  4018                           ; BSR set to: 0
  4019  00071C  0012               	return		;funcret
  4020  00071E                     __end_of_readControls:
  4021                           	opt stack 0
  4022                           tblptru	equ	0xFF8
  4023                           tblptrh	equ	0xFF7
  4024                           tblptrl	equ	0xFF6
  4025                           tablat	equ	0xFF5
  4026                           intcon	equ	0xFF2
  4027                           postinc0	equ	0xFEE
  4028                           wreg	equ	0xFE8
  4029                           postinc1	equ	0xFE6
  4030                           postdec1	equ	0xFE5
  4031                           fsr1h	equ	0xFE2
  4032                           fsr1l	equ	0xFE1
  4033                           postinc2	equ	0xFDE
  4034                           postdec2	equ	0xFDD
  4035                           fsr2h	equ	0xFDA
  4036                           fsr2l	equ	0xFD9
  4037                           status	equ	0xFD8
  4038                           
  4039 ;; *************** function ___ftge *****************
  4040 ;; Defined at:
  4041 ;;		line 4 in file "/Applications/microchip/xc8/v1.43/sources/common/ftge.c"
  4042 ;; Parameters:    Size  Location     Type
  4043 ;;  ff1             3    0[BANK0 ] float 
  4044 ;;  ff2             3    3[BANK0 ] float 
  4045 ;; Auto vars:     Size  Location     Type
  4046 ;;		None
  4047 ;; Return value:  Size  Location     Type
  4048 ;;		None               void
  4049 ;; Registers used:
  4050 ;;		wreg, status,2, status,0
  4051 ;; Tracked objects:
  4052 ;;		On entry : 0/0
  4053 ;;		On exit  : 0/0
  4054 ;;		Unchanged: 0/0
  4055 ;; Data sizes:     COMRAM   BANK0   BANK1   BANK2   BANK3   BANK4   BANK5   BANK6   BANK7   BANK8   BANK9  BANK10  BANK1
      +1  BANK12  BANK13
  4056 ;;      Params:         0       6       0       0       0       0       0       0       0       0       0       0       
      +0       0       0
  4057 ;;      Locals:         0       0       0       0       0       0       0       0       0       0       0       0       
      +0       0       0
  4058 ;;      Temps:          0       3       0       0       0       0       0       0       0       0       0       0       
      +0       0       0
  4059 ;;      Totals:         0       9       0       0       0       0       0       0       0       0       0       0       
      +0       0       0
  4060 ;;Total ram usage:        9 bytes
  4061 ;; Hardware stack levels used:    1
  4062 ;; Hardware stack levels required when called:    5
  4063 ;; This function calls:
  4064 ;;		Nothing
  4065 ;; This function is called by:
  4066 ;;		_readControls
  4067 ;; This function uses a non-reentrant model
  4068 ;;
  4069                           
  4070                           	psect	text19
  4071  000FA4                     __ptext19:
  4072                           	opt stack 0
  4073  000FA4                     ___ftge:
  4074                           	opt stack 24
  4075                           
  4076                           ; BSR set to: 0
  4077                           ;incstack = 0
  4078  000FA4  0100               	movlb	0	; () banked
  4079  000FA6  AFCD               	btfss	(___ftge@ff1+2)& (0+255),7,b
  4080  000FA8  D01D               	goto	l1590
  4081                           
  4082                           ; BSR set to: 0
  4083  000FAA  C0CB  F0D1         	movff	___ftge@ff1,??___ftge
  4084  000FAE  C0CC  F0D2         	movff	___ftge@ff1+1,??___ftge+1
  4085  000FB2  C0CD  F0D3         	movff	___ftge@ff1+2,??___ftge+2
  4086  000FB6  0100               	movlb	0	; () banked
  4087  000FB8  1FD1               	comf	??___ftge& (0+255),f,b
  4088  000FBA  1FD2               	comf	(??___ftge+1)& (0+255),f,b
  4089  000FBC  1FD3               	comf	(??___ftge+2)& (0+255),f,b
  4090  000FBE  2BD1               	incf	??___ftge& (0+255),f,b
  4091  000FC0  0E00               	movlw	0
  4092  000FC2  23D2               	addwfc	(??___ftge+1)& (0+255),f,b
  4093  000FC4  23D3               	addwfc	(??___ftge+2)& (0+255),f,b
  4094  000FC6  0E00               	movlw	0
  4095  000FC8  0100               	movlb	0	; () banked
  4096  000FCA  25D1               	addwf	??___ftge& (0+255),w,b
  4097  000FCC  0100               	movlb	0	; () banked
  4098  000FCE  6FCB               	movwf	___ftge@ff1& (0+255),b
  4099  000FD0  0E00               	movlw	0
  4100  000FD2  0100               	movlb	0	; () banked
  4101  000FD4  21D2               	addwfc	(??___ftge+1)& (0+255),w,b
  4102  000FD6  0100               	movlb	0	; () banked
  4103  000FD8  6FCC               	movwf	(___ftge@ff1+1)& (0+255),b
  4104  000FDA  0E80               	movlw	128
  4105  000FDC  0100               	movlb	0	; () banked
  4106  000FDE  21D3               	addwfc	(??___ftge+2)& (0+255),w,b
  4107  000FE0  0100               	movlb	0	; () banked
  4108  000FE2  6FCD               	movwf	(___ftge@ff1+2)& (0+255),b
  4109  000FE4                     l1590:
  4110                           
  4111                           ; BSR set to: 0
  4112                           
  4113                           ; BSR set to: 0
  4114  000FE4  0100               	movlb	0	; () banked
  4115  000FE6  AFD0               	btfss	(___ftge@ff2+2)& (0+255),7,b
  4116  000FE8  D01D               	goto	l1591
  4117                           
  4118                           ; BSR set to: 0
  4119  000FEA  C0CE  F0D1         	movff	___ftge@ff2,??___ftge
  4120  000FEE  C0CF  F0D2         	movff	___ftge@ff2+1,??___ftge+1
  4121  000FF2  C0D0  F0D3         	movff	___ftge@ff2+2,??___ftge+2
  4122  000FF6  0100               	movlb	0	; () banked
  4123  000FF8  1FD1               	comf	??___ftge& (0+255),f,b
  4124  000FFA  1FD2               	comf	(??___ftge+1)& (0+255),f,b
  4125  000FFC  1FD3               	comf	(??___ftge+2)& (0+255),f,b
  4126  000FFE  2BD1               	incf	??___ftge& (0+255),f,b
  4127  001000  0E00               	movlw	0
  4128  001002  23D2               	addwfc	(??___ftge+1)& (0+255),f,b
  4129  001004  23D3               	addwfc	(??___ftge+2)& (0+255),f,b
  4130  001006  0E00               	movlw	0
  4131  001008  0100               	movlb	0	; () banked
  4132  00100A  25D1               	addwf	??___ftge& (0+255),w,b
  4133  00100C  0100               	movlb	0	; () banked
  4134  00100E  6FCE               	movwf	___ftge@ff2& (0+255),b
  4135  001010  0E00               	movlw	0
  4136  001012  0100               	movlb	0	; () banked
  4137  001014  21D2               	addwfc	(??___ftge+1)& (0+255),w,b
  4138  001016  0100               	movlb	0	; () banked
  4139  001018  6FCF               	movwf	(___ftge@ff2+1)& (0+255),b
  4140  00101A  0E80               	movlw	128
  4141  00101C  0100               	movlb	0	; () banked
  4142  00101E  21D3               	addwfc	(??___ftge+2)& (0+255),w,b
  4143  001020  0100               	movlb	0	; () banked
  4144  001022  6FD0               	movwf	(___ftge@ff2+2)& (0+255),b
  4145  001024                     l1591:
  4146                           
  4147                           ; BSR set to: 0
  4148                           
  4149                           ; BSR set to: 0
  4150  001024  0E00               	movlw	0
  4151  001026  0100               	movlb	0	; () banked
  4152  001028  1BCB               	xorwf	___ftge@ff1& (0+255),f,b
  4153  00102A  0E00               	movlw	0
  4154  00102C  0100               	movlb	0	; () banked
  4155  00102E  1BCC               	xorwf	(___ftge@ff1+1)& (0+255),f,b
  4156  001030  0E80               	movlw	128
  4157  001032  0100               	movlb	0	; () banked
  4158  001034  1BCD               	xorwf	(___ftge@ff1+2)& (0+255),f,b
  4159                           
  4160                           ; BSR set to: 0
  4161  001036  0E00               	movlw	0
  4162  001038  0100               	movlb	0	; () banked
  4163  00103A  1BCE               	xorwf	___ftge@ff2& (0+255),f,b
  4164  00103C  0E00               	movlw	0
  4165  00103E  0100               	movlb	0	; () banked
  4166  001040  1BCF               	xorwf	(___ftge@ff2+1)& (0+255),f,b
  4167  001042  0E80               	movlw	128
  4168  001044  0100               	movlb	0	; () banked
  4169  001046  1BD0               	xorwf	(___ftge@ff2+2)& (0+255),f,b
  4170  001048  0100               	movlb	0	; () banked
  4171  00104A  51CE               	movf	___ftge@ff2& (0+255),w,b
  4172  00104C  0100               	movlb	0	; () banked
  4173  00104E  5DCB               	subwf	___ftge@ff1& (0+255),w,b
  4174  001050  0100               	movlb	0	; () banked
  4175  001052  51CF               	movf	(___ftge@ff2+1)& (0+255),w,b
  4176  001054  0100               	movlb	0	; () banked
  4177  001056  59CC               	subwfb	(___ftge@ff1+1)& (0+255),w,b
  4178  001058  0100               	movlb	0	; () banked
  4179  00105A  51D0               	movf	(___ftge@ff2+2)& (0+255),w,b
  4180  00105C  0100               	movlb	0	; () banked
  4181  00105E  59CD               	subwfb	(___ftge@ff1+2)& (0+255),w,b
  4182  001060  B0D8               	btfsc	status,0,c
  4183  001062  D002               	goto	l3055
  4184                           
  4185                           ; BSR set to: 0
  4186  001064  90D8               	bcf	status,0,c
  4187  001066  0012               	return	
  4188  001068                     l3055:
  4189                           
  4190                           ; BSR set to: 0
  4191                           
  4192                           ; BSR set to: 0
  4193  001068  80D8               	bsf	status,0,c
  4194                           
  4195                           ; BSR set to: 0
  4196  00106A  0012               	return	
  4197  00106C                     __end_of___ftge:
  4198                           	opt stack 0
  4199                           tblptru	equ	0xFF8
  4200                           tblptrh	equ	0xFF7
  4201                           tblptrl	equ	0xFF6
  4202                           tablat	equ	0xFF5
  4203                           intcon	equ	0xFF2
  4204                           postinc0	equ	0xFEE
  4205                           wreg	equ	0xFE8
  4206                           postinc1	equ	0xFE6
  4207                           postdec1	equ	0xFE5
  4208                           fsr1h	equ	0xFE2
  4209                           fsr1l	equ	0xFE1
  4210                           postinc2	equ	0xFDE
  4211                           postdec2	equ	0xFDD
  4212                           fsr2h	equ	0xFDA
  4213                           fsr2l	equ	0xFD9
  4214                           status	equ	0xFD8
  4215                           
  4216 ;; *************** function _ADC_Read *****************
  4217 ;; Defined at:
  4218 ;;		line 407 in file "hardware.c"
  4219 ;; Parameters:    Size  Location     Type
  4220 ;;  channel         2    0[BANK0 ] int 
  4221 ;; Auto vars:     Size  Location     Type
  4222 ;;  value           2    2[BANK0 ] int 
  4223 ;; Return value:  Size  Location     Type
  4224 ;;                  2    0[BANK0 ] int 
  4225 ;; Registers used:
  4226 ;;		wreg, status,2, status,0
  4227 ;; Tracked objects:
  4228 ;;		On entry : 0/0
  4229 ;;		On exit  : 0/0
  4230 ;;		Unchanged: 0/0
  4231 ;; Data sizes:     COMRAM   BANK0   BANK1   BANK2   BANK3   BANK4   BANK5   BANK6   BANK7   BANK8   BANK9  BANK10  BANK1
      +1  BANK12  BANK13
  4232 ;;      Params:         0       2       0       0       0       0       0       0       0       0       0       0       
      +0       0       0
  4233 ;;      Locals:         0       2       0       0       0       0       0       0       0       0       0       0       
      +0       0       0
  4234 ;;      Temps:          0       0       0       0       0       0       0       0       0       0       0       0       
      +0       0       0
  4235 ;;      Totals:         0       4       0       0       0       0       0       0       0       0       0       0       
      +0       0       0
  4236 ;;Total ram usage:        4 bytes
  4237 ;; Hardware stack levels used:    1
  4238 ;; Hardware stack levels required when called:    5
  4239 ;; This function calls:
  4240 ;;		Nothing
  4241 ;; This function is called by:
  4242 ;;		_readControls
  4243 ;;		_main
  4244 ;; This function uses a non-reentrant model
  4245 ;;
  4246                           
  4247                           	psect	text20
  4248  000D84                     __ptext20:
  4249                           	opt stack 0
  4250  000D84                     _ADC_Read:
  4251                           	opt stack 24
  4252                           
  4253                           ;hardware.c: 409: int value;
  4254                           ;hardware.c: 410: ADCHS0Lbits.CH0SA = channel;
  4255                           
  4256                           ; BSR set to: 0
  4257                           ;incstack = 0
  4258  000D84  010E               	movlb	14	; () banked
  4259  000D86  5186               	movf	134,w,b	;volatile
  4260  000D88  0100               	movlb	0	; () banked
  4261  000D8A  19CB               	xorwf	ADC_Read@channel& (0+255),w,b
  4262  000D8C  0BE0               	andlw	-32
  4263  000D8E  19CB               	xorwf	ADC_Read@channel& (0+255),w,b
  4264  000D90  010E               	movlb	14	; () banked
  4265  000D92  6F86               	movwf	134,b	;volatile
  4266                           
  4267                           ; BSR set to: 14
  4268                           ;hardware.c: 411: _delay((unsigned long)((100)*(32000000/4000000.0)));
  4269  000D94  0EA0               	movlw	160
  4270  000D96                     u4517:
  4271  000D96  D000               	nop2	
  4272  000D98  2EE8               	decfsz	wreg,f,c
  4273  000D9A  D7FD               	bra	u4517
  4274                           
  4275                           ;hardware.c: 412: ADCON1Hbits.ADON = 1;
  4276  000D9C  8EC1               	bsf	4033,7,c	;volatile
  4277                           
  4278                           ;hardware.c: 413: ADCON1Lbits.SAMP = 1;
  4279  000D9E  82C0               	bsf	4032,1,c	;volatile
  4280                           
  4281                           ;hardware.c: 414: _delay((unsigned long)((100)*(32000000/4000000.0)));
  4282  000DA0  0EA0               	movlw	160
  4283  000DA2                     u4527:
  4284  000DA2  D000               	nop2	
  4285  000DA4  2EE8               	decfsz	wreg,f,c
  4286  000DA6  D7FD               	bra	u4527
  4287                           
  4288                           ;hardware.c: 415: ADCON1Lbits.SAMP = 0;
  4289  000DA8  92C0               	bcf	4032,1,c	;volatile
  4290  000DAA  A0C0               	btfss	4032,0,c	;volatile
  4291  000DAC  D7FE               	goto	l902
  4292                           
  4293                           ;hardware.c: 417: ADCON1Hbits.ADON = 0;
  4294  000DAE  9EC1               	bcf	4033,7,c	;volatile
  4295                           
  4296                           ;hardware.c: 420: if (channel == 0)
  4297  000DB0  0100               	movlb	0	; () banked
  4298  000DB2  51CB               	movf	ADC_Read@channel& (0+255),w,b
  4299  000DB4  0100               	movlb	0	; () banked
  4300  000DB6  11CC               	iorwf	(ADC_Read@channel+1)& (0+255),w,b
  4301  000DB8  A4D8               	btfss	status,2,c
  4302  000DBA  D005               	goto	l904
  4303                           
  4304                           ; BSR set to: 0
  4305                           ;hardware.c: 421: {
  4306                           ;hardware.c: 422: value = ADCBUF0;
  4307  000DBC  CFC2 F0CD          	movff	4034,ADC_Read@value	;volatile
  4308  000DC0  CFC3 F0CE          	movff	4035,ADC_Read@value+1	;volatile
  4309                           
  4310                           ;hardware.c: 423: }
  4311  000DC4  D070               	goto	l923
  4312  000DC6                     l904:
  4313                           
  4314                           ; BSR set to: 0
  4315                           ;hardware.c: 424: else if (channel == 1)
  4316                           
  4317                           ; BSR set to: 0
  4318  000DC6  0100               	movlb	0	; () banked
  4319  000DC8  05CB               	decf	ADC_Read@channel& (0+255),w,b
  4320  000DCA  0100               	movlb	0	; () banked
  4321  000DCC  11CC               	iorwf	(ADC_Read@channel+1)& (0+255),w,b
  4322  000DCE  A4D8               	btfss	status,2,c
  4323  000DD0  D005               	goto	l906
  4324                           
  4325                           ; BSR set to: 0
  4326                           ;hardware.c: 425: {
  4327                           ;hardware.c: 426: value = ADCBUF1;
  4328  000DD2  CE48 F0CD          	movff	3656,ADC_Read@value	;volatile
  4329  000DD6  CE49 F0CE          	movff	3657,ADC_Read@value+1	;volatile
  4330                           
  4331                           ;hardware.c: 427: }
  4332  000DDA  D065               	goto	l923
  4333  000DDC                     l906:
  4334                           
  4335                           ; BSR set to: 0
  4336                           ;hardware.c: 428: else if (channel == 2)
  4337                           
  4338                           ; BSR set to: 0
  4339  000DDC  0E02               	movlw	2
  4340  000DDE  0100               	movlb	0	; () banked
  4341  000DE0  19CB               	xorwf	ADC_Read@channel& (0+255),w,b
  4342  000DE2  0100               	movlb	0	; () banked
  4343  000DE4  11CC               	iorwf	(ADC_Read@channel+1)& (0+255),w,b
  4344  000DE6  A4D8               	btfss	status,2,c
  4345  000DE8  D005               	goto	l908
  4346                           
  4347                           ; BSR set to: 0
  4348                           ;hardware.c: 429: {
  4349                           ;hardware.c: 430: value = ADCBUF2;
  4350  000DEA  CE4A F0CD          	movff	3658,ADC_Read@value	;volatile
  4351  000DEE  CE4B F0CE          	movff	3659,ADC_Read@value+1	;volatile
  4352                           
  4353                           ;hardware.c: 431: }
  4354  000DF2  D059               	goto	l923
  4355  000DF4                     l908:
  4356                           
  4357                           ; BSR set to: 0
  4358                           ;hardware.c: 432: else if (channel == 3)
  4359                           
  4360                           ; BSR set to: 0
  4361  000DF4  0E03               	movlw	3
  4362  000DF6  0100               	movlb	0	; () banked
  4363  000DF8  19CB               	xorwf	ADC_Read@channel& (0+255),w,b
  4364  000DFA  0100               	movlb	0	; () banked
  4365  000DFC  11CC               	iorwf	(ADC_Read@channel+1)& (0+255),w,b
  4366  000DFE  A4D8               	btfss	status,2,c
  4367  000E00  D005               	goto	l910
  4368                           
  4369                           ; BSR set to: 0
  4370                           ;hardware.c: 433: {
  4371                           ;hardware.c: 434: value = ADCBUF3;
  4372  000E02  CE4C F0CD          	movff	3660,ADC_Read@value	;volatile
  4373  000E06  CE4D F0CE          	movff	3661,ADC_Read@value+1	;volatile
  4374                           
  4375                           ;hardware.c: 435: }
  4376  000E0A  D04D               	goto	l923
  4377  000E0C                     l910:
  4378                           
  4379                           ; BSR set to: 0
  4380                           ;hardware.c: 436: else if (channel == 4)
  4381                           
  4382                           ; BSR set to: 0
  4383  000E0C  0E04               	movlw	4
  4384  000E0E  0100               	movlb	0	; () banked
  4385  000E10  19CB               	xorwf	ADC_Read@channel& (0+255),w,b
  4386  000E12  0100               	movlb	0	; () banked
  4387  000E14  11CC               	iorwf	(ADC_Read@channel+1)& (0+255),w,b
  4388  000E16  A4D8               	btfss	status,2,c
  4389  000E18  D005               	goto	l912
  4390                           
  4391                           ; BSR set to: 0
  4392                           ;hardware.c: 437: {
  4393                           ;hardware.c: 438: value = ADCBUF4;
  4394  000E1A  CE4E F0CD          	movff	3662,ADC_Read@value	;volatile
  4395  000E1E  CE4F F0CE          	movff	3663,ADC_Read@value+1	;volatile
  4396                           
  4397                           ;hardware.c: 439: }
  4398  000E22  D041               	goto	l923
  4399  000E24                     l912:
  4400                           
  4401                           ; BSR set to: 0
  4402                           ;hardware.c: 440: else if (channel == 5)
  4403                           
  4404                           ; BSR set to: 0
  4405  000E24  0E05               	movlw	5
  4406  000E26  0100               	movlb	0	; () banked
  4407  000E28  19CB               	xorwf	ADC_Read@channel& (0+255),w,b
  4408  000E2A  0100               	movlb	0	; () banked
  4409  000E2C  11CC               	iorwf	(ADC_Read@channel+1)& (0+255),w,b
  4410  000E2E  A4D8               	btfss	status,2,c
  4411  000E30  D005               	goto	l914
  4412                           
  4413                           ; BSR set to: 0
  4414                           ;hardware.c: 441: {
  4415                           ;hardware.c: 442: value = ADCBUF5;
  4416  000E32  CE50 F0CD          	movff	3664,ADC_Read@value	;volatile
  4417  000E36  CE51 F0CE          	movff	3665,ADC_Read@value+1	;volatile
  4418                           
  4419                           ;hardware.c: 443: }
  4420  000E3A  D035               	goto	l923
  4421  000E3C                     l914:
  4422                           
  4423                           ; BSR set to: 0
  4424                           ;hardware.c: 444: else if (channel == 6)
  4425                           
  4426                           ; BSR set to: 0
  4427  000E3C  0E06               	movlw	6
  4428  000E3E  0100               	movlb	0	; () banked
  4429  000E40  19CB               	xorwf	ADC_Read@channel& (0+255),w,b
  4430  000E42  0100               	movlb	0	; () banked
  4431  000E44  11CC               	iorwf	(ADC_Read@channel+1)& (0+255),w,b
  4432  000E46  A4D8               	btfss	status,2,c
  4433  000E48  D005               	goto	l916
  4434                           
  4435                           ; BSR set to: 0
  4436                           ;hardware.c: 445: {
  4437                           ;hardware.c: 446: value = ADCBUF6;
  4438  000E4A  CE52 F0CD          	movff	3666,ADC_Read@value	;volatile
  4439  000E4E  CE53 F0CE          	movff	3667,ADC_Read@value+1	;volatile
  4440                           
  4441                           ;hardware.c: 447: }
  4442  000E52  D029               	goto	l923
  4443  000E54                     l916:
  4444                           
  4445                           ; BSR set to: 0
  4446                           ;hardware.c: 448: else if (channel == 14)
  4447                           
  4448                           ; BSR set to: 0
  4449  000E54  0E0E               	movlw	14
  4450  000E56  0100               	movlb	0	; () banked
  4451  000E58  19CB               	xorwf	ADC_Read@channel& (0+255),w,b
  4452  000E5A  0100               	movlb	0	; () banked
  4453  000E5C  11CC               	iorwf	(ADC_Read@channel+1)& (0+255),w,b
  4454  000E5E  A4D8               	btfss	status,2,c
  4455  000E60  D005               	goto	l918
  4456                           
  4457                           ; BSR set to: 0
  4458                           ;hardware.c: 449: {
  4459                           ;hardware.c: 450: value = ADCBUF14;
  4460  000E62  CE62 F0CD          	movff	3682,ADC_Read@value	;volatile
  4461  000E66  CE63 F0CE          	movff	3683,ADC_Read@value+1	;volatile
  4462                           
  4463                           ;hardware.c: 451: }
  4464  000E6A  D01D               	goto	l923
  4465  000E6C                     l918:
  4466                           
  4467                           ; BSR set to: 0
  4468                           ;hardware.c: 452: else if (channel == 8)
  4469                           
  4470                           ; BSR set to: 0
  4471  000E6C  0E08               	movlw	8
  4472  000E6E  0100               	movlb	0	; () banked
  4473  000E70  19CB               	xorwf	ADC_Read@channel& (0+255),w,b
  4474  000E72  0100               	movlb	0	; () banked
  4475  000E74  11CC               	iorwf	(ADC_Read@channel+1)& (0+255),w,b
  4476  000E76  A4D8               	btfss	status,2,c
  4477  000E78  D005               	goto	l920
  4478                           
  4479                           ; BSR set to: 0
  4480                           ;hardware.c: 453: {
  4481                           ;hardware.c: 454: value = ADCBUF8;
  4482  000E7A  CE56 F0CD          	movff	3670,ADC_Read@value	;volatile
  4483  000E7E  CE57 F0CE          	movff	3671,ADC_Read@value+1	;volatile
  4484                           
  4485                           ;hardware.c: 455: }
  4486  000E82  D011               	goto	l923
  4487  000E84                     l920:
  4488                           
  4489                           ; BSR set to: 0
  4490                           ;hardware.c: 456: else if (channel == 9)
  4491                           
  4492                           ; BSR set to: 0
  4493  000E84  0E09               	movlw	9
  4494  000E86  0100               	movlb	0	; () banked
  4495  000E88  19CB               	xorwf	ADC_Read@channel& (0+255),w,b
  4496  000E8A  0100               	movlb	0	; () banked
  4497  000E8C  11CC               	iorwf	(ADC_Read@channel+1)& (0+255),w,b
  4498  000E8E  A4D8               	btfss	status,2,c
  4499  000E90  D005               	goto	l922
  4500                           
  4501                           ; BSR set to: 0
  4502                           ;hardware.c: 457: {
  4503                           ;hardware.c: 458: value = ADCBUF9;
  4504  000E92  CE58 F0CD          	movff	3672,ADC_Read@value	;volatile
  4505  000E96  CE59 F0CE          	movff	3673,ADC_Read@value+1	;volatile
  4506                           
  4507                           ;hardware.c: 459: }
  4508  000E9A  D005               	goto	l923
  4509  000E9C                     l922:
  4510                           
  4511                           ; BSR set to: 0
  4512                           ;hardware.c: 460: else value = 0;
  4513                           
  4514                           ; BSR set to: 0
  4515  000E9C  0E00               	movlw	0
  4516  000E9E  0100               	movlb	0	; () banked
  4517  000EA0  6FCE               	movwf	(ADC_Read@value+1)& (0+255),b
  4518  000EA2  0E00               	movlw	0
  4519  000EA4  6FCD               	movwf	ADC_Read@value& (0+255),b
  4520  000EA6                     l923:
  4521                           
  4522                           ; BSR set to: 0
  4523                           ;hardware.c: 461: return (value);
  4524                           
  4525                           ; BSR set to: 0
  4526                           
  4527                           ; BSR set to: 0
  4528                           
  4529                           ; BSR set to: 0
  4530                           
  4531                           ; BSR set to: 0
  4532                           
  4533                           ; BSR set to: 0
  4534                           
  4535                           ; BSR set to: 0
  4536                           
  4537                           ; BSR set to: 0
  4538                           
  4539                           ; BSR set to: 0
  4540                           
  4541                           ; BSR set to: 0
  4542                           
  4543                           ; BSR set to: 0
  4544  000EA6  C0CD  F0CB         	movff	ADC_Read@value,?_ADC_Read
  4545  000EAA  C0CE  F0CC         	movff	ADC_Read@value+1,?_ADC_Read+1
  4546  000EAE  0012               	return	
  4547  000EB0                     __end_of_ADC_Read:
  4548                           	opt stack 0
  4549                           tblptru	equ	0xFF8
  4550                           tblptrh	equ	0xFF7
  4551                           tblptrl	equ	0xFF6
  4552                           tablat	equ	0xFF5
  4553                           intcon	equ	0xFF2
  4554                           postinc0	equ	0xFEE
  4555                           wreg	equ	0xFE8
  4556                           postinc1	equ	0xFE6
  4557                           postdec1	equ	0xFE5
  4558                           fsr1h	equ	0xFE2
  4559                           fsr1l	equ	0xFE1
  4560                           postinc2	equ	0xFDE
  4561                           postdec2	equ	0xFDD
  4562                           fsr2h	equ	0xFDA
  4563                           fsr2l	equ	0xFD9
  4564                           status	equ	0xFD8
  4565                           
  4566 ;; *************** function _fetchPreset *****************
  4567 ;; Defined at:
  4568 ;;		line 251 in file "main.c"
  4569 ;; Parameters:    Size  Location     Type
  4570 ;;		None
  4571 ;; Auto vars:     Size  Location     Type
  4572 ;;  i               2   18[BANK0 ] int 
  4573 ;;  test            2   16[BANK0 ] int 
  4574 ;; Return value:  Size  Location     Type
  4575 ;;                  1    wreg      void 
  4576 ;; Registers used:
  4577 ;;		wreg, fsr2l, fsr2h, status,2, status,0, prodl, prodh, cstack
  4578 ;; Tracked objects:
  4579 ;;		On entry : 0/0
  4580 ;;		On exit  : 0/0
  4581 ;;		Unchanged: 0/0
  4582 ;; Data sizes:     COMRAM   BANK0   BANK1   BANK2   BANK3   BANK4   BANK5   BANK6   BANK7   BANK8   BANK9  BANK10  BANK1
      +1  BANK12  BANK13
  4583 ;;      Params:         0       0       0       0       0       0       0       0       0       0       0       0       
      +0       0       0
  4584 ;;      Locals:         0       4       0       0       0       0       0       0       0       0       0       0       
      +0       0       0
  4585 ;;      Temps:          0       0       0       0       0       0       0       0       0       0       0       0       
      +0       0       0
  4586 ;;      Totals:         0       4       0       0       0       0       0       0       0       0       0       0       
      +0       0       0
  4587 ;;Total ram usage:        4 bytes
  4588 ;; Hardware stack levels used:    1
  4589 ;; Hardware stack levels required when called:    7
  4590 ;; This function calls:
  4591 ;;		_I2C1_Block_Read_EERPOM
  4592 ;;		_updatePreset
  4593 ;; This function is called by:
  4594 ;;		_main
  4595 ;; This function uses a non-reentrant model
  4596 ;;
  4597                           
  4598                           	psect	text21
  4599  001714                     __ptext21:
  4600                           	opt stack 0
  4601  001714                     _fetchPreset:
  4602                           	opt stack 23
  4603                           
  4604                           ;main.c: 253: int test = 0;
  4605                           
  4606                           ; BSR set to: 0
  4607                           ;incstack = 0
  4608  001714  0E00               	movlw	0
  4609  001716  0100               	movlb	0	; () banked
  4610  001718  6FDC               	movwf	(fetchPreset@test+1)& (0+255),b
  4611  00171A  0E00               	movlw	0
  4612  00171C  6FDB               	movwf	fetchPreset@test& (0+255),b
  4613                           
  4614                           ;main.c: 254: int i = 0;
  4615  00171E  0E00               	movlw	0
  4616  001720  0100               	movlb	0	; () banked
  4617  001722  6FDE               	movwf	(fetchPreset@i+1)& (0+255),b
  4618  001724  0E00               	movlw	0
  4619  001726  6FDD               	movwf	fetchPreset@i& (0+255),b
  4620                           
  4621                           ;main.c: 256: for (i = 0; i < 5; i++)
  4622  001728  0E00               	movlw	0
  4623  00172A  0100               	movlb	0	; () banked
  4624  00172C  6FDE               	movwf	(fetchPreset@i+1)& (0+255),b
  4625  00172E  0E00               	movlw	0
  4626  001730  6FDD               	movwf	fetchPreset@i& (0+255),b
  4627  001732                     l3949:
  4628                           
  4629                           ; BSR set to: 0
  4630  001732  0100               	movlb	0	; () banked
  4631  001734  BFDE               	btfsc	(fetchPreset@i+1)& (0+255),7,b
  4632  001736  D008               	goto	l196
  4633  001738  0100               	movlb	0	; () banked
  4634  00173A  51DE               	movf	(fetchPreset@i+1)& (0+255),w,b
  4635  00173C  E12C               	bnz	l198
  4636  00173E  0E05               	movlw	5
  4637  001740  0100               	movlb	0	; () banked
  4638  001742  5DDD               	subwf	fetchPreset@i& (0+255),w,b
  4639  001744  B0D8               	btfsc	status,0,c
  4640  001746  0012               	return	
  4641  001748                     l196:
  4642                           
  4643                           ; BSR set to: 0
  4644                           ;main.c: 257: {
  4645                           ;main.c: 258: I2C1_Block_Read_EERPOM(i, presetRead, 12);
  4646                           
  4647                           ; BSR set to: 0
  4648  001748  C0DD  F0CB         	movff	fetchPreset@i,I2C1_Block_Read_EERPOM@slot
  4649  00174C  C0DE  F0CC         	movff	fetchPreset@i+1,I2C1_Block_Read_EERPOM@slot+1
  4650  001750  0E78               	movlw	low _presetRead
  4651  001752  0100               	movlb	0	; () banked
  4652  001754  6FCD               	movwf	I2C1_Block_Read_EERPOM@data& (0+255),b
  4653  001756  0E01               	movlw	high _presetRead
  4654  001758  0100               	movlb	0	; () banked
  4655  00175A  6FCE               	movwf	(I2C1_Block_Read_EERPOM@data+1)& (0+255),b
  4656  00175C  0E00               	movlw	0
  4657  00175E  0100               	movlb	0	; () banked
  4658  001760  6FD0               	movwf	(I2C1_Block_Read_EERPOM@bytes+1)& (0+255),b
  4659  001762  0E0C               	movlw	12
  4660  001764  6FCF               	movwf	I2C1_Block_Read_EERPOM@bytes& (0+255),b
  4661  001766  EC8E  F005         	call	_I2C1_Block_Read_EERPOM	;wreg free
  4662                           
  4663                           ;main.c: 259: updatePreset(i+1, presetRead);
  4664  00176A  0E01               	movlw	1
  4665  00176C  0100               	movlb	0	; () banked
  4666  00176E  25DD               	addwf	fetchPreset@i& (0+255),w,b
  4667  001770  0100               	movlb	0	; () banked
  4668  001772  6FD1               	movwf	updatePreset@slot& (0+255),b
  4669  001774  0E00               	movlw	0
  4670  001776  0100               	movlb	0	; () banked
  4671  001778  21DE               	addwfc	(fetchPreset@i+1)& (0+255),w,b
  4672  00177A  0100               	movlb	0	; () banked
  4673  00177C  6FD2               	movwf	(updatePreset@slot+1)& (0+255),b
  4674  00177E  0E78               	movlw	low _presetRead
  4675  001780  0100               	movlb	0	; () banked
  4676  001782  6FD3               	movwf	updatePreset@data& (0+255),b
  4677  001784  0E01               	movlw	high _presetRead
  4678  001786  0100               	movlb	0	; () banked
  4679  001788  6FD4               	movwf	(updatePreset@data+1)& (0+255),b
  4680  00178A  ECEC  F008         	call	_updatePreset	;wreg free
  4681  00178E  0100               	movlb	0	; () banked
  4682  001790  4BDD               	infsnz	fetchPreset@i& (0+255),f,b
  4683  001792  2BDE               	incf	(fetchPreset@i+1)& (0+255),f,b
  4684  001794  D7CE               	goto	l3949
  4685  001796                     l198:
  4686                           
  4687                           ; BSR set to: 0
  4688  001796  0012               	return		;funcret
  4689  001798                     __end_of_fetchPreset:
  4690                           	opt stack 0
  4691                           tblptru	equ	0xFF8
  4692                           tblptrh	equ	0xFF7
  4693                           tblptrl	equ	0xFF6
  4694                           tablat	equ	0xFF5
  4695                           intcon	equ	0xFF2
  4696                           postinc0	equ	0xFEE
  4697                           wreg	equ	0xFE8
  4698                           postinc1	equ	0xFE6
  4699                           postdec1	equ	0xFE5
  4700                           fsr1h	equ	0xFE2
  4701                           fsr1l	equ	0xFE1
  4702                           postinc2	equ	0xFDE
  4703                           postdec2	equ	0xFDD
  4704                           fsr2h	equ	0xFDA
  4705                           fsr2l	equ	0xFD9
  4706                           status	equ	0xFD8
  4707                           
  4708 ;; *************** function _updatePreset *****************
  4709 ;; Defined at:
  4710 ;;		line 229 in file "main.c"
  4711 ;; Parameters:    Size  Location     Type
  4712 ;;  slot            2    6[BANK0 ] int 
  4713 ;;  data            2    8[BANK0 ] PTR int 
  4714 ;;		 -> presetRead(24), parameter(30), 
  4715 ;; Auto vars:     Size  Location     Type
  4716 ;;  i               2   14[BANK0 ] int 
  4717 ;;  temp            2   12[BANK0 ] int 
  4718 ;; Return value:  Size  Location     Type
  4719 ;;                  1    wreg      void 
  4720 ;; Registers used:
  4721 ;;		wreg, fsr2l, fsr2h, status,2, status,0, prodl, prodh, cstack
  4722 ;; Tracked objects:
  4723 ;;		On entry : 0/0
  4724 ;;		On exit  : 0/0
  4725 ;;		Unchanged: 0/0
  4726 ;; Data sizes:     COMRAM   BANK0   BANK1   BANK2   BANK3   BANK4   BANK5   BANK6   BANK7   BANK8   BANK9  BANK10  BANK1
      +1  BANK12  BANK13
  4727 ;;      Params:         0       4       0       0       0       0       0       0       0       0       0       0       
      +0       0       0
  4728 ;;      Locals:         0       4       0       0       0       0       0       0       0       0       0       0       
      +0       0       0
  4729 ;;      Temps:          0       2       0       0       0       0       0       0       0       0       0       0       
      +0       0       0
  4730 ;;      Totals:         0      10       0       0       0       0       0       0       0       0       0       0       
      +0       0       0
  4731 ;;Total ram usage:       10 bytes
  4732 ;; Hardware stack levels used:    1
  4733 ;; Hardware stack levels required when called:    6
  4734 ;; This function calls:
  4735 ;;		___wmul
  4736 ;; This function is called by:
  4737 ;;		_fetchPreset
  4738 ;;		_main
  4739 ;; This function uses a non-reentrant model
  4740 ;;
  4741                           
  4742                           	psect	text22
  4743  0011D8                     __ptext22:
  4744                           	opt stack 0
  4745  0011D8                     _updatePreset:
  4746                           	opt stack 24
  4747                           
  4748                           ;main.c: 231: int i;
  4749                           ;main.c: 232: int temp;
  4750                           ;main.c: 234: for (i = 0; i < 12; i++)
  4751                           
  4752                           ; BSR set to: 0
  4753                           ;incstack = 0
  4754  0011D8  0E00               	movlw	0
  4755  0011DA  0100               	movlb	0	; () banked
  4756  0011DC  6FDA               	movwf	(updatePreset@i+1)& (0+255),b
  4757  0011DE  0E00               	movlw	0
  4758  0011E0  6FD9               	movwf	updatePreset@i& (0+255),b
  4759  0011E2                     l3279:
  4760                           
  4761                           ; BSR set to: 0
  4762  0011E2  0100               	movlb	0	; () banked
  4763  0011E4  BFDA               	btfsc	(updatePreset@i+1)& (0+255),7,b
  4764  0011E6  D008               	goto	l186
  4765  0011E8  0100               	movlb	0	; () banked
  4766  0011EA  51DA               	movf	(updatePreset@i+1)& (0+255),w,b
  4767  0011EC  E144               	bnz	l188
  4768  0011EE  0E0C               	movlw	12
  4769  0011F0  0100               	movlb	0	; () banked
  4770  0011F2  5DD9               	subwf	updatePreset@i& (0+255),w,b
  4771  0011F4  B0D8               	btfsc	status,0,c
  4772  0011F6  0012               	return	
  4773  0011F8                     l186:
  4774                           
  4775                           ; BSR set to: 0
  4776                           ;main.c: 235: {
  4777                           ;main.c: 236: temp = data[i];
  4778                           
  4779                           ; BSR set to: 0
  4780  0011F8  90D8               	bcf	status,0,c
  4781  0011FA  0100               	movlb	0	; () banked
  4782  0011FC  35D9               	rlcf	updatePreset@i& (0+255),w,b
  4783  0011FE  6ED9               	movwf	fsr2l,c
  4784  001200  0100               	movlb	0	; () banked
  4785  001202  35DA               	rlcf	(updatePreset@i+1)& (0+255),w,b
  4786  001204  6EDA               	movwf	fsr2h,c
  4787  001206  0100               	movlb	0	; () banked
  4788  001208  51D3               	movf	updatePreset@data& (0+255),w,b
  4789  00120A  26D9               	addwf	fsr2l,f,c
  4790  00120C  0100               	movlb	0	; () banked
  4791  00120E  51D4               	movf	(updatePreset@data+1)& (0+255),w,b
  4792  001210  22DA               	addwfc	fsr2h,f,c
  4793  001212  CFDE F0D7          	movff	postinc2,updatePreset@temp
  4794  001216  CFDD F0D8          	movff	postdec2,updatePreset@temp+1
  4795                           
  4796                           ; BSR set to: 0
  4797                           ;main.c: 237: userParams[slot][i] = temp;
  4798  00121A  C0D1  F0CB         	movff	updatePreset@slot,___wmul@multiplier
  4799  00121E  C0D2  F0CC         	movff	updatePreset@slot+1,___wmul@multiplier+1
  4800  001222  0E00               	movlw	0
  4801  001224  0100               	movlb	0	; () banked
  4802  001226  6FCE               	movwf	(___wmul@multiplicand+1)& (0+255),b
  4803  001228  0E18               	movlw	24
  4804  00122A  6FCD               	movwf	___wmul@multiplicand& (0+255),b
  4805  00122C  EC67  F00D         	call	___wmul	;wreg free
  4806  001230  0E00               	movlw	low _userParams
  4807  001232  0100               	movlb	0	; () banked
  4808  001234  6FD5               	movwf	??_updatePreset& (0+255),b
  4809  001236  0E01               	movlw	high _userParams
  4810  001238  0100               	movlb	0	; () banked
  4811  00123A  6FD6               	movwf	(??_updatePreset+1)& (0+255),b
  4812  00123C  0100               	movlb	0	; () banked
  4813  00123E  51CB               	movf	?___wmul& (0+255),w,b
  4814  001240  0100               	movlb	0	; () banked
  4815  001242  27D5               	addwf	??_updatePreset& (0+255),f,b
  4816  001244  0100               	movlb	0	; () banked
  4817  001246  51CC               	movf	(?___wmul+1)& (0+255),w,b
  4818  001248  0100               	movlb	0	; () banked
  4819  00124A  23D6               	addwfc	(??_updatePreset+1)& (0+255),f,b
  4820  00124C  90D8               	bcf	status,0,c
  4821  00124E  0100               	movlb	0	; () banked
  4822  001250  35D9               	rlcf	updatePreset@i& (0+255),w,b
  4823  001252  6ED9               	movwf	fsr2l,c
  4824  001254  0100               	movlb	0	; () banked
  4825  001256  35DA               	rlcf	(updatePreset@i+1)& (0+255),w,b
  4826  001258  6EDA               	movwf	fsr2h,c
  4827  00125A  0100               	movlb	0	; () banked
  4828  00125C  51D5               	movf	??_updatePreset& (0+255),w,b
  4829  00125E  26D9               	addwf	fsr2l,f,c
  4830  001260  0100               	movlb	0	; () banked
  4831  001262  51D6               	movf	(??_updatePreset+1)& (0+255),w,b
  4832  001264  22DA               	addwfc	fsr2h,f,c
  4833  001266  C0D7  FFDE         	movff	updatePreset@temp,postinc2
  4834  00126A  C0D8  FFDD         	movff	updatePreset@temp+1,postdec2
  4835                           
  4836                           ; BSR set to: 0
  4837  00126E  0100               	movlb	0	; () banked
  4838  001270  4BD9               	infsnz	updatePreset@i& (0+255),f,b
  4839  001272  2BDA               	incf	(updatePreset@i+1)& (0+255),f,b
  4840  001274  D7B6               	goto	l3279
  4841  001276                     l188:
  4842                           
  4843                           ; BSR set to: 0
  4844  001276  0012               	return		;funcret
  4845  001278                     __end_of_updatePreset:
  4846                           	opt stack 0
  4847                           tblptru	equ	0xFF8
  4848                           tblptrh	equ	0xFF7
  4849                           tblptrl	equ	0xFF6
  4850                           tablat	equ	0xFF5
  4851                           intcon	equ	0xFF2
  4852                           postinc0	equ	0xFEE
  4853                           wreg	equ	0xFE8
  4854                           postinc1	equ	0xFE6
  4855                           postdec1	equ	0xFE5
  4856                           fsr1h	equ	0xFE2
  4857                           fsr1l	equ	0xFE1
  4858                           postinc2	equ	0xFDE
  4859                           postdec2	equ	0xFDD
  4860                           fsr2h	equ	0xFDA
  4861                           fsr2l	equ	0xFD9
  4862                           status	equ	0xFD8
  4863                           
  4864 ;; *************** function ___wmul *****************
  4865 ;; Defined at:
  4866 ;;		line 15 in file "/Applications/microchip/xc8/v1.43/sources/common/Umul16.c"
  4867 ;; Parameters:    Size  Location     Type
  4868 ;;  multiplier      2    0[BANK0 ] unsigned int 
  4869 ;;  multiplicand    2    2[BANK0 ] unsigned int 
  4870 ;; Auto vars:     Size  Location     Type
  4871 ;;  product         2    4[BANK0 ] unsigned int 
  4872 ;; Return value:  Size  Location     Type
  4873 ;;                  2    0[BANK0 ] unsigned int 
  4874 ;; Registers used:
  4875 ;;		wreg, status,2, status,0, prodl, prodh
  4876 ;; Tracked objects:
  4877 ;;		On entry : 0/0
  4878 ;;		On exit  : 0/0
  4879 ;;		Unchanged: 0/0
  4880 ;; Data sizes:     COMRAM   BANK0   BANK1   BANK2   BANK3   BANK4   BANK5   BANK6   BANK7   BANK8   BANK9  BANK10  BANK1
      +1  BANK12  BANK13
  4881 ;;      Params:         0       4       0       0       0       0       0       0       0       0       0       0       
      +0       0       0
  4882 ;;      Locals:         0       2       0       0       0       0       0       0       0       0       0       0       
      +0       0       0
  4883 ;;      Temps:          0       0       0       0       0       0       0       0       0       0       0       0       
      +0       0       0
  4884 ;;      Totals:         0       6       0       0       0       0       0       0       0       0       0       0       
      +0       0       0
  4885 ;;Total ram usage:        6 bytes
  4886 ;; Hardware stack levels used:    1
  4887 ;; Hardware stack levels required when called:    5
  4888 ;; This function calls:
  4889 ;;		Nothing
  4890 ;; This function is called by:
  4891 ;;		_updatePreset
  4892 ;;		_updateParams
  4893 ;; This function uses a non-reentrant model
  4894 ;;
  4895                           
  4896                           	psect	text23
  4897  001ACE                     __ptext23:
  4898                           	opt stack 0
  4899  001ACE                     ___wmul:
  4900                           	opt stack 24
  4901                           
  4902                           ; BSR set to: 0
  4903                           ;incstack = 0
  4904  001ACE  0100               	movlb	0	; () banked
  4905  001AD0  51CB               	movf	___wmul@multiplier& (0+255),w,b
  4906  001AD2  0100               	movlb	0	; () banked
  4907  001AD4  03CD               	mulwf	___wmul@multiplicand& (0+255),b
  4908  001AD6  CFF3 F0CF          	movff	prodl,___wmul@product
  4909  001ADA  CFF4 F0D0          	movff	prodh,___wmul@product+1
  4910  001ADE  0100               	movlb	0	; () banked
  4911  001AE0  51CB               	movf	___wmul@multiplier& (0+255),w,b
  4912  001AE2  0100               	movlb	0	; () banked
  4913  001AE4  03CE               	mulwf	(___wmul@multiplicand+1)& (0+255),b
  4914  001AE6  50F3               	movf	prodl,w,c
  4915  001AE8  0100               	movlb	0	; () banked
  4916  001AEA  27D0               	addwf	(___wmul@product+1)& (0+255),f,b
  4917  001AEC  0100               	movlb	0	; () banked
  4918  001AEE  51CC               	movf	(___wmul@multiplier+1)& (0+255),w,b
  4919  001AF0  0100               	movlb	0	; () banked
  4920  001AF2  03CD               	mulwf	___wmul@multiplicand& (0+255),b
  4921  001AF4  50F3               	movf	prodl,w,c
  4922  001AF6  0100               	movlb	0	; () banked
  4923  001AF8  27D0               	addwf	(___wmul@product+1)& (0+255),f,b
  4924                           
  4925                           ; BSR set to: 0
  4926  001AFA  C0CF  F0CB         	movff	___wmul@product,?___wmul
  4927  001AFE  C0D0  F0CC         	movff	___wmul@product+1,?___wmul+1
  4928  001B02  0012               	return	
  4929  001B04                     __end_of___wmul:
  4930                           	opt stack 0
  4931                           tblptru	equ	0xFF8
  4932                           tblptrh	equ	0xFF7
  4933                           tblptrl	equ	0xFF6
  4934                           tablat	equ	0xFF5
  4935                           prodh	equ	0xFF4
  4936                           prodl	equ	0xFF3
  4937                           intcon	equ	0xFF2
  4938                           postinc0	equ	0xFEE
  4939                           wreg	equ	0xFE8
  4940                           postinc1	equ	0xFE6
  4941                           postdec1	equ	0xFE5
  4942                           fsr1h	equ	0xFE2
  4943                           fsr1l	equ	0xFE1
  4944                           postinc2	equ	0xFDE
  4945                           postdec2	equ	0xFDD
  4946                           fsr2h	equ	0xFDA
  4947                           fsr2l	equ	0xFD9
  4948                           status	equ	0xFD8
  4949                           
  4950 ;; *************** function _I2C1_Block_Read_EERPOM *****************
  4951 ;; Defined at:
  4952 ;;		line 102 in file "serial.c"
  4953 ;; Parameters:    Size  Location     Type
  4954 ;;  slot            2    0[BANK0 ] int 
  4955 ;;  data            2    2[BANK0 ] PTR PTR int 
  4956 ;;		 -> presetRead(24), 
  4957 ;;  bytes           2    4[BANK0 ] int 
  4958 ;; Auto vars:     Size  Location     Type
  4959 ;;  n               2   11[BANK0 ] int 
  4960 ;;  dummyWrite      1   10[BANK0 ] unsigned char 
  4961 ;;  memValue        1    9[BANK0 ] unsigned char 
  4962 ;;  rdAddr          1    8[BANK0 ] unsigned char 
  4963 ;; Return value:  Size  Location     Type
  4964 ;;                  1    wreg      void 
  4965 ;; Registers used:
  4966 ;;		wreg, fsr2l, fsr2h, status,2, status,0
  4967 ;; Tracked objects:
  4968 ;;		On entry : 0/0
  4969 ;;		On exit  : 0/0
  4970 ;;		Unchanged: 0/0
  4971 ;; Data sizes:     COMRAM   BANK0   BANK1   BANK2   BANK3   BANK4   BANK5   BANK6   BANK7   BANK8   BANK9  BANK10  BANK1
      +1  BANK12  BANK13
  4972 ;;      Params:         0       6       0       0       0       0       0       0       0       0       0       0       
      +0       0       0
  4973 ;;      Locals:         0       5       0       0       0       0       0       0       0       0       0       0       
      +0       0       0
  4974 ;;      Temps:          0       2       0       0       0       0       0       0       0       0       0       0       
      +0       0       0
  4975 ;;      Totals:         0      13       0       0       0       0       0       0       0       0       0       0       
      +0       0       0
  4976 ;;Total ram usage:       13 bytes
  4977 ;; Hardware stack levels used:    1
  4978 ;; Hardware stack levels required when called:    5
  4979 ;; This function calls:
  4980 ;;		Nothing
  4981 ;; This function is called by:
  4982 ;;		_fetchPreset
  4983 ;; This function uses a non-reentrant model
  4984 ;;
  4985                           
  4986                           	psect	text24
  4987  000B1C                     __ptext24:
  4988                           	opt stack 0
  4989  000B1C                     _I2C1_Block_Read_EERPOM:
  4990                           	opt stack 24
  4991                           
  4992                           ;serial.c: 104: char dummyWrite = 0b10100000;
  4993                           
  4994                           ; BSR set to: 0
  4995                           ;incstack = 0
  4996  000B1C  0EA0               	movlw	160
  4997  000B1E  0100               	movlb	0	; () banked
  4998  000B20  6FD5               	movwf	I2C1_Block_Read_EERPOM@dummyWrite& (0+255),b
  4999                           
  5000                           ; BSR set to: 0
  5001                           ;serial.c: 105: char rdAddr = (dummyWrite|0x01);
  5002  000B22  0100               	movlb	0	; () banked
  5003  000B24  51D5               	movf	I2C1_Block_Read_EERPOM@dummyWrite& (0+255),w,b
  5004  000B26  0901               	iorlw	1
  5005  000B28  0100               	movlb	0	; () banked
  5006  000B2A  6FD3               	movwf	I2C1_Block_Read_EERPOM@rdAddr& (0+255),b
  5007                           
  5008                           ; BSR set to: 0
  5009                           ;serial.c: 106: char memValue = presetAdd[slot];
  5010  000B2C  90D8               	bcf	status,0,c
  5011  000B2E  0100               	movlb	0	; () banked
  5012  000B30  35CB               	rlcf	I2C1_Block_Read_EERPOM@slot& (0+255),w,b
  5013  000B32  6ED9               	movwf	fsr2l,c
  5014  000B34  0100               	movlb	0	; () banked
  5015  000B36  35CC               	rlcf	(I2C1_Block_Read_EERPOM@slot+1)& (0+255),w,b
  5016  000B38  6EDA               	movwf	fsr2h,c
  5017  000B3A  0EE8               	movlw	low _presetAdd
  5018  000B3C  26D9               	addwf	fsr2l,f,c
  5019  000B3E  0E00               	movlw	high _presetAdd
  5020  000B40  22DA               	addwfc	fsr2h,f,c
  5021  000B42  50DF               	movf	indf2,w,c
  5022  000B44  0100               	movlb	0	; () banked
  5023  000B46  6FD4               	movwf	I2C1_Block_Read_EERPOM@memValue& (0+255),b
  5024                           
  5025                           ; BSR set to: 0
  5026                           ;serial.c: 107: int n = 0;
  5027  000B48  0E00               	movlw	0
  5028  000B4A  0100               	movlb	0	; () banked
  5029  000B4C  6FD7               	movwf	(I2C1_Block_Read_EERPOM@n+1)& (0+255),b
  5030  000B4E  0E00               	movlw	0
  5031  000B50  6FD6               	movwf	I2C1_Block_Read_EERPOM@n& (0+255),b
  5032                           
  5033                           ; BSR set to: 0
  5034                           ;serial.c: 109: SSP1CON1bits.SSPEN = 0x1;
  5035  000B52  8AC6               	bsf	4038,5,c	;volatile
  5036                           
  5037                           ; BSR set to: 0
  5038                           ;serial.c: 110: _delay((unsigned long)((5)*(32000000/4000000.0)));
  5039  000B54  0E0D               	movlw	13
  5040  000B56                     u4537:
  5041  000B56  2EE8               	decfsz	wreg,f,c
  5042  000B58  D7FE               	bra	u4537
  5043  000B5A  F000               	nop	
  5044                           
  5045                           ;serial.c: 112: SSP1CON2bits.SEN = 0x1;
  5046  000B5C  80C5               	bsf	4037,0,c	;volatile
  5047  000B5E  B0C5               	btfsc	4037,0,c	;volatile
  5048  000B60  D7FE               	goto	l1177
  5049  000B62                     u2770:
  5050                           
  5051                           ;serial.c: 114: while(!PIR1bits.SSP1IF);
  5052  000B62  A69E               	btfss	3998,3,c	;volatile
  5053  000B64  D7FE               	goto	u2770
  5054                           
  5055                           ;serial.c: 115: PIR1bits.SSP1IF = 0x0;
  5056  000B66  969E               	bcf	3998,3,c	;volatile
  5057                           
  5058                           ;serial.c: 116: SSP1BUF = dummyWrite;
  5059  000B68  C0D5  FFC9         	movff	I2C1_Block_Read_EERPOM@dummyWrite,4041	;volatile
  5060                           
  5061                           ;serial.c: 118: if(SSP1CON2bits.ACKSTAT);
  5062  000B6C  50C5               	movf	4037,w,c	;volatile
  5063  000B6E                     
  5064                           ;serial.c: 119: while(!PIR1bits.SSP1IF);
  5065  000B6E  A69E               	btfss	3998,3,c	;volatile
  5066  000B70  D7FE               	goto	l1182
  5067                           
  5068                           ;serial.c: 120: PIR1bits.SSP1IF = 0x0;
  5069  000B72  969E               	bcf	3998,3,c	;volatile
  5070                           
  5071                           ;serial.c: 121: SSP1BUF = memValue;
  5072  000B74  C0D4  FFC9         	movff	I2C1_Block_Read_EERPOM@memValue,4041	;volatile
  5073  000B78  BCC5               	btfsc	4037,6,c	;volatile
  5074  000B7A  D7FE               	goto	l1187
  5075  000B7C                     u2800:
  5076                           
  5077                           ;serial.c: 124: while(!PIR1bits.SSP1IF);
  5078  000B7C  A69E               	btfss	3998,3,c	;volatile
  5079  000B7E  D7FE               	goto	u2800
  5080                           
  5081                           ;serial.c: 125: PIR1bits.SSP1IF = 0x0;
  5082  000B80  969E               	bcf	3998,3,c	;volatile
  5083                           
  5084                           ;serial.c: 126: SSP1CON2bits.RSEN = 0x1;
  5085  000B82  82C5               	bsf	4037,1,c	;volatile
  5086  000B84  B2C5               	btfsc	4037,1,c	;volatile
  5087  000B86  D7FE               	goto	l1193
  5088  000B88                     u2820:
  5089                           
  5090                           ;serial.c: 129: while(!PIR1bits.SSP1IF);
  5091  000B88  A69E               	btfss	3998,3,c	;volatile
  5092  000B8A  D7FE               	goto	u2820
  5093                           
  5094                           ;serial.c: 130: PIR1bits.SSP1IF = 0x0;
  5095  000B8C  969E               	bcf	3998,3,c	;volatile
  5096                           
  5097                           ;serial.c: 131: SSP1BUF = rdAddr;
  5098  000B8E  C0D3  FFC9         	movff	I2C1_Block_Read_EERPOM@rdAddr,4041	;volatile
  5099  000B92  BCC5               	btfsc	4037,6,c	;volatile
  5100  000B94  D7FE               	goto	l1199
  5101  000B96                     u2840:
  5102                           
  5103                           ;serial.c: 134: while(!PIR1bits.SSP1IF);
  5104  000B96  A69E               	btfss	3998,3,c	;volatile
  5105  000B98  D7FE               	goto	u2840
  5106                           
  5107                           ;serial.c: 135: PIR1bits.SSP1IF = 0x0;
  5108  000B9A  969E               	bcf	3998,3,c	;volatile
  5109                           
  5110                           ;serial.c: 137: SSP1CON2bits.RCEN = 0x1;
  5111  000B9C  86C5               	bsf	4037,3,c	;volatile
  5112  000B9E  A0C7               	btfss	4039,0,c	;volatile
  5113  000BA0  D7FE               	goto	l1205
  5114  000BA2                     u2860:
  5115                           
  5116                           ;serial.c: 140: while (!PIR1bits.SSP1IF);
  5117  000BA2  A69E               	btfss	3998,3,c	;volatile
  5118  000BA4  D7FE               	goto	u2860
  5119                           
  5120                           ;serial.c: 141: data[n] = SSP1BUF;
  5121  000BA6  50C9               	movf	4041,w,c	;volatile
  5122  000BA8  0100               	movlb	0	; () banked
  5123  000BAA  6FD1               	movwf	??_I2C1_Block_Read_EERPOM& (0+255),b
  5124  000BAC  6BD2               	clrf	(??_I2C1_Block_Read_EERPOM+1)& (0+255),b
  5125  000BAE  90D8               	bcf	status,0,c
  5126  000BB0  0100               	movlb	0	; () banked
  5127  000BB2  35D6               	rlcf	I2C1_Block_Read_EERPOM@n& (0+255),w,b
  5128  000BB4  6ED9               	movwf	fsr2l,c
  5129  000BB6  0100               	movlb	0	; () banked
  5130  000BB8  35D7               	rlcf	(I2C1_Block_Read_EERPOM@n+1)& (0+255),w,b
  5131  000BBA  6EDA               	movwf	fsr2h,c
  5132  000BBC  0100               	movlb	0	; () banked
  5133  000BBE  51CD               	movf	I2C1_Block_Read_EERPOM@data& (0+255),w,b
  5134  000BC0  26D9               	addwf	fsr2l,f,c
  5135  000BC2  0100               	movlb	0	; () banked
  5136  000BC4  51CE               	movf	(I2C1_Block_Read_EERPOM@data+1)& (0+255),w,b
  5137  000BC6  22DA               	addwfc	fsr2h,f,c
  5138  000BC8  C0D1  FFDE         	movff	??_I2C1_Block_Read_EERPOM,postinc2
  5139  000BCC  C0D2  FFDD         	movff	??_I2C1_Block_Read_EERPOM+1,postdec2
  5140                           
  5141                           ; BSR set to: 0
  5142                           ;serial.c: 143: for (n = 1; n < bytes; n++)
  5143  000BD0  0E00               	movlw	0
  5144  000BD2  0100               	movlb	0	; () banked
  5145  000BD4  6FD7               	movwf	(I2C1_Block_Read_EERPOM@n+1)& (0+255),b
  5146  000BD6  0E01               	movlw	1
  5147  000BD8  6FD6               	movwf	I2C1_Block_Read_EERPOM@n& (0+255),b
  5148  000BDA  D022               	goto	l1210
  5149  000BDC                     l1211:
  5150                           
  5151                           ; BSR set to: 0
  5152                           ;serial.c: 144: {
  5153                           ;serial.c: 145: SSP1CON2bits.ACKDT = 0x0;
  5154  000BDC  9AC5               	bcf	4037,5,c	;volatile
  5155                           
  5156                           ;serial.c: 146: SSP1CON2bits.ACKEN = 0x1;
  5157  000BDE  88C5               	bsf	4037,4,c	;volatile
  5158  000BE0                     
  5159                           ; BSR set to: 0
  5160  000BE0  B8C5               	btfsc	4037,4,c	;volatile
  5161  000BE2  D7FE               	goto	l1213
  5162                           
  5163                           ;serial.c: 148: PIR1bits.SSP1IF = 0x0;
  5164  000BE4  969E               	bcf	3998,3,c	;volatile
  5165                           
  5166                           ;serial.c: 149: SSP1CON2bits.RCEN = 0x1;
  5167  000BE6  86C5               	bsf	4037,3,c	;volatile
  5168  000BE8  A0C7               	btfss	4039,0,c	;volatile
  5169  000BEA  D7FE               	goto	l1216
  5170  000BEC                     u2890:
  5171                           
  5172                           ;serial.c: 152: while (!PIR1bits.SSP1IF);
  5173  000BEC  A69E               	btfss	3998,3,c	;volatile
  5174  000BEE  D7FE               	goto	u2890
  5175                           
  5176                           ;serial.c: 153: data[n] = SSP1BUF;
  5177  000BF0  50C9               	movf	4041,w,c	;volatile
  5178  000BF2  0100               	movlb	0	; () banked
  5179  000BF4  6FD1               	movwf	??_I2C1_Block_Read_EERPOM& (0+255),b
  5180  000BF6  6BD2               	clrf	(??_I2C1_Block_Read_EERPOM+1)& (0+255),b
  5181  000BF8  90D8               	bcf	status,0,c
  5182  000BFA  0100               	movlb	0	; () banked
  5183  000BFC  35D6               	rlcf	I2C1_Block_Read_EERPOM@n& (0+255),w,b
  5184  000BFE  6ED9               	movwf	fsr2l,c
  5185  000C00  0100               	movlb	0	; () banked
  5186  000C02  35D7               	rlcf	(I2C1_Block_Read_EERPOM@n+1)& (0+255),w,b
  5187  000C04  6EDA               	movwf	fsr2h,c
  5188  000C06  0100               	movlb	0	; () banked
  5189  000C08  51CD               	movf	I2C1_Block_Read_EERPOM@data& (0+255),w,b
  5190  000C0A  26D9               	addwf	fsr2l,f,c
  5191  000C0C  0100               	movlb	0	; () banked
  5192  000C0E  51CE               	movf	(I2C1_Block_Read_EERPOM@data+1)& (0+255),w,b
  5193  000C10  22DA               	addwfc	fsr2h,f,c
  5194  000C12  C0D1  FFDE         	movff	??_I2C1_Block_Read_EERPOM,postinc2
  5195  000C16  C0D2  FFDD         	movff	??_I2C1_Block_Read_EERPOM+1,postdec2
  5196                           
  5197                           ; BSR set to: 0
  5198  000C1A  0100               	movlb	0	; () banked
  5199  000C1C  4BD6               	infsnz	I2C1_Block_Read_EERPOM@n& (0+255),f,b
  5200  000C1E  2BD7               	incf	(I2C1_Block_Read_EERPOM@n+1)& (0+255),f,b
  5201  000C20                     l1210:
  5202                           
  5203                           ; BSR set to: 0
  5204                           
  5205                           ; BSR set to: 0
  5206  000C20  0100               	movlb	0	; () banked
  5207  000C22  51CF               	movf	I2C1_Block_Read_EERPOM@bytes& (0+255),w,b
  5208  000C24  0100               	movlb	0	; () banked
  5209  000C26  5DD6               	subwf	I2C1_Block_Read_EERPOM@n& (0+255),w,b
  5210  000C28  0100               	movlb	0	; () banked
  5211  000C2A  51D7               	movf	(I2C1_Block_Read_EERPOM@n+1)& (0+255),w,b
  5212  000C2C  0A80               	xorlw	128
  5213  000C2E  0100               	movlb	0	; () banked
  5214  000C30  6FD1               	movwf	??_I2C1_Block_Read_EERPOM& (0+255),b
  5215  000C32  0100               	movlb	0	; () banked
  5216  000C34  51D0               	movf	(I2C1_Block_Read_EERPOM@bytes+1)& (0+255),w,b
  5217  000C36  0A80               	xorlw	128
  5218  000C38  0100               	movlb	0	; () banked
  5219  000C3A  59D1               	subwfb	??_I2C1_Block_Read_EERPOM& (0+255),w,b
  5220  000C3C  A0D8               	btfss	status,0,c
  5221  000C3E  D7CE               	goto	l1211
  5222                           
  5223                           ; BSR set to: 0
  5224                           ;serial.c: 154: }
  5225                           ;serial.c: 156: SSP1CON2bits.ACKDT = 0x1;
  5226  000C40  8AC5               	bsf	4037,5,c	;volatile
  5227                           
  5228                           ;serial.c: 157: SSP1CON2bits.ACKEN = 0x1;
  5229  000C42  88C5               	bsf	4037,4,c	;volatile
  5230  000C44                     
  5231                           ; BSR set to: 0
  5232  000C44  B8C5               	btfsc	4037,4,c	;volatile
  5233  000C46  D7FE               	goto	l1223
  5234                           
  5235                           ;serial.c: 160: PIR1bits.SSP1IF = 0x0;
  5236  000C48  969E               	bcf	3998,3,c	;volatile
  5237                           
  5238                           ;serial.c: 161: SSP1CON2bits.PEN = 0x1;
  5239  000C4A  84C5               	bsf	4037,2,c	;volatile
  5240  000C4C  B4C5               	btfsc	4037,2,c	;volatile
  5241  000C4E  D7FE               	goto	l1226
  5242                           
  5243                           ;serial.c: 165: PIR1bits.SSP1IF = 0x0;
  5244  000C50  969E               	bcf	3998,3,c	;volatile
  5245                           
  5246                           ;serial.c: 166: SSP1CON1bits.SSPEN = 0x1;
  5247  000C52  8AC6               	bsf	4038,5,c	;volatile
  5248  000C54  0012               	return		;funcret
  5249  000C56                     __end_of_I2C1_Block_Read_EERPOM:
  5250                           	opt stack 0
  5251                           tblptru	equ	0xFF8
  5252                           tblptrh	equ	0xFF7
  5253                           tblptrl	equ	0xFF6
  5254                           tablat	equ	0xFF5
  5255                           prodh	equ	0xFF4
  5256                           prodl	equ	0xFF3
  5257                           intcon	equ	0xFF2
  5258                           postinc0	equ	0xFEE
  5259                           wreg	equ	0xFE8
  5260                           postinc1	equ	0xFE6
  5261                           postdec1	equ	0xFE5
  5262                           fsr1h	equ	0xFE2
  5263                           fsr1l	equ	0xFE1
  5264                           indf2	equ	0xFDF
  5265                           postinc2	equ	0xFDE
  5266                           postdec2	equ	0xFDD
  5267                           fsr2h	equ	0xFDA
  5268                           fsr2l	equ	0xFD9
  5269                           status	equ	0xFD8
  5270                           
  5271 ;; *************** function _absVal *****************
  5272 ;; Defined at:
  5273 ;;		line 175 in file "main.c"
  5274 ;; Parameters:    Size  Location     Type
  5275 ;;  val             2    0[BANK0 ] int 
  5276 ;; Auto vars:     Size  Location     Type
  5277 ;;		None
  5278 ;; Return value:  Size  Location     Type
  5279 ;;                  2    0[BANK0 ] int 
  5280 ;; Registers used:
  5281 ;;		wreg, status,2, status,0
  5282 ;; Tracked objects:
  5283 ;;		On entry : 0/0
  5284 ;;		On exit  : 0/0
  5285 ;;		Unchanged: 0/0
  5286 ;; Data sizes:     COMRAM   BANK0   BANK1   BANK2   BANK3   BANK4   BANK5   BANK6   BANK7   BANK8   BANK9  BANK10  BANK1
      +1  BANK12  BANK13
  5287 ;;      Params:         0       2       0       0       0       0       0       0       0       0       0       0       
      +0       0       0
  5288 ;;      Locals:         0       0       0       0       0       0       0       0       0       0       0       0       
      +0       0       0
  5289 ;;      Temps:          0       2       0       0       0       0       0       0       0       0       0       0       
      +0       0       0
  5290 ;;      Totals:         0       4       0       0       0       0       0       0       0       0       0       0       
      +0       0       0
  5291 ;;Total ram usage:        4 bytes
  5292 ;; Hardware stack levels used:    1
  5293 ;; Hardware stack levels required when called:    5
  5294 ;; This function calls:
  5295 ;;		Nothing
  5296 ;; This function is called by:
  5297 ;;		_main
  5298 ;; This function uses a non-reentrant model
  5299 ;;
  5300                           
  5301                           	psect	text25
  5302  001B34                     __ptext25:
  5303                           	opt stack 0
  5304  001B34                     _absVal:
  5305                           	opt stack 25
  5306                           
  5307                           ;main.c: 177: if (val < 0)
  5308                           
  5309                           ;incstack = 0
  5310  001B34  0100               	movlb	0	; () banked
  5311  001B36  AFCC               	btfss	(absVal@val+1)& (0+255),7,b
  5312  001B38  D00E               	goto	l176
  5313                           
  5314                           ; BSR set to: 0
  5315                           ;main.c: 178: return -val;
  5316  001B3A  C0CB  F0CD         	movff	absVal@val,??_absVal
  5317  001B3E  C0CC  F0CE         	movff	absVal@val+1,??_absVal+1
  5318  001B42  0100               	movlb	0	; () banked
  5319  001B44  1FCD               	comf	??_absVal& (0+255),f,b
  5320  001B46  1FCE               	comf	(??_absVal+1)& (0+255),f,b
  5321  001B48  4BCD               	infsnz	??_absVal& (0+255),f,b
  5322  001B4A  2BCE               	incf	(??_absVal+1)& (0+255),f,b
  5323  001B4C  C0CD  F0CB         	movff	??_absVal,?_absVal
  5324  001B50  C0CE  F0CC         	movff	??_absVal+1,?_absVal+1
  5325                           
  5326                           ; BSR set to: 0
  5327  001B54  0012               	return	
  5328  001B56                     l176:
  5329                           
  5330                           ; BSR set to: 0
  5331                           ;main.c: 179: else return val;
  5332  001B56  C0CB  F0CB         	movff	absVal@val,?_absVal
  5333  001B5A  C0CC  F0CC         	movff	absVal@val+1,?_absVal+1
  5334  001B5E  0012               	return	
  5335  001B60                     __end_of_absVal:
  5336                           	opt stack 0
  5337                           tblptru	equ	0xFF8
  5338                           tblptrh	equ	0xFF7
  5339                           tblptrl	equ	0xFF6
  5340                           tablat	equ	0xFF5
  5341                           prodh	equ	0xFF4
  5342                           prodl	equ	0xFF3
  5343                           intcon	equ	0xFF2
  5344                           postinc0	equ	0xFEE
  5345                           wreg	equ	0xFE8
  5346                           postinc1	equ	0xFE6
  5347                           postdec1	equ	0xFE5
  5348                           fsr1h	equ	0xFE2
  5349                           fsr1l	equ	0xFE1
  5350                           indf2	equ	0xFDF
  5351                           postinc2	equ	0xFDE
  5352                           postdec2	equ	0xFDD
  5353                           fsr2h	equ	0xFDA
  5354                           fsr2l	equ	0xFD9
  5355                           status	equ	0xFD8
  5356                           
  5357 ;; *************** function _I2C1_Write_DigiPot *****************
  5358 ;; Defined at:
  5359 ;;		line 235 in file "serial.c"
  5360 ;; Parameters:    Size  Location     Type
  5361 ;;  value           1    wreg     unsigned char 
  5362 ;; Auto vars:     Size  Location     Type
  5363 ;;  value           1    0[BANK0 ] unsigned char 
  5364 ;;  wrCommand       1    1[BANK0 ] unsigned char 
  5365 ;; Return value:  Size  Location     Type
  5366 ;;                  1    wreg      void 
  5367 ;; Registers used:
  5368 ;;		wreg, status,2
  5369 ;; Tracked objects:
  5370 ;;		On entry : 0/0
  5371 ;;		On exit  : 0/0
  5372 ;;		Unchanged: 0/0
  5373 ;; Data sizes:     COMRAM   BANK0   BANK1   BANK2   BANK3   BANK4   BANK5   BANK6   BANK7   BANK8   BANK9  BANK10  BANK1
      +1  BANK12  BANK13
  5374 ;;      Params:         0       0       0       0       0       0       0       0       0       0       0       0       
      +0       0       0
  5375 ;;      Locals:         0       2       0       0       0       0       0       0       0       0       0       0       
      +0       0       0
  5376 ;;      Temps:          0       0       0       0       0       0       0       0       0       0       0       0       
      +0       0       0
  5377 ;;      Totals:         0       2       0       0       0       0       0       0       0       0       0       0       
      +0       0       0
  5378 ;;Total ram usage:        2 bytes
  5379 ;; Hardware stack levels used:    1
  5380 ;; Hardware stack levels required when called:    5
  5381 ;; This function calls:
  5382 ;;		Nothing
  5383 ;; This function is called by:
  5384 ;;		_main
  5385 ;; This function uses a non-reentrant model
  5386 ;;
  5387                           
  5388                           	psect	text26
  5389  001A1C                     __ptext26:
  5390                           	opt stack 0
  5391  001A1C                     _I2C1_Write_DigiPot:
  5392                           	opt stack 25
  5393                           
  5394                           ; BSR set to: 0
  5395                           ;incstack = 0
  5396                           ;I2C1_Write_DigiPot@value stored from wreg
  5397  001A1C  0100               	movlb	0	; () banked
  5398  001A1E  6FCB               	movwf	I2C1_Write_DigiPot@value& (0+255),b
  5399                           
  5400                           ;serial.c: 237: char wrCommand = (0b00101111 << 1);
  5401  001A20  0E5E               	movlw	94
  5402  001A22  0100               	movlb	0	; () banked
  5403  001A24  6FCC               	movwf	I2C1_Write_DigiPot@wrCommand& (0+255),b
  5404                           
  5405                           ; BSR set to: 0
  5406                           ;serial.c: 239: SSP1CON1bits.SSPEN = 0x1;
  5407  001A26  8AC6               	bsf	4038,5,c	;volatile
  5408                           
  5409                           ; BSR set to: 0
  5410                           ;serial.c: 240: _delay((unsigned long)((5)*(32000000/4000000.0)));
  5411  001A28  0E0D               	movlw	13
  5412  001A2A                     u4547:
  5413  001A2A  2EE8               	decfsz	wreg,f,c
  5414  001A2C  D7FE               	bra	u4547
  5415  001A2E  F000               	nop	
  5416                           
  5417                           ;serial.c: 242: SSP1CON2bits.SEN = 0x1;
  5418  001A30  80C5               	bsf	4037,0,c	;volatile
  5419  001A32  B0C5               	btfsc	4037,0,c	;volatile
  5420  001A34  D7FE               	goto	l1278
  5421                           
  5422                           ;serial.c: 244: PIR1bits.SSP1IF = 0x0;
  5423  001A36  969E               	bcf	3998,3,c	;volatile
  5424                           
  5425                           ;serial.c: 245: SSP1BUF = wrCommand;
  5426  001A38  C0CC  FFC9         	movff	I2C1_Write_DigiPot@wrCommand,4041	;volatile
  5427  001A3C  BCC5               	btfsc	4037,6,c	;volatile
  5428  001A3E  D7FE               	goto	l1281
  5429  001A40                     u3960:
  5430                           
  5431                           ;serial.c: 248: while(!PIR1bits.SSP1IF);
  5432  001A40  A69E               	btfss	3998,3,c	;volatile
  5433  001A42  D7FE               	goto	u3960
  5434                           
  5435                           ;serial.c: 249: PIR1bits.SSP1IF = 0x0;
  5436  001A44  969E               	bcf	3998,3,c	;volatile
  5437                           
  5438                           ;serial.c: 250: SSP1BUF = value;
  5439  001A46  C0CB  FFC9         	movff	I2C1_Write_DigiPot@value,4041	;volatile
  5440  001A4A  BCC5               	btfsc	4037,6,c	;volatile
  5441  001A4C  D7FE               	goto	l1287
  5442  001A4E                     u3980:
  5443                           
  5444                           ;serial.c: 253: while(!PIR1bits.SSP1IF);
  5445  001A4E  A69E               	btfss	3998,3,c	;volatile
  5446  001A50  D7FE               	goto	u3980
  5447                           
  5448                           ;serial.c: 254: SSP1CON2bits.PEN = 0x1;
  5449  001A52  84C5               	bsf	4037,2,c	;volatile
  5450  001A54  B4C5               	btfsc	4037,2,c	;volatile
  5451  001A56  D7FE               	goto	l1293
  5452                           
  5453                           ;serial.c: 257: PIR1bits.SSP1IF = 0x0;
  5454  001A58  969E               	bcf	3998,3,c	;volatile
  5455                           
  5456                           ;serial.c: 258: SSP1CON1bits.SSPEN = 0x1;
  5457  001A5A  8AC6               	bsf	4038,5,c	;volatile
  5458  001A5C  0012               	return		;funcret
  5459  001A5E                     __end_of_I2C1_Write_DigiPot:
  5460                           	opt stack 0
  5461                           tblptru	equ	0xFF8
  5462                           tblptrh	equ	0xFF7
  5463                           tblptrl	equ	0xFF6
  5464                           tablat	equ	0xFF5
  5465                           prodh	equ	0xFF4
  5466                           prodl	equ	0xFF3
  5467                           intcon	equ	0xFF2
  5468                           postinc0	equ	0xFEE
  5469                           wreg	equ	0xFE8
  5470                           postinc1	equ	0xFE6
  5471                           postdec1	equ	0xFE5
  5472                           fsr1h	equ	0xFE2
  5473                           fsr1l	equ	0xFE1
  5474                           indf2	equ	0xFDF
  5475                           postinc2	equ	0xFDE
  5476                           postdec2	equ	0xFDD
  5477                           fsr2h	equ	0xFDA
  5478                           fsr2l	equ	0xFD9
  5479                           status	equ	0xFD8
  5480                           
  5481 ;; *************** function _I2C1_Page_Write_EEPROM *****************
  5482 ;; Defined at:
  5483 ;;		line 66 in file "serial.c"
  5484 ;; Parameters:    Size  Location     Type
  5485 ;;  slot            2    0[BANK0 ] int 
  5486 ;;  data            2    2[BANK0 ] PTR PTR int 
  5487 ;;		 -> parameter(30), 
  5488 ;;  bytes           2    4[BANK0 ] int 
  5489 ;; Auto vars:     Size  Location     Type
  5490 ;;  n               2    9[BANK0 ] int 
  5491 ;;  memValue        1    8[BANK0 ] unsigned char 
  5492 ;;  wrDevAddr       1    7[BANK0 ] unsigned char 
  5493 ;; Return value:  Size  Location     Type
  5494 ;;                  1    wreg      void 
  5495 ;; Registers used:
  5496 ;;		wreg, fsr2l, fsr2h, status,2, status,0
  5497 ;; Tracked objects:
  5498 ;;		On entry : 0/0
  5499 ;;		On exit  : 0/0
  5500 ;;		Unchanged: 0/0
  5501 ;; Data sizes:     COMRAM   BANK0   BANK1   BANK2   BANK3   BANK4   BANK5   BANK6   BANK7   BANK8   BANK9  BANK10  BANK1
      +1  BANK12  BANK13
  5502 ;;      Params:         0       6       0       0       0       0       0       0       0       0       0       0       
      +0       0       0
  5503 ;;      Locals:         0       4       0       0       0       0       0       0       0       0       0       0       
      +0       0       0
  5504 ;;      Temps:          0       1       0       0       0       0       0       0       0       0       0       0       
      +0       0       0
  5505 ;;      Totals:         0      11       0       0       0       0       0       0       0       0       0       0       
      +0       0       0
  5506 ;;Total ram usage:       11 bytes
  5507 ;; Hardware stack levels used:    1
  5508 ;; Hardware stack levels required when called:    5
  5509 ;; This function calls:
  5510 ;;		Nothing
  5511 ;; This function is called by:
  5512 ;;		_main
  5513 ;; This function uses a non-reentrant model
  5514 ;;
  5515                           
  5516                           	psect	text27
  5517  00106C                     __ptext27:
  5518                           	opt stack 0
  5519  00106C                     _I2C1_Page_Write_EEPROM:
  5520                           	opt stack 25
  5521                           
  5522                           ;serial.c: 68: char wrDevAddr = 0b10100000;
  5523                           
  5524                           ;incstack = 0
  5525  00106C  0EA0               	movlw	160
  5526  00106E  0100               	movlb	0	; () banked
  5527  001070  6FD2               	movwf	I2C1_Page_Write_EEPROM@wrDevAddr& (0+255),b
  5528                           
  5529                           ; BSR set to: 0
  5530                           ;serial.c: 69: char memValue = presetAdd[slot];
  5531  001072  90D8               	bcf	status,0,c
  5532  001074  0100               	movlb	0	; () banked
  5533  001076  35CB               	rlcf	I2C1_Page_Write_EEPROM@slot& (0+255),w,b
  5534  001078  6ED9               	movwf	fsr2l,c
  5535  00107A  0100               	movlb	0	; () banked
  5536  00107C  35CC               	rlcf	(I2C1_Page_Write_EEPROM@slot+1)& (0+255),w,b
  5537  00107E  6EDA               	movwf	fsr2h,c
  5538  001080  0EE8               	movlw	low _presetAdd
  5539  001082  26D9               	addwf	fsr2l,f,c
  5540  001084  0E00               	movlw	high _presetAdd
  5541  001086  22DA               	addwfc	fsr2h,f,c
  5542  001088  50DF               	movf	indf2,w,c
  5543  00108A  0100               	movlb	0	; () banked
  5544  00108C  6FD3               	movwf	I2C1_Page_Write_EEPROM@memValue& (0+255),b
  5545                           
  5546                           ; BSR set to: 0
  5547                           ;serial.c: 70: int n = 0;
  5548  00108E  0E00               	movlw	0
  5549  001090  0100               	movlb	0	; () banked
  5550  001092  6FD5               	movwf	(I2C1_Page_Write_EEPROM@n+1)& (0+255),b
  5551  001094  0E00               	movlw	0
  5552  001096  6FD4               	movwf	I2C1_Page_Write_EEPROM@n& (0+255),b
  5553                           
  5554                           ; BSR set to: 0
  5555                           ;serial.c: 72: SSP1CON1bits.SSPEN = 0x1;
  5556  001098  8AC6               	bsf	4038,5,c	;volatile
  5557                           
  5558                           ; BSR set to: 0
  5559                           ;serial.c: 73: _delay((unsigned long)((5)*(32000000/4000000.0)));
  5560  00109A  0E0D               	movlw	13
  5561  00109C                     u4557:
  5562  00109C  2EE8               	decfsz	wreg,f,c
  5563  00109E  D7FE               	bra	u4557
  5564  0010A0  F000               	nop	
  5565                           
  5566                           ;serial.c: 75: SSP1CON2bits.SEN = 0x1;
  5567  0010A2  80C5               	bsf	4037,0,c	;volatile
  5568  0010A4  B0C5               	btfsc	4037,0,c	;volatile
  5569  0010A6  D7FE               	goto	l1147
  5570                           
  5571                           ;serial.c: 77: PIR1bits.SSP1IF = 0x0;
  5572  0010A8  969E               	bcf	3998,3,c	;volatile
  5573                           
  5574                           ;serial.c: 78: SSP1BUF = wrDevAddr;
  5575  0010AA  C0D2  FFC9         	movff	I2C1_Page_Write_EEPROM@wrDevAddr,4041	;volatile
  5576  0010AE  BCC5               	btfsc	4037,6,c	;volatile
  5577  0010B0  D7FE               	goto	l1150
  5578  0010B2                     u4020:
  5579                           
  5580                           ;serial.c: 81: while(!PIR1bits.SSP1IF);
  5581  0010B2  A69E               	btfss	3998,3,c	;volatile
  5582  0010B4  D7FE               	goto	u4020
  5583                           
  5584                           ;serial.c: 82: PIR1bits.SSP1IF = 0x0;
  5585  0010B6  969E               	bcf	3998,3,c	;volatile
  5586                           
  5587                           ;serial.c: 83: SSP1BUF = memValue;
  5588  0010B8  C0D3  FFC9         	movff	I2C1_Page_Write_EEPROM@memValue,4041	;volatile
  5589                           
  5590                           ;serial.c: 85: for (n = 0; n < bytes; n++)
  5591  0010BC  0E00               	movlw	0
  5592  0010BE  0100               	movlb	0	; () banked
  5593  0010C0  6FD5               	movwf	(I2C1_Page_Write_EEPROM@n+1)& (0+255),b
  5594  0010C2  0E00               	movlw	0
  5595  0010C4  6FD4               	movwf	I2C1_Page_Write_EEPROM@n& (0+255),b
  5596  0010C6  D017               	goto	l1155
  5597  0010C8                     
  5598                           ; BSR set to: 0
  5599                           
  5600                           ; BSR set to: 0
  5601                           ;serial.c: 86: {
  5602                           ;serial.c: 87: while (SSP1CON2bits.ACKSTAT);
  5603  0010C8  BCC5               	btfsc	4037,6,c	;volatile
  5604  0010CA  D7FE               	goto	l1156
  5605  0010CC                     u4040:
  5606                           
  5607                           ;serial.c: 88: while(!PIR1bits.SSP1IF);
  5608  0010CC  A69E               	btfss	3998,3,c	;volatile
  5609  0010CE  D7FE               	goto	u4040
  5610                           
  5611                           ;serial.c: 89: PIR1bits.SSP1IF = 0x0;
  5612  0010D0  969E               	bcf	3998,3,c	;volatile
  5613                           
  5614                           ;serial.c: 90: SSP1BUF = data[n];
  5615  0010D2  90D8               	bcf	status,0,c
  5616  0010D4  0100               	movlb	0	; () banked
  5617  0010D6  35D4               	rlcf	I2C1_Page_Write_EEPROM@n& (0+255),w,b
  5618  0010D8  6ED9               	movwf	fsr2l,c
  5619  0010DA  0100               	movlb	0	; () banked
  5620  0010DC  35D5               	rlcf	(I2C1_Page_Write_EEPROM@n+1)& (0+255),w,b
  5621  0010DE  6EDA               	movwf	fsr2h,c
  5622  0010E0  0100               	movlb	0	; () banked
  5623  0010E2  51CD               	movf	I2C1_Page_Write_EEPROM@data& (0+255),w,b
  5624  0010E4  26D9               	addwf	fsr2l,f,c
  5625  0010E6  0100               	movlb	0	; () banked
  5626  0010E8  51CE               	movf	(I2C1_Page_Write_EEPROM@data+1)& (0+255),w,b
  5627  0010EA  22DA               	addwfc	fsr2h,f,c
  5628  0010EC  50DF               	movf	indf2,w,c
  5629  0010EE  6EC9               	movwf	4041,c	;volatile
  5630                           
  5631                           ; BSR set to: 0
  5632  0010F0  0100               	movlb	0	; () banked
  5633  0010F2  4BD4               	infsnz	I2C1_Page_Write_EEPROM@n& (0+255),f,b
  5634  0010F4  2BD5               	incf	(I2C1_Page_Write_EEPROM@n+1)& (0+255),f,b
  5635  0010F6                     l1155:
  5636                           
  5637                           ; BSR set to: 0
  5638                           
  5639                           ; BSR set to: 0
  5640  0010F6  0100               	movlb	0	; () banked
  5641  0010F8  51CF               	movf	I2C1_Page_Write_EEPROM@bytes& (0+255),w,b
  5642  0010FA  0100               	movlb	0	; () banked
  5643  0010FC  5DD4               	subwf	I2C1_Page_Write_EEPROM@n& (0+255),w,b
  5644  0010FE  0100               	movlb	0	; () banked
  5645  001100  51D5               	movf	(I2C1_Page_Write_EEPROM@n+1)& (0+255),w,b
  5646  001102  0A80               	xorlw	128
  5647  001104  0100               	movlb	0	; () banked
  5648  001106  6FD1               	movwf	??_I2C1_Page_Write_EEPROM& (0+255),b
  5649  001108  0100               	movlb	0	; () banked
  5650  00110A  51D0               	movf	(I2C1_Page_Write_EEPROM@bytes+1)& (0+255),w,b
  5651  00110C  0A80               	xorlw	128
  5652  00110E  0100               	movlb	0	; () banked
  5653  001110  59D1               	subwfb	??_I2C1_Page_Write_EEPROM& (0+255),w,b
  5654  001112  A0D8               	btfss	status,0,c
  5655  001114  D7D9               	goto	l1156
  5656  001116                     u4060:
  5657                           
  5658                           ; BSR set to: 0
  5659                           
  5660                           ; BSR set to: 0
  5661                           ;serial.c: 91: }
  5662                           ;serial.c: 93: while (SSP1CON2bits.ACKSTAT);
  5663  001116  BCC5               	btfsc	4037,6,c	;volatile
  5664  001118  D7FE               	goto	u4060
  5665  00111A                     u4070:
  5666                           
  5667                           ;serial.c: 94: while(!PIR1bits.SSP1IF);
  5668  00111A  A69E               	btfss	3998,3,c	;volatile
  5669  00111C  D7FE               	goto	u4070
  5670                           
  5671                           ;serial.c: 95: SSP1CON2bits.PEN = 0x1;
  5672  00111E  84C5               	bsf	4037,2,c	;volatile
  5673  001120  B4C5               	btfsc	4037,2,c	;volatile
  5674  001122  D7FE               	goto	l1171
  5675                           
  5676                           ;serial.c: 98: PIR1bits.SSP1IF = 0x0;
  5677  001124  969E               	bcf	3998,3,c	;volatile
  5678                           
  5679                           ;serial.c: 99: SSP1CON1bits.SSPEN = 0x1;
  5680  001126  8AC6               	bsf	4038,5,c	;volatile
  5681  001128  0012               	return		;funcret
  5682  00112A                     __end_of_I2C1_Page_Write_EEPROM:
  5683                           	opt stack 0
  5684                           tblptru	equ	0xFF8
  5685                           tblptrh	equ	0xFF7
  5686                           tblptrl	equ	0xFF6
  5687                           tablat	equ	0xFF5
  5688                           prodh	equ	0xFF4
  5689                           prodl	equ	0xFF3
  5690                           intcon	equ	0xFF2
  5691                           postinc0	equ	0xFEE
  5692                           wreg	equ	0xFE8
  5693                           postinc1	equ	0xFE6
  5694                           postdec1	equ	0xFE5
  5695                           fsr1h	equ	0xFE2
  5696                           fsr1l	equ	0xFE1
  5697                           indf2	equ	0xFDF
  5698                           postinc2	equ	0xFDE
  5699                           postdec2	equ	0xFDD
  5700                           fsr2h	equ	0xFDA
  5701                           fsr2l	equ	0xFD9
  5702                           status	equ	0xFD8
  5703                           
  5704 ;; *************** function _highPriorityISR *****************
  5705 ;; Defined at:
  5706 ;;		line 127 in file "main.c"
  5707 ;; Parameters:    Size  Location     Type
  5708 ;;		None
  5709 ;; Auto vars:     Size  Location     Type
  5710 ;;		None
  5711 ;; Return value:  Size  Location     Type
  5712 ;;                  1    wreg      void 
  5713 ;; Registers used:
  5714 ;;		wreg, fsr2l, fsr2h, status,2, status,0, cstack
  5715 ;; Tracked objects:
  5716 ;;		On entry : 0/0
  5717 ;;		On exit  : 0/0
  5718 ;;		Unchanged: 0/0
  5719 ;; Data sizes:     COMRAM   BANK0   BANK1   BANK2   BANK3   BANK4   BANK5   BANK6   BANK7   BANK8   BANK9  BANK10  BANK1
      +1  BANK12  BANK13
  5720 ;;      Params:         0       0       0       0       0       0       0       0       0       0       0       0       
      +0       0       0
  5721 ;;      Locals:         0       0       0       0       0       0       0       0       0       0       0       0       
      +0       0       0
  5722 ;;      Temps:         18       0       0       0       0       0       0       0       0       0       0       0       
      +0       0       0
  5723 ;;      Totals:        18       0       0       0       0       0       0       0       0       0       0       0       
      +0       0       0
  5724 ;;Total ram usage:       18 bytes
  5725 ;; Hardware stack levels used:    1
  5726 ;; Hardware stack levels required when called:    4
  5727 ;; This function calls:
  5728 ;;		_checkSwitches
  5729 ;;		_flashLED
  5730 ;;		_sendParam
  5731 ;;		_serviceSwitches
  5732 ;;		_tapLED
  5733 ;; This function is called by:
  5734 ;;		Interrupt level 2
  5735 ;; This function uses a non-reentrant model
  5736 ;;
  5737                           
  5738                           	psect	intcode
  5739  000008                     __pintcode:
  5740                           	opt stack 0
  5741  000008                     _highPriorityISR:
  5742                           	opt stack 23
  5743                           
  5744                           ;incstack = 0
  5745  000008  825E               	bsf	btemp,1,c	;set compiler interrupt flag (level 2)
  5746  00000A  CFFA F026          	movff	pclath,??_highPriorityISR
  5747  00000E  CFFB F027          	movff	pclatu,??_highPriorityISR+1
  5748  000012  CFE9 F028          	movff	fsr0l,??_highPriorityISR+2
  5749  000016  CFEA F029          	movff	fsr0h,??_highPriorityISR+3
  5750  00001A  CFE1 F02A          	movff	fsr1l,??_highPriorityISR+4
  5751  00001E  CFE2 F02B          	movff	fsr1h,??_highPriorityISR+5
  5752  000022  CFD9 F02C          	movff	fsr2l,??_highPriorityISR+6
  5753  000026  CFDA F02D          	movff	fsr2h,??_highPriorityISR+7
  5754  00002A  CFF3 F02E          	movff	prodl,??_highPriorityISR+8
  5755  00002E  CFF4 F02F          	movff	prodh,??_highPriorityISR+9
  5756  000032  CFF6 F030          	movff	tblptrl,??_highPriorityISR+10
  5757  000036  CFF7 F031          	movff	tblptrh,??_highPriorityISR+11
  5758  00003A  CFF8 F032          	movff	tblptru,??_highPriorityISR+12
  5759  00003E  CFF5 F033          	movff	tablat,??_highPriorityISR+13
  5760  000042  C05E  F034         	movff	btemp,??_highPriorityISR+14
  5761  000046  C05F  F035         	movff	btemp+1,??_highPriorityISR+15
  5762  00004A  C060  F036         	movff	btemp+2,??_highPriorityISR+16
  5763  00004E  C061  F037         	movff	btemp+3,??_highPriorityISR+17
  5764                           
  5765                           ;main.c: 130: if(SSP2IF)
  5766  000052  ACA1               	btfss	4001,6,c	;volatile
  5767  000054  D003               	goto	i2l165
  5768                           
  5769                           ;main.c: 131: {
  5770                           ;main.c: 132: PIR2bits.SSP2IF = 0x0;
  5771  000056  9CA1               	bcf	4001,6,c	;volatile
  5772                           
  5773                           ;main.c: 133: sendParam();
  5774  000058  EC8B  F009         	call	_sendParam	;wreg free
  5775  00005C                     i2l165:
  5776                           
  5777                           ;main.c: 134: }
  5778                           ;main.c: 136: if (TMR4IF)
  5779  00005C  A0B8               	btfss	4024,0,c	;volatile
  5780  00005E  D007               	goto	i2l166
  5781                           
  5782                           ;main.c: 137: {
  5783                           ;main.c: 138: TMR4IF = 0;
  5784  000060  90B8               	bcf	4024,0,c	;volatile
  5785                           
  5786                           ;main.c: 139: tapLED();
  5787  000062  EC20  F00A         	call	_tapLED	;wreg free
  5788                           
  5789                           ;main.c: 140: flashLED();
  5790  000066  EC4A  F00C         	call	_flashLED	;wreg free
  5791                           
  5792                           ;main.c: 141: T4CONbits.TMR4ON = 1;
  5793  00006A  010F               	movlb	15	; () banked
  5794  00006C  8504               	bsf	4,2,b	;volatile
  5795  00006E                     i2l166:
  5796                           
  5797                           ;main.c: 142: }
  5798                           ;main.c: 144: if (TMR2IF)
  5799                           
  5800                           ; BSR set to: 15
  5801  00006E  A29E               	btfss	3998,1,c	;volatile
  5802  000070  D012               	goto	i2l169
  5803                           
  5804                           ;main.c: 145: {
  5805                           ;main.c: 146: TMR2IF = 0;
  5806  000072  929E               	bcf	3998,1,c	;volatile
  5807                           
  5808                           ;main.c: 147: tapTimeCount++;
  5809  000074  4A3C               	infsnz	_tapTimeCount,f,c
  5810  000076  2A3D               	incf	_tapTimeCount+1,f,c
  5811                           
  5812                           ;main.c: 148: if (tapTimeCount >= 3000)
  5813  000078  BE3D               	btfsc	_tapTimeCount+1,7,c
  5814  00007A  D00C               	goto	i2l168
  5815  00007C  0EB8               	movlw	184
  5816  00007E  5C3C               	subwf	_tapTimeCount,w,c
  5817  000080  0E0B               	movlw	11
  5818  000082  583D               	subwfb	_tapTimeCount+1,w,c
  5819  000084  A0D8               	btfss	status,0,c
  5820  000086  D006               	goto	i2l168
  5821                           
  5822                           ;main.c: 149: {
  5823                           ;main.c: 150: tapTimeCount = 3000;
  5824  000088  0E0B               	movlw	11
  5825  00008A  6E3D               	movwf	_tapTimeCount+1,c
  5826  00008C  0EB8               	movlw	184
  5827  00008E  6E3C               	movwf	_tapTimeCount,c
  5828                           
  5829                           ;main.c: 151: T2CONbits.TMR2ON = 0;
  5830  000090  94CA               	bcf	4042,2,c	;volatile
  5831                           
  5832                           ;main.c: 152: }
  5833  000092  D001               	goto	i2l169
  5834  000094                     i2l168:
  5835                           
  5836                           ;main.c: 153: else T2CONbits.TMR2ON = 1;
  5837  000094  84CA               	bsf	4042,2,c	;volatile
  5838  000096                     i2l169:
  5839                           
  5840                           ;main.c: 154: }
  5841                           ;main.c: 156: checkSwitches();
  5842  000096  EC6A  F00A         	call	_checkSwitches	;wreg free
  5843                           
  5844                           ;main.c: 158: if (TMR0IF)
  5845  00009A  A4F2               	btfss	intcon,2,c	;volatile
  5846  00009C  D019               	goto	i2l172
  5847                           
  5848                           ;main.c: 159: {
  5849                           ;main.c: 160: TMR0IF = 0;
  5850  00009E  94F2               	bcf	intcon,2,c	;volatile
  5851                           
  5852                           ;main.c: 161: bounceCount++;
  5853  0000A0  0100               	movlb	0	; () banked
  5854  0000A2  4BA5               	infsnz	_bounceCount& (0+255),f,b
  5855  0000A4  2BA6               	incf	(_bounceCount+1)& (0+255),f,b
  5856                           
  5857                           ; BSR set to: 0
  5858                           ;main.c: 162: if (bounceCount < 2)
  5859  0000A6  0100               	movlb	0	; () banked
  5860  0000A8  BFA6               	btfsc	(_bounceCount+1)& (0+255),7,b
  5861  0000AA  D008               	goto	i2u423_40
  5862  0000AC  0100               	movlb	0	; () banked
  5863  0000AE  51A6               	movf	(_bounceCount+1)& (0+255),w,b
  5864  0000B0  E107               	bnz	i2l4073
  5865  0000B2  0E02               	movlw	2
  5866  0000B4  0100               	movlb	0	; () banked
  5867  0000B6  5DA5               	subwf	_bounceCount& (0+255),w,b
  5868  0000B8  B0D8               	btfsc	status,0,c
  5869  0000BA  D002               	goto	i2l171
  5870  0000BC                     i2u423_40:
  5871                           
  5872                           ; BSR set to: 0
  5873                           ;main.c: 163: {
  5874                           ;main.c: 164: T0CONbits.TMR0ON = 0x1;
  5875  0000BC  8ED5               	bsf	4053,7,c	;volatile
  5876                           
  5877                           ;main.c: 165: }
  5878  0000BE  D008               	goto	i2l172
  5879  0000C0                     i2l171:
  5880  0000C0                     i2l4073:
  5881                           
  5882                           ; BSR set to: 0
  5883                           ;main.c: 166: else
  5884                           ;main.c: 167: {
  5885                           ;main.c: 168: bounceCount = 0;
  5886  0000C0  0E00               	movlw	0
  5887  0000C2  0100               	movlb	0	; () banked
  5888  0000C4  6FA6               	movwf	(_bounceCount+1)& (0+255),b
  5889  0000C6  0E00               	movlw	0
  5890  0000C8  6FA5               	movwf	_bounceCount& (0+255),b
  5891                           
  5892                           ; BSR set to: 0
  5893                           ;main.c: 169: serviceSwitches();
  5894  0000CA  EC90  F000         	call	_serviceSwitches	;wreg free
  5895                           
  5896                           ;main.c: 170: T0CONbits.TMR0ON = 0x0;
  5897  0000CE  9ED5               	bcf	4053,7,c	;volatile
  5898  0000D0                     i2l172:
  5899  0000D0  C037  F061         	movff	??_highPriorityISR+17,btemp+3
  5900  0000D4  C036  F060         	movff	??_highPriorityISR+16,btemp+2
  5901  0000D8  C035  F05F         	movff	??_highPriorityISR+15,btemp+1
  5902  0000DC  C034  F05E         	movff	??_highPriorityISR+14,btemp
  5903  0000E0  C033  FFF5         	movff	??_highPriorityISR+13,tablat
  5904  0000E4  C032  FFF8         	movff	??_highPriorityISR+12,tblptru
  5905  0000E8  C031  FFF7         	movff	??_highPriorityISR+11,tblptrh
  5906  0000EC  C030  FFF6         	movff	??_highPriorityISR+10,tblptrl
  5907  0000F0  C02F  FFF4         	movff	??_highPriorityISR+9,prodh
  5908  0000F4  C02E  FFF3         	movff	??_highPriorityISR+8,prodl
  5909  0000F8  C02D  FFDA         	movff	??_highPriorityISR+7,fsr2h
  5910  0000FC  C02C  FFD9         	movff	??_highPriorityISR+6,fsr2l
  5911  000100  C02B  FFE2         	movff	??_highPriorityISR+5,fsr1h
  5912  000104  C02A  FFE1         	movff	??_highPriorityISR+4,fsr1l
  5913  000108  C029  FFEA         	movff	??_highPriorityISR+3,fsr0h
  5914  00010C  C028  FFE9         	movff	??_highPriorityISR+2,fsr0l
  5915  000110  C027  FFFB         	movff	??_highPriorityISR+1,pclatu
  5916  000114  C026  FFFA         	movff	??_highPriorityISR,pclath
  5917  000118  925E               	bcf	btemp,1,c	;clear compiler interrupt flag (level 2)
  5918  00011A  0011               	retfie		f
  5919  00011C                     __end_of_highPriorityISR:
  5920                           	opt stack 0
  5921                           pclatu	equ	0xFFB
  5922                           pclath	equ	0xFFA
  5923                           tblptru	equ	0xFF8
  5924                           tblptrh	equ	0xFF7
  5925                           tblptrl	equ	0xFF6
  5926                           tablat	equ	0xFF5
  5927                           prodh	equ	0xFF4
  5928                           prodl	equ	0xFF3
  5929                           intcon	equ	0xFF2
  5930                           postinc0	equ	0xFEE
  5931                           fsr0h	equ	0xFEA
  5932                           fsr0l	equ	0xFE9
  5933                           wreg	equ	0xFE8
  5934                           postinc1	equ	0xFE6
  5935                           postdec1	equ	0xFE5
  5936                           fsr1h	equ	0xFE2
  5937                           fsr1l	equ	0xFE1
  5938                           indf2	equ	0xFDF
  5939                           postinc2	equ	0xFDE
  5940                           postdec2	equ	0xFDD
  5941                           fsr2h	equ	0xFDA
  5942                           fsr2l	equ	0xFD9
  5943                           status	equ	0xFD8
  5944                           
  5945 ;; *************** function _tapLED *****************
  5946 ;; Defined at:
  5947 ;;		line 76 in file "hardware.c"
  5948 ;; Parameters:    Size  Location     Type
  5949 ;;		None
  5950 ;; Auto vars:     Size  Location     Type
  5951 ;;		None
  5952 ;; Return value:  Size  Location     Type
  5953 ;;                  1    wreg      void 
  5954 ;; Registers used:
  5955 ;;		wreg, status,2, status,0
  5956 ;; Tracked objects:
  5957 ;;		On entry : 0/0
  5958 ;;		On exit  : 0/0
  5959 ;;		Unchanged: 0/0
  5960 ;; Data sizes:     COMRAM   BANK0   BANK1   BANK2   BANK3   BANK4   BANK5   BANK6   BANK7   BANK8   BANK9  BANK10  BANK1
      +1  BANK12  BANK13
  5961 ;;      Params:         0       0       0       0       0       0       0       0       0       0       0       0       
      +0       0       0
  5962 ;;      Locals:         0       0       0       0       0       0       0       0       0       0       0       0       
      +0       0       0
  5963 ;;      Temps:          3       0       0       0       0       0       0       0       0       0       0       0       
      +0       0       0
  5964 ;;      Totals:         3       0       0       0       0       0       0       0       0       0       0       0       
      +0       0       0
  5965 ;;Total ram usage:        3 bytes
  5966 ;; Hardware stack levels used:    1
  5967 ;; This function calls:
  5968 ;;		Nothing
  5969 ;; This function is called by:
  5970 ;;		_highPriorityISR
  5971 ;; This function uses a non-reentrant model
  5972 ;;
  5973                           
  5974                           	psect	text29
  5975  001440                     __ptext29:
  5976                           	opt stack 0
  5977  001440                     _tapLED:
  5978                           	opt stack 26
  5979                           
  5980                           ;hardware.c: 78: if (masterTime.f == 0)
  5981                           
  5982                           ;incstack = 0
  5983  001440  0100               	movlb	0	; () banked
  5984  001442  5164               	movf	_masterTime& (0+255),w,b
  5985  001444  0100               	movlb	0	; () banked
  5986  001446  1165               	iorwf	(_masterTime+1)& (0+255),w,b
  5987  001448  0100               	movlb	0	; () banked
  5988  00144A  1166               	iorwf	(_masterTime+2)& (0+255),w,b
  5989  00144C  A4D8               	btfss	status,2,c
  5990  00144E  D002               	goto	i2l825
  5991                           
  5992                           ; BSR set to: 0
  5993                           ;hardware.c: 79: {
  5994                           ;hardware.c: 80: LATE0 = 0;
  5995  001450  908D               	bcf	3981,0,c	;volatile
  5996                           
  5997                           ;hardware.c: 81: }
  5998  001452  0012               	return	
  5999  001454                     i2l825:
  6000                           
  6001                           ; BSR set to: 0
  6002                           ;hardware.c: 82: else if(tapFlash)
  6003                           
  6004                           ; BSR set to: 0
  6005  001454  0100               	movlb	0	; () banked
  6006  001456  5197               	movf	_tapFlash& (0+255),w,b
  6007  001458  0100               	movlb	0	; () banked
  6008  00145A  1198               	iorwf	(_tapFlash+1)& (0+255),w,b
  6009  00145C  B4D8               	btfsc	status,2,c
  6010  00145E  D017               	goto	i2l827
  6011                           
  6012                           ; BSR set to: 0
  6013                           ;hardware.c: 83: {
  6014                           ;hardware.c: 84: tapDispCount++;
  6015  001460  4A40               	infsnz	_tapDispCount,f,c
  6016  001462  2A41               	incf	_tapDispCount+1,f,c
  6017                           
  6018                           ; BSR set to: 0
  6019                           ;hardware.c: 85: if (tapDispCount >= tapOnTime)
  6020  001464  505A               	movf	_tapOnTime,w,c
  6021  001466  5C40               	subwf	_tapDispCount,w,c
  6022  001468  5041               	movf	_tapDispCount+1,w,c
  6023  00146A  0A80               	xorlw	128
  6024  00146C  6E01               	movwf	??_tapLED& (0+255),c
  6025  00146E  505B               	movf	_tapOnTime+1,w,c
  6026  001470  0A80               	xorlw	128
  6027  001472  5801               	subwfb	??_tapLED& (0+255),w,c
  6028  001474  A0D8               	btfss	status,0,c
  6029  001476  0012               	return	
  6030                           
  6031                           ; BSR set to: 0
  6032                           ;hardware.c: 86: {
  6033                           ;hardware.c: 87: tapDispCount = 0;
  6034  001478  0E00               	movlw	0
  6035  00147A  6E41               	movwf	_tapDispCount+1,c
  6036  00147C  0E00               	movlw	0
  6037  00147E  6E40               	movwf	_tapDispCount,c
  6038                           
  6039                           ; BSR set to: 0
  6040                           ;hardware.c: 88: LATE0 = 0;
  6041  001480  908D               	bcf	3981,0,c	;volatile
  6042                           
  6043                           ;hardware.c: 89: tapFlash = 0;
  6044  001482  0E00               	movlw	0
  6045  001484  0100               	movlb	0	; () banked
  6046  001486  6F98               	movwf	(_tapFlash+1)& (0+255),b
  6047  001488  0E00               	movlw	0
  6048  00148A  6F97               	movwf	_tapFlash& (0+255),b
  6049                           
  6050                           ; BSR set to: 0
  6051                           ;hardware.c: 90: }
  6052                           ;hardware.c: 91: }
  6053  00148C  0012               	return	
  6054  00148E                     i2l827:
  6055                           
  6056                           ; BSR set to: 0
  6057                           ;hardware.c: 92: else
  6058                           ;hardware.c: 93: {
  6059                           ;hardware.c: 94: tapDispCount++;
  6060                           
  6061                           ; BSR set to: 0
  6062  00148E  4A40               	infsnz	_tapDispCount,f,c
  6063  001490  2A41               	incf	_tapDispCount+1,f,c
  6064                           
  6065                           ; BSR set to: 0
  6066                           ;hardware.c: 95: if (tapDispCount >= (currentTapTime-tapOnTime))
  6067  001492  C05A  F001         	movff	_tapOnTime,??_tapLED
  6068  001496  C05B  F002         	movff	_tapOnTime+1,??_tapLED+1
  6069  00149A  1E01               	comf	??_tapLED,f,c
  6070  00149C  1E02               	comf	??_tapLED+1,f,c
  6071  00149E  4A01               	infsnz	??_tapLED,f,c
  6072  0014A0  2A02               	incf	??_tapLED+1,f,c
  6073  0014A2  5058               	movf	_currentTapTime,w,c
  6074  0014A4  2601               	addwf	??_tapLED,f,c
  6075  0014A6  5059               	movf	_currentTapTime+1,w,c
  6076  0014A8  2202               	addwfc	??_tapLED+1,f,c
  6077  0014AA  5001               	movf	??_tapLED,w,c
  6078  0014AC  5C40               	subwf	_tapDispCount,w,c
  6079  0014AE  5041               	movf	_tapDispCount+1,w,c
  6080  0014B0  0A80               	xorlw	128
  6081  0014B2  6E03               	movwf	(??_tapLED+2)& (0+255),c
  6082  0014B4  5002               	movf	??_tapLED+1,w,c
  6083  0014B6  0A80               	xorlw	128
  6084  0014B8  5803               	subwfb	(??_tapLED+2)& (0+255),w,c
  6085  0014BA  A0D8               	btfss	status,0,c
  6086  0014BC  0012               	return	
  6087                           
  6088                           ; BSR set to: 0
  6089                           ;hardware.c: 96: {
  6090                           ;hardware.c: 97: tapDispCount = 0;
  6091  0014BE  0E00               	movlw	0
  6092  0014C0  6E41               	movwf	_tapDispCount+1,c
  6093  0014C2  0E00               	movlw	0
  6094  0014C4  6E40               	movwf	_tapDispCount,c
  6095                           
  6096                           ; BSR set to: 0
  6097                           ;hardware.c: 98: LATE0 = 1;
  6098  0014C6  808D               	bsf	3981,0,c	;volatile
  6099                           
  6100                           ;hardware.c: 99: tapFlash = 1;
  6101  0014C8  0E00               	movlw	0
  6102  0014CA  0100               	movlb	0	; () banked
  6103  0014CC  6F98               	movwf	(_tapFlash+1)& (0+255),b
  6104  0014CE  0E01               	movlw	1
  6105  0014D0  6F97               	movwf	_tapFlash& (0+255),b
  6106                           
  6107                           ; BSR set to: 0
  6108                           
  6109                           ; BSR set to: 0
  6110  0014D2  0012               	return	
  6111  0014D4                     __end_of_tapLED:
  6112                           	opt stack 0
  6113                           pclatu	equ	0xFFB
  6114                           pclath	equ	0xFFA
  6115                           tblptru	equ	0xFF8
  6116                           tblptrh	equ	0xFF7
  6117                           tblptrl	equ	0xFF6
  6118                           tablat	equ	0xFF5
  6119                           prodh	equ	0xFF4
  6120                           prodl	equ	0xFF3
  6121                           intcon	equ	0xFF2
  6122                           postinc0	equ	0xFEE
  6123                           fsr0h	equ	0xFEA
  6124                           fsr0l	equ	0xFE9
  6125                           wreg	equ	0xFE8
  6126                           postinc1	equ	0xFE6
  6127                           postdec1	equ	0xFE5
  6128                           fsr1h	equ	0xFE2
  6129                           fsr1l	equ	0xFE1
  6130                           indf2	equ	0xFDF
  6131                           postinc2	equ	0xFDE
  6132                           postdec2	equ	0xFDD
  6133                           fsr2h	equ	0xFDA
  6134                           fsr2l	equ	0xFD9
  6135                           status	equ	0xFD8
  6136                           
  6137 ;; *************** function _serviceSwitches *****************
  6138 ;; Defined at:
  6139 ;;		line 199 in file "hardware.c"
  6140 ;; Parameters:    Size  Location     Type
  6141 ;;		None
  6142 ;; Auto vars:     Size  Location     Type
  6143 ;;  c               2   35[COMRAM] int 
  6144 ;;  b               2   33[COMRAM] int 
  6145 ;;  a               2   31[COMRAM] int 
  6146 ;; Return value:  Size  Location     Type
  6147 ;;                  1    wreg      void 
  6148 ;; Registers used:
  6149 ;;		wreg, status,2, status,0, cstack
  6150 ;; Tracked objects:
  6151 ;;		On entry : 0/0
  6152 ;;		On exit  : 0/0
  6153 ;;		Unchanged: 0/0
  6154 ;; Data sizes:     COMRAM   BANK0   BANK1   BANK2   BANK3   BANK4   BANK5   BANK6   BANK7   BANK8   BANK9  BANK10  BANK1
      +1  BANK12  BANK13
  6155 ;;      Params:         0       0       0       0       0       0       0       0       0       0       0       0       
      +0       0       0
  6156 ;;      Locals:         6       0       0       0       0       0       0       0       0       0       0       0       
      +0       0       0
  6157 ;;      Temps:          0       0       0       0       0       0       0       0       0       0       0       0       
      +0       0       0
  6158 ;;      Totals:         6       0       0       0       0       0       0       0       0       0       0       0       
      +0       0       0
  6159 ;;Total ram usage:        6 bytes
  6160 ;; Hardware stack levels used:    1
  6161 ;; Hardware stack levels required when called:    3
  6162 ;; This function calls:
  6163 ;;		_processTaps
  6164 ;;		_updateLineLEDs
  6165 ;;		_updatePresetLEDs
  6166 ;; This function is called by:
  6167 ;;		_highPriorityISR
  6168 ;; This function uses a non-reentrant model
  6169 ;;
  6170                           
  6171                           	psect	text30
  6172  000120                     __ptext30:
  6173                           	opt stack 0
  6174  000120                     _serviceSwitches:
  6175                           	opt stack 23
  6176                           
  6177                           ;hardware.c: 201: int a, b, c;
  6178                           ;hardware.c: 203: if (fsw1)
  6179                           
  6180                           ; BSR set to: 0
  6181                           ;incstack = 0
  6182  000120  0100               	movlb	0	; () banked
  6183  000122  51A9               	movf	_fsw1& (0+255),w,b
  6184  000124  0100               	movlb	0	; () banked
  6185  000126  11AA               	iorwf	(_fsw1+1)& (0+255),w,b
  6186  000128  B4D8               	btfsc	status,2,c
  6187  00012A  D023               	goto	i2u345_45
  6188                           
  6189                           ; BSR set to: 0
  6190                           ;hardware.c: 204: {
  6191                           ;hardware.c: 205: fsw1 = 0;
  6192  00012C  0E00               	movlw	0
  6193  00012E  0100               	movlb	0	; () banked
  6194  000130  6FAA               	movwf	(_fsw1+1)& (0+255),b
  6195  000132  0E00               	movlw	0
  6196  000134  6FA9               	movwf	_fsw1& (0+255),b
  6197                           
  6198                           ; BSR set to: 0
  6199                           ;hardware.c: 206: if (!RD4)
  6200  000136  B883               	btfsc	3971,4,c	;volatile
  6201  000138  D01C               	goto	i2u345_45
  6202                           
  6203                           ; BSR set to: 0
  6204                           ;hardware.c: 207: {
  6205                           ;hardware.c: 208: bypass ^= 1;
  6206  00013A  0E01               	movlw	1
  6207  00013C  1A46               	xorwf	_bypass,f,c
  6208                           
  6209                           ;hardware.c: 209: if (bypMode)
  6210  00013E  0100               	movlb	0	; () banked
  6211  000140  51F2               	movf	_bypMode& (0+255),w,b
  6212  000142  0100               	movlb	0	; () banked
  6213  000144  11F3               	iorwf	(_bypMode+1)& (0+255),w,b
  6214  000146  B4D8               	btfsc	status,2,c
  6215  000148  D00B               	goto	i2l854
  6216                           
  6217                           ; BSR set to: 0
  6218                           ;hardware.c: 210: {
  6219                           ;hardware.c: 211: LATD3 = !bypass;
  6220  00014A  5046               	movf	_bypass,w,c
  6221  00014C  1047               	iorwf	_bypass+1,w,c
  6222  00014E  A4D8               	btfss	status,2,c
  6223  000150  D002               	goto	i2u338_40
  6224  000152  868C               	bsf	3980,3,c	;volatile
  6225  000154  D001               	goto	i2u339_45
  6226  000156                     i2u338_40:
  6227  000156  968C               	bcf	3980,3,c	;volatile
  6228  000158                     i2u339_45:
  6229                           
  6230                           ;hardware.c: 212: LATB5 = bypass;
  6231  000158  A046               	btfss	_bypass,0,c
  6232  00015A  D005               	goto	L6
  6233  00015C                     i2u340_41:
  6234  00015C  8A8A               	bsf	3978,5,c	;volatile
  6235  00015E  D004               	goto	i2u343_45
  6236  000160                     i2l854:
  6237                           
  6238                           ; BSR set to: 0
  6239                           ;hardware.c: 214: else
  6240                           ;hardware.c: 215: {
  6241                           ;hardware.c: 216: LATD3 = 0;
  6242  000160  968C               	bcf	3980,3,c	;volatile
  6243                           
  6244                           ;hardware.c: 217: LATB5 = bypass;
  6245  000162  B046               	btfsc	_bypass,0,c
  6246  000164  D7FB               	goto	i2u340_41
  6247  000166                     L6:
  6248  000166  9A8A               	bcf	3978,5,c	;volatile
  6249  000168                     i2u343_45:
  6250                           
  6251                           ;hardware.c: 218: }
  6252                           ;hardware.c: 219: LATD2 = bypass;
  6253  000168  A046               	btfss	_bypass,0,c
  6254  00016A  D002               	goto	i2u344_40
  6255  00016C  848C               	bsf	3980,2,c	;volatile
  6256  00016E  D001               	goto	i2u345_45
  6257  000170                     i2u344_40:
  6258  000170  948C               	bcf	3980,2,c	;volatile
  6259  000172                     i2u345_45:
  6260                           
  6261                           ;hardware.c: 220: }
  6262                           ;hardware.c: 221: }
  6263                           ;hardware.c: 223: if (fsw2)
  6264  000172  0100               	movlb	0	; () banked
  6265  000174  51A7               	movf	_fsw2& (0+255),w,b
  6266  000176  0100               	movlb	0	; () banked
  6267  000178  11A8               	iorwf	(_fsw2+1)& (0+255),w,b
  6268  00017A  B4D8               	btfsc	status,2,c
  6269  00017C  D008               	goto	i2l857
  6270                           
  6271                           ; BSR set to: 0
  6272                           ;hardware.c: 224: {
  6273                           ;hardware.c: 225: fsw2 = 0;
  6274  00017E  0E00               	movlw	0
  6275  000180  0100               	movlb	0	; () banked
  6276  000182  6FA8               	movwf	(_fsw2+1)& (0+255),b
  6277  000184  0E00               	movlw	0
  6278  000186  6FA7               	movwf	_fsw2& (0+255),b
  6279                           
  6280                           ; BSR set to: 0
  6281                           ;hardware.c: 226: if (!RE3)
  6282  000188  A684               	btfss	3972,3,c	;volatile
  6283                           
  6284                           ; BSR set to: 0
  6285                           ;hardware.c: 227: {
  6286                           ;hardware.c: 228: processTaps();
  6287  00018A  EC2B  F006         	call	_processTaps	;wreg free
  6288  00018E                     i2l857:
  6289                           
  6290                           ;hardware.c: 229: }
  6291                           ;hardware.c: 230: }
  6292                           ;hardware.c: 232: if (switch1)
  6293  00018E  504E               	movf	_switch1,w,c
  6294  000190  104F               	iorwf	_switch1+1,w,c
  6295  000192  B4D8               	btfsc	status,2,c
  6296  000194  D020               	goto	i2l862
  6297                           
  6298                           ;hardware.c: 233: {
  6299                           ;hardware.c: 234: switch1 = 0;
  6300  000196  0E00               	movlw	0
  6301  000198  6E4F               	movwf	_switch1+1,c
  6302  00019A  0E00               	movlw	0
  6303  00019C  6E4E               	movwf	_switch1,c
  6304                           
  6305                           ;hardware.c: 235: if (!RG1)
  6306  00019E  B286               	btfsc	3974,1,c	;volatile
  6307  0001A0  D01A               	goto	i2l862
  6308                           
  6309                           ;hardware.c: 236: {
  6310                           ;hardware.c: 237: if (!shift)
  6311  0001A2  503E               	movf	_shift,w,c
  6312  0001A4  103F               	iorwf	_shift+1,w,c
  6313  0001A6  A4D8               	btfss	status,2,c
  6314  0001A8  D00F               	goto	i2l860
  6315                           
  6316                           ;hardware.c: 238: {
  6317                           ;hardware.c: 239: intA++;
  6318  0001AA  4A56               	infsnz	_intA,f,c
  6319  0001AC  2A57               	incf	_intA+1,f,c
  6320                           
  6321                           ;hardware.c: 240: if (intA > 3)
  6322  0001AE  BE57               	btfsc	_intA+1,7,c
  6323  0001B0  D012               	goto	i2l862
  6324  0001B2  5057               	movf	_intA+1,w,c
  6325  0001B4  E104               	bnz	i2u351_40
  6326  0001B6  0E04               	movlw	4
  6327  0001B8  5C56               	subwf	_intA,w,c
  6328  0001BA  A0D8               	btfss	status,0,c
  6329  0001BC  D00C               	goto	i2l862
  6330  0001BE                     i2u351_40:
  6331                           
  6332                           ;hardware.c: 241: {
  6333                           ;hardware.c: 242: intA = 1;
  6334  0001BE  0E00               	movlw	0
  6335  0001C0  6E57               	movwf	_intA+1,c
  6336  0001C2  0E01               	movlw	1
  6337  0001C4  6E56               	movwf	_intA,c
  6338                           
  6339                           ;hardware.c: 243: }
  6340                           ;hardware.c: 244: }
  6341  0001C6  D007               	goto	i2l862
  6342  0001C8                     i2l860:
  6343                           
  6344                           ;hardware.c: 245: else
  6345                           ;hardware.c: 246: {
  6346                           ;hardware.c: 247: armA ^= 1;
  6347  0001C8  0E01               	movlw	1
  6348  0001CA  0100               	movlb	0	; () banked
  6349  0001CC  1B8F               	xorwf	_armA& (0+255),f,b
  6350                           
  6351                           ; BSR set to: 0
  6352                           ;hardware.c: 248: shiftAction = 1;
  6353  0001CE  0E00               	movlw	0
  6354  0001D0  6E51               	movwf	_shiftAction+1,c
  6355  0001D2  0E01               	movlw	1
  6356  0001D4  6E50               	movwf	_shiftAction,c
  6357  0001D6                     i2l862:
  6358                           
  6359                           ;hardware.c: 249: }
  6360                           ;hardware.c: 250: }
  6361                           ;hardware.c: 251: }
  6362                           ;hardware.c: 253: if (switch2)
  6363                           
  6364                           ; BSR set to: 0
  6365                           
  6366                           ; BSR set to: 0
  6367                           
  6368                           ; BSR set to: 0
  6369  0001D6  504C               	movf	_switch2,w,c
  6370  0001D8  104D               	iorwf	_switch2+1,w,c
  6371  0001DA  B4D8               	btfsc	status,2,c
  6372  0001DC  D020               	goto	i2l867
  6373                           
  6374                           ;hardware.c: 254: {
  6375                           ;hardware.c: 255: switch2 = 0;
  6376  0001DE  0E00               	movlw	0
  6377  0001E0  6E4D               	movwf	_switch2+1,c
  6378  0001E2  0E00               	movlw	0
  6379  0001E4  6E4C               	movwf	_switch2,c
  6380                           
  6381                           ;hardware.c: 256: if (!RG2)
  6382  0001E6  B486               	btfsc	3974,2,c	;volatile
  6383  0001E8  D01A               	goto	i2l867
  6384                           
  6385                           ;hardware.c: 257: {
  6386                           ;hardware.c: 258: if (!shift)
  6387  0001EA  503E               	movf	_shift,w,c
  6388  0001EC  103F               	iorwf	_shift+1,w,c
  6389  0001EE  A4D8               	btfss	status,2,c
  6390  0001F0  D00F               	goto	i2l865
  6391                           
  6392                           ;hardware.c: 259: {
  6393                           ;hardware.c: 260: intB++;
  6394  0001F2  4A54               	infsnz	_intB,f,c
  6395  0001F4  2A55               	incf	_intB+1,f,c
  6396                           
  6397                           ;hardware.c: 261: if (intB > 3)
  6398  0001F6  BE55               	btfsc	_intB+1,7,c
  6399  0001F8  D012               	goto	i2l867
  6400  0001FA  5055               	movf	_intB+1,w,c
  6401  0001FC  E104               	bnz	i2u355_40
  6402  0001FE  0E04               	movlw	4
  6403  000200  5C54               	subwf	_intB,w,c
  6404  000202  A0D8               	btfss	status,0,c
  6405  000204  D00C               	goto	i2l867
  6406  000206                     i2u355_40:
  6407                           
  6408                           ;hardware.c: 262: {
  6409                           ;hardware.c: 263: intB = 1;
  6410  000206  0E00               	movlw	0
  6411  000208  6E55               	movwf	_intB+1,c
  6412  00020A  0E01               	movlw	1
  6413  00020C  6E54               	movwf	_intB,c
  6414                           
  6415                           ;hardware.c: 264: }
  6416                           ;hardware.c: 265: }
  6417  00020E  D007               	goto	i2l867
  6418  000210                     i2l865:
  6419                           
  6420                           ;hardware.c: 266: else
  6421                           ;hardware.c: 267: {
  6422                           ;hardware.c: 268: armB ^= 1;
  6423  000210  0E01               	movlw	1
  6424  000212  0100               	movlb	0	; () banked
  6425  000214  1B8D               	xorwf	_armB& (0+255),f,b
  6426                           
  6427                           ; BSR set to: 0
  6428                           ;hardware.c: 269: shiftAction = 1;
  6429  000216  0E00               	movlw	0
  6430  000218  6E51               	movwf	_shiftAction+1,c
  6431  00021A  0E01               	movlw	1
  6432  00021C  6E50               	movwf	_shiftAction,c
  6433  00021E                     i2l867:
  6434                           
  6435                           ;hardware.c: 270: }
  6436                           ;hardware.c: 271: }
  6437                           ;hardware.c: 272: }
  6438                           ;hardware.c: 274: if (switch3)
  6439                           
  6440                           ; BSR set to: 0
  6441                           
  6442                           ; BSR set to: 0
  6443                           
  6444                           ; BSR set to: 0
  6445  00021E  504A               	movf	_switch3,w,c
  6446  000220  104B               	iorwf	_switch3+1,w,c
  6447  000222  B4D8               	btfsc	status,2,c
  6448  000224  D020               	goto	i2l872
  6449                           
  6450                           ;hardware.c: 275: {
  6451                           ;hardware.c: 276: switch3 = 0;
  6452  000226  0E00               	movlw	0
  6453  000228  6E4B               	movwf	_switch3+1,c
  6454  00022A  0E00               	movlw	0
  6455  00022C  6E4A               	movwf	_switch3,c
  6456                           
  6457                           ;hardware.c: 277: if (!RE6)
  6458  00022E  BC84               	btfsc	3972,6,c	;volatile
  6459  000230  D01A               	goto	i2l872
  6460                           
  6461                           ;hardware.c: 278: {
  6462                           ;hardware.c: 279: if (!shift)
  6463  000232  503E               	movf	_shift,w,c
  6464  000234  103F               	iorwf	_shift+1,w,c
  6465  000236  A4D8               	btfss	status,2,c
  6466  000238  D00F               	goto	i2l870
  6467                           
  6468                           ;hardware.c: 280: {
  6469                           ;hardware.c: 281: intC++;
  6470  00023A  4A52               	infsnz	_intC,f,c
  6471  00023C  2A53               	incf	_intC+1,f,c
  6472                           
  6473                           ;hardware.c: 282: if (intC > 3)
  6474  00023E  BE53               	btfsc	_intC+1,7,c
  6475  000240  D012               	goto	i2l872
  6476  000242  5053               	movf	_intC+1,w,c
  6477  000244  E104               	bnz	i2u359_40
  6478  000246  0E04               	movlw	4
  6479  000248  5C52               	subwf	_intC,w,c
  6480  00024A  A0D8               	btfss	status,0,c
  6481  00024C  D00C               	goto	i2l872
  6482  00024E                     i2u359_40:
  6483                           
  6484                           ;hardware.c: 283: {
  6485                           ;hardware.c: 284: intC = 1;
  6486  00024E  0E00               	movlw	0
  6487  000250  6E53               	movwf	_intC+1,c
  6488  000252  0E01               	movlw	1
  6489  000254  6E52               	movwf	_intC,c
  6490                           
  6491                           ;hardware.c: 285: }
  6492                           ;hardware.c: 286: }
  6493  000256  D007               	goto	i2l872
  6494  000258                     i2l870:
  6495                           
  6496                           ;hardware.c: 287: else
  6497                           ;hardware.c: 288: {
  6498                           ;hardware.c: 289: armC ^= 1;
  6499  000258  0E01               	movlw	1
  6500  00025A  0100               	movlb	0	; () banked
  6501  00025C  1B8B               	xorwf	_armC& (0+255),f,b
  6502                           
  6503                           ; BSR set to: 0
  6504                           ;hardware.c: 290: shiftAction = 1;
  6505  00025E  0E00               	movlw	0
  6506  000260  6E51               	movwf	_shiftAction+1,c
  6507  000262  0E01               	movlw	1
  6508  000264  6E50               	movwf	_shiftAction,c
  6509  000266                     i2l872:
  6510                           
  6511                           ;hardware.c: 291: }
  6512                           ;hardware.c: 292: }
  6513                           ;hardware.c: 293: }
  6514                           ;hardware.c: 295: if (armA)
  6515                           
  6516                           ; BSR set to: 0
  6517                           
  6518                           ; BSR set to: 0
  6519                           
  6520                           ; BSR set to: 0
  6521  000266  0100               	movlb	0	; () banked
  6522  000268  518F               	movf	_armA& (0+255),w,b
  6523  00026A  0100               	movlb	0	; () banked
  6524  00026C  1190               	iorwf	(_armA+1)& (0+255),w,b
  6525  00026E  B4D8               	btfsc	status,2,c
  6526  000270  D005               	goto	i2l873
  6527                           
  6528                           ; BSR set to: 0
  6529                           ;hardware.c: 296: {
  6530                           ;hardware.c: 297: a = 0;
  6531  000272  0E00               	movlw	0
  6532  000274  6E21               	movwf	serviceSwitches@a+1,c
  6533  000276  0E00               	movlw	0
  6534  000278  6E20               	movwf	serviceSwitches@a,c
  6535                           
  6536                           ;hardware.c: 298: }
  6537  00027A  D004               	goto	i2l874
  6538  00027C                     i2l873:
  6539                           
  6540                           ; BSR set to: 0
  6541                           ;hardware.c: 299: else a = intA;
  6542  00027C  C056  F020         	movff	_intA,serviceSwitches@a
  6543  000280  C057  F021         	movff	_intA+1,serviceSwitches@a+1
  6544  000284                     i2l874:
  6545                           
  6546                           ; BSR set to: 0
  6547                           ;hardware.c: 300: if (armB)
  6548                           
  6549                           ; BSR set to: 0
  6550  000284  0100               	movlb	0	; () banked
  6551  000286  518D               	movf	_armB& (0+255),w,b
  6552  000288  0100               	movlb	0	; () banked
  6553  00028A  118E               	iorwf	(_armB+1)& (0+255),w,b
  6554  00028C  B4D8               	btfsc	status,2,c
  6555  00028E  D005               	goto	i2l875
  6556                           
  6557                           ; BSR set to: 0
  6558                           ;hardware.c: 301: {
  6559                           ;hardware.c: 302: b = 0;
  6560  000290  0E00               	movlw	0
  6561  000292  6E23               	movwf	serviceSwitches@b+1,c
  6562  000294  0E00               	movlw	0
  6563  000296  6E22               	movwf	serviceSwitches@b,c
  6564                           
  6565                           ;hardware.c: 303: }
  6566  000298  D004               	goto	i2l876
  6567  00029A                     i2l875:
  6568                           
  6569                           ; BSR set to: 0
  6570                           ;hardware.c: 304: else b = intB;
  6571  00029A  C054  F022         	movff	_intB,serviceSwitches@b
  6572  00029E  C055  F023         	movff	_intB+1,serviceSwitches@b+1
  6573  0002A2                     i2l876:
  6574                           
  6575                           ; BSR set to: 0
  6576                           ;hardware.c: 305: if (armC)
  6577                           
  6578                           ; BSR set to: 0
  6579  0002A2  0100               	movlb	0	; () banked
  6580  0002A4  518B               	movf	_armC& (0+255),w,b
  6581  0002A6  0100               	movlb	0	; () banked
  6582  0002A8  118C               	iorwf	(_armC+1)& (0+255),w,b
  6583  0002AA  B4D8               	btfsc	status,2,c
  6584  0002AC  D005               	goto	i2l877
  6585                           
  6586                           ; BSR set to: 0
  6587                           ;hardware.c: 306: {
  6588                           ;hardware.c: 307: c = 0;
  6589  0002AE  0E00               	movlw	0
  6590  0002B0  6E25               	movwf	serviceSwitches@c+1,c
  6591  0002B2  0E00               	movlw	0
  6592  0002B4  6E24               	movwf	serviceSwitches@c,c
  6593                           
  6594                           ;hardware.c: 308: }
  6595  0002B6  D004               	goto	i2l878
  6596  0002B8                     i2l877:
  6597                           
  6598                           ; BSR set to: 0
  6599                           ;hardware.c: 309: else c = intC;
  6600  0002B8  C052  F024         	movff	_intC,serviceSwitches@c
  6601  0002BC  C053  F025         	movff	_intC+1,serviceSwitches@c+1
  6602  0002C0                     i2l878:
  6603                           
  6604                           ; BSR set to: 0
  6605                           ;hardware.c: 311: updateLineLEDs(a, b, c);
  6606                           
  6607                           ; BSR set to: 0
  6608  0002C0  C020  F001         	movff	serviceSwitches@a,updateLineLEDs@lineA
  6609  0002C4  C021  F002         	movff	serviceSwitches@a+1,updateLineLEDs@lineA+1
  6610  0002C8  C022  F003         	movff	serviceSwitches@b,updateLineLEDs@lineB
  6611  0002CC  C023  F004         	movff	serviceSwitches@b+1,updateLineLEDs@lineB+1
  6612  0002D0  C024  F005         	movff	serviceSwitches@c,updateLineLEDs@lineC
  6613  0002D4  C025  F006         	movff	serviceSwitches@c+1,updateLineLEDs@lineC+1
  6614  0002D8  ECFB  F00A         	call	_updateLineLEDs	;wreg free
  6615                           
  6616                           ;hardware.c: 313: if (switch4)
  6617  0002DC  5048               	movf	_switch4,w,c
  6618  0002DE  1049               	iorwf	_switch4+1,w,c
  6619  0002E0  B4D8               	btfsc	status,2,c
  6620  0002E2  D04C               	goto	i2l888
  6621                           
  6622                           ;hardware.c: 314: {
  6623                           ;hardware.c: 315: switch4 = 0;
  6624  0002E4  0E00               	movlw	0
  6625  0002E6  6E49               	movwf	_switch4+1,c
  6626  0002E8  0E00               	movlw	0
  6627  0002EA  6E48               	movwf	_switch4,c
  6628                           
  6629                           ;hardware.c: 316: if (!RD1)
  6630  0002EC  B283               	btfsc	3971,1,c	;volatile
  6631  0002EE  D046               	goto	i2l888
  6632                           
  6633                           ;hardware.c: 317: {
  6634                           ;hardware.c: 318: if (!shift)
  6635  0002F0  503E               	movf	_shift,w,c
  6636  0002F2  103F               	iorwf	_shift+1,w,c
  6637  0002F4  A4D8               	btfss	status,2,c
  6638  0002F6  D01A               	goto	i2l881
  6639                           
  6640                           ;hardware.c: 319: {
  6641                           ;hardware.c: 320: preset++;
  6642  0002F8  0100               	movlb	0	; () banked
  6643  0002FA  4BA1               	infsnz	_preset& (0+255),f,b
  6644  0002FC  2BA2               	incf	(_preset+1)& (0+255),f,b
  6645                           
  6646                           ; BSR set to: 0
  6647                           ;hardware.c: 321: if (preset >= 6)
  6648  0002FE  0100               	movlb	0	; () banked
  6649  000300  BFA2               	btfsc	(_preset+1)& (0+255),7,b
  6650  000302  D00D               	goto	i2l882
  6651  000304  0100               	movlb	0	; () banked
  6652  000306  51A2               	movf	(_preset+1)& (0+255),w,b
  6653  000308  E105               	bnz	i2u366_40
  6654  00030A  0E06               	movlw	6
  6655  00030C  0100               	movlb	0	; () banked
  6656  00030E  5DA1               	subwf	_preset& (0+255),w,b
  6657  000310  A0D8               	btfss	status,0,c
  6658  000312  D005               	goto	i2l882
  6659  000314                     i2u366_40:
  6660                           
  6661                           ; BSR set to: 0
  6662                           ;hardware.c: 322: {
  6663                           ;hardware.c: 323: preset = 0;
  6664  000314  0E00               	movlw	0
  6665  000316  0100               	movlb	0	; () banked
  6666  000318  6FA2               	movwf	(_preset+1)& (0+255),b
  6667  00031A  0E00               	movlw	0
  6668  00031C  6FA1               	movwf	_preset& (0+255),b
  6669  00031E                     i2l882:
  6670                           
  6671                           ; BSR set to: 0
  6672                           ;hardware.c: 324: }
  6673                           ;hardware.c: 325: updatePresetLEDs(preset);
  6674                           
  6675                           ; BSR set to: 0
  6676  00031E  C0A1  F001         	movff	_preset,updatePresetLEDs@psNum
  6677  000322  C0A2  F002         	movff	_preset+1,updatePresetLEDs@psNum+1
  6678  000326  EC0E  F00C         	call	_updatePresetLEDs	;wreg free
  6679                           
  6680                           ;hardware.c: 326: }
  6681  00032A  D028               	goto	i2l888
  6682  00032C                     i2l881:
  6683                           
  6684                           ;hardware.c: 327: else
  6685                           ;hardware.c: 328: {
  6686                           ;hardware.c: 329: if (!presetPend)
  6687  00032C  5042               	movf	_presetPend,w,c
  6688  00032E  1043               	iorwf	_presetPend+1,w,c
  6689  000330  A4D8               	btfss	status,2,c
  6690  000332  D016               	goto	i2l884
  6691                           
  6692                           ;hardware.c: 330: {
  6693                           ;hardware.c: 332: targPreset = preset;
  6694  000334  C0A1  F044         	movff	_preset,_targPreset
  6695  000338  C0A2  F045         	movff	_preset+1,_targPreset+1
  6696                           
  6697                           ;hardware.c: 333: if (!targPreset)
  6698  00033C  5044               	movf	_targPreset,w,c
  6699  00033E  1045               	iorwf	_targPreset+1,w,c
  6700  000340  A4D8               	btfss	status,2,c
  6701  000342  D004               	goto	i2l885
  6702                           
  6703                           ;hardware.c: 334: {
  6704                           ;hardware.c: 335: targPreset = 1;
  6705  000344  0E00               	movlw	0
  6706  000346  6E45               	movwf	_targPreset+1,c
  6707  000348  0E01               	movlw	1
  6708  00034A  6E44               	movwf	_targPreset,c
  6709  00034C                     i2l885:
  6710                           
  6711                           ;hardware.c: 336: }
  6712                           ;hardware.c: 337: presetPend = 1;
  6713  00034C  0E00               	movlw	0
  6714  00034E  6E43               	movwf	_presetPend+1,c
  6715  000350  0E01               	movlw	1
  6716  000352  6E42               	movwf	_presetPend,c
  6717                           
  6718                           ;hardware.c: 338: if (targPreset > 1)
  6719  000354  BE45               	btfsc	_targPreset+1,7,c
  6720  000356  D012               	goto	i2l888
  6721  000358  5045               	movf	_targPreset+1,w,c
  6722  00035A  E10C               	bnz	i2u370_40
  6723  00035C  0E02               	movlw	2
  6724  00035E  D007               	goto	L7
  6725  000360                     i2l884:
  6726                           
  6727                           ;hardware.c: 343: else
  6728                           ;hardware.c: 344: {
  6729                           ;hardware.c: 345: targPreset++;
  6730  000360  4A44               	infsnz	_targPreset,f,c
  6731  000362  2A45               	incf	_targPreset+1,f,c
  6732                           
  6733                           ;hardware.c: 346: if (targPreset > 5)
  6734  000364  BE45               	btfsc	_targPreset+1,7,c
  6735  000366  D00A               	goto	i2l888
  6736  000368  5045               	movf	_targPreset+1,w,c
  6737  00036A  E104               	bnz	i2u370_40
  6738  00036C  0E06               	movlw	6
  6739  00036E                     L7:
  6740  00036E  5C44               	subwf	_targPreset,w,c
  6741  000370  A0D8               	btfss	status,0,c
  6742  000372  D004               	goto	i2l888
  6743  000374                     i2u370_40:
  6744                           
  6745                           ;hardware.c: 347: {
  6746                           ;hardware.c: 348: targPreset = 1;
  6747  000374  0E00               	movlw	0
  6748  000376  6E45               	movwf	_targPreset+1,c
  6749  000378  0E01               	movlw	1
  6750  00037A  6E44               	movwf	_targPreset,c
  6751  00037C                     i2l888:
  6752                           
  6753                           ;hardware.c: 349: }
  6754                           ;hardware.c: 350: }
  6755                           ;hardware.c: 351: }
  6756                           ;hardware.c: 352: }
  6757                           ;hardware.c: 353: }
  6758                           ;hardware.c: 355: if (switch5)
  6759  00037C  0100               	movlb	0	; () banked
  6760  00037E  51AB               	movf	_switch5& (0+255),w,b
  6761  000380  0100               	movlb	0	; () banked
  6762  000382  11AC               	iorwf	(_switch5+1)& (0+255),w,b
  6763  000384  B4D8               	btfsc	status,2,c
  6764  000386  0012               	return	
  6765                           
  6766                           ; BSR set to: 0
  6767                           ;hardware.c: 356: {
  6768                           ;hardware.c: 357: switch5 = 0;
  6769  000388  0E00               	movlw	0
  6770  00038A  0100               	movlb	0	; () banked
  6771  00038C  6FAC               	movwf	(_switch5+1)& (0+255),b
  6772  00038E  0E00               	movlw	0
  6773  000390  6FAB               	movwf	_switch5& (0+255),b
  6774                           
  6775                           ; BSR set to: 0
  6776                           ;hardware.c: 358: if (!shift)
  6777  000392  503E               	movf	_shift,w,c
  6778  000394  103F               	iorwf	_shift+1,w,c
  6779  000396  A4D8               	btfss	status,2,c
  6780  000398  D00B               	goto	i2l890
  6781                           
  6782                           ; BSR set to: 0
  6783                           ;hardware.c: 359: {
  6784                           ;hardware.c: 360: if (!RG3)
  6785  00039A  B686               	btfsc	3974,3,c	;volatile
  6786  00039C  0012               	return	
  6787                           
  6788                           ; BSR set to: 0
  6789                           ;hardware.c: 361: {
  6790                           ;hardware.c: 362: shift = 1;
  6791  00039E  0E00               	movlw	0
  6792  0003A0  6E3F               	movwf	_shift+1,c
  6793  0003A2  0E01               	movlw	1
  6794  0003A4  6E3E               	movwf	_shift,c
  6795                           
  6796                           ; BSR set to: 0
  6797                           ;hardware.c: 364: IOCNbits.IOCN7 = 0x0;
  6798  0003A6  010F               	movlb	15	; () banked
  6799  0003A8  9F55               	bcf	85,7,b	;volatile
  6800                           
  6801                           ; BSR set to: 15
  6802                           ;hardware.c: 365: IOCPbits.IOCP7 = 0x1;
  6803  0003AA  010F               	movlb	15	; () banked
  6804  0003AC  8F56               	bsf	86,7,b	;volatile
  6805                           
  6806                           ; BSR set to: 15
  6807                           ;hardware.c: 366: }
  6808                           ;hardware.c: 367: }
  6809  0003AE  0012               	return	
  6810  0003B0                     i2l890:
  6811                           
  6812                           ; BSR set to: 0
  6813                           ;hardware.c: 368: else
  6814                           ;hardware.c: 369: {
  6815                           ;hardware.c: 370: if (RG3)
  6816  0003B0  A686               	btfss	3974,3,c	;volatile
  6817  0003B2  0012               	return	
  6818                           
  6819                           ; BSR set to: 0
  6820                           ;hardware.c: 371: {
  6821                           ;hardware.c: 372: shift = 0;
  6822  0003B4  0E00               	movlw	0
  6823  0003B6  6E3F               	movwf	_shift+1,c
  6824  0003B8  0E00               	movlw	0
  6825  0003BA  6E3E               	movwf	_shift,c
  6826                           
  6827                           ; BSR set to: 0
  6828                           ;hardware.c: 374: IOCNbits.IOCN7 = 0x1;
  6829  0003BC  010F               	movlb	15	; () banked
  6830  0003BE  8F55               	bsf	85,7,b	;volatile
  6831                           
  6832                           ; BSR set to: 15
  6833                           ;hardware.c: 375: IOCPbits.IOCP7 = 0x0;
  6834  0003C0  010F               	movlb	15	; () banked
  6835  0003C2  9F56               	bcf	86,7,b	;volatile
  6836                           
  6837                           ; BSR set to: 15
  6838                           ;hardware.c: 377: if (!shiftAction)
  6839  0003C4  5050               	movf	_shiftAction,w,c
  6840  0003C6  1051               	iorwf	_shiftAction+1,w,c
  6841  0003C8  A4D8               	btfss	status,2,c
  6842  0003CA  D010               	goto	i2l894
  6843                           
  6844                           ; BSR set to: 15
  6845                           ;hardware.c: 378: {
  6846                           ;hardware.c: 379: swX ^= 1;
  6847  0003CC  0E01               	movlw	1
  6848  0003CE  1A5C               	xorwf	_swX,f,c
  6849                           
  6850                           ; BSR set to: 15
  6851                           ;hardware.c: 380: bypMode = swX;
  6852  0003D0  C05C  F0F2         	movff	_swX,_bypMode
  6853  0003D4  C05D  F0F3         	movff	_swX+1,_bypMode+1
  6854                           
  6855                           ;hardware.c: 381: if (swX)
  6856  0003D8  505C               	movf	_swX,w,c
  6857  0003DA  105D               	iorwf	_swX+1,w,c
  6858  0003DC  B4D8               	btfsc	status,2,c
  6859  0003DE  D003               	goto	i2l895
  6860                           
  6861                           ; BSR set to: 15
  6862                           ;hardware.c: 382: {
  6863                           ;hardware.c: 383: LATE1 = 1;
  6864  0003E0  828D               	bsf	3981,1,c	;volatile
  6865                           
  6866                           ;hardware.c: 384: LATH1 = 0;
  6867  0003E2  9290               	bcf	3984,1,c	;volatile
  6868                           
  6869                           ;hardware.c: 385: }
  6870  0003E4  0012               	return	
  6871  0003E6                     i2l895:
  6872                           
  6873                           ; BSR set to: 15
  6874                           ;hardware.c: 386: else
  6875                           ;hardware.c: 387: {
  6876                           ;hardware.c: 388: LATE1 = 0;
  6877  0003E6  928D               	bcf	3981,1,c	;volatile
  6878                           
  6879                           ;hardware.c: 389: LATH1 = 1;
  6880  0003E8  8290               	bsf	3984,1,c	;volatile
  6881                           
  6882                           ; BSR set to: 15
  6883                           ;hardware.c: 390: }
  6884                           ;hardware.c: 391: }
  6885  0003EA  0012               	return	
  6886  0003EC                     i2l894:
  6887                           
  6888                           ; BSR set to: 15
  6889                           ;hardware.c: 392: else
  6890                           ;hardware.c: 393: {
  6891                           ;hardware.c: 394: presetPend = 0;
  6892                           
  6893                           ; BSR set to: 15
  6894  0003EC  0E00               	movlw	0
  6895  0003EE  6E43               	movwf	_presetPend+1,c
  6896  0003F0  0E00               	movlw	0
  6897  0003F2  6E42               	movwf	_presetPend,c
  6898                           
  6899                           ;hardware.c: 395: shiftAction = 0;
  6900  0003F4  0E00               	movlw	0
  6901  0003F6  6E51               	movwf	_shiftAction+1,c
  6902  0003F8  0E00               	movlw	0
  6903  0003FA  6E50               	movwf	_shiftAction,c
  6904                           
  6905                           ; BSR set to: 15
  6906                           ;hardware.c: 396: preset = targPreset;
  6907  0003FC  C044  F0A1         	movff	_targPreset,_preset
  6908  000400  C045  F0A2         	movff	_targPreset+1,_preset+1
  6909                           
  6910                           ;hardware.c: 397: pFlash = 0;
  6911  000404  0E00               	movlw	0
  6912  000406  0100               	movlb	0	; () banked
  6913  000408  6F9A               	movwf	(_pFlash+1)& (0+255),b
  6914  00040A  0E00               	movlw	0
  6915  00040C  6F99               	movwf	_pFlash& (0+255),b
  6916                           
  6917                           ;hardware.c: 398: pFlashCount = 0;
  6918  00040E  0E00               	movlw	0
  6919  000410  0100               	movlb	0	; () banked
  6920  000412  6F9C               	movwf	(_pFlashCount+1)& (0+255),b
  6921  000414  0E00               	movlw	0
  6922  000416  6F9B               	movwf	_pFlashCount& (0+255),b
  6923                           
  6924                           ;hardware.c: 399: savePend = 1;
  6925  000418  0E00               	movlw	0
  6926  00041A  0100               	movlb	0	; () banked
  6927  00041C  6FA0               	movwf	(_savePend+1)& (0+255),b
  6928  00041E  0E01               	movlw	1
  6929  000420  6F9F               	movwf	_savePend& (0+255),b
  6930                           
  6931                           ; BSR set to: 0
  6932                           ;hardware.c: 400: updatePresetLEDs(preset);
  6933  000422  C0A1  F001         	movff	_preset,updatePresetLEDs@psNum
  6934  000426  C0A2  F002         	movff	_preset+1,updatePresetLEDs@psNum+1
  6935  00042A  EC0E  F00C         	call	_updatePresetLEDs	;wreg free
  6936  00042E  0012               	return	
  6937  000430                     __end_of_serviceSwitches:
  6938                           	opt stack 0
  6939                           pclatu	equ	0xFFB
  6940                           pclath	equ	0xFFA
  6941                           tblptru	equ	0xFF8
  6942                           tblptrh	equ	0xFF7
  6943                           tblptrl	equ	0xFF6
  6944                           tablat	equ	0xFF5
  6945                           prodh	equ	0xFF4
  6946                           prodl	equ	0xFF3
  6947                           intcon	equ	0xFF2
  6948                           postinc0	equ	0xFEE
  6949                           fsr0h	equ	0xFEA
  6950                           fsr0l	equ	0xFE9
  6951                           wreg	equ	0xFE8
  6952                           postinc1	equ	0xFE6
  6953                           postdec1	equ	0xFE5
  6954                           fsr1h	equ	0xFE2
  6955                           fsr1l	equ	0xFE1
  6956                           indf2	equ	0xFDF
  6957                           postinc2	equ	0xFDE
  6958                           postdec2	equ	0xFDD
  6959                           fsr2h	equ	0xFDA
  6960                           fsr2l	equ	0xFD9
  6961                           status	equ	0xFD8
  6962                           
  6963 ;; *************** function _updateLineLEDs *****************
  6964 ;; Defined at:
  6965 ;;		line 546 in file "hardware.c"
  6966 ;; Parameters:    Size  Location     Type
  6967 ;;  lineA           2    0[COMRAM] int 
  6968 ;;  lineB           2    2[COMRAM] int 
  6969 ;;  lineC           2    4[COMRAM] int 
  6970 ;; Auto vars:     Size  Location     Type
  6971 ;;		None
  6972 ;; Return value:  Size  Location     Type
  6973 ;;                  1    wreg      void 
  6974 ;; Registers used:
  6975 ;;		wreg, status,2, status,0
  6976 ;; Tracked objects:
  6977 ;;		On entry : 0/0
  6978 ;;		On exit  : 0/0
  6979 ;;		Unchanged: 0/0
  6980 ;; Data sizes:     COMRAM   BANK0   BANK1   BANK2   BANK3   BANK4   BANK5   BANK6   BANK7   BANK8   BANK9  BANK10  BANK1
      +1  BANK12  BANK13
  6981 ;;      Params:         6       0       0       0       0       0       0       0       0       0       0       0       
      +0       0       0
  6982 ;;      Locals:         0       0       0       0       0       0       0       0       0       0       0       0       
      +0       0       0
  6983 ;;      Temps:          0       0       0       0       0       0       0       0       0       0       0       0       
      +0       0       0
  6984 ;;      Totals:         6       0       0       0       0       0       0       0       0       0       0       0       
      +0       0       0
  6985 ;;Total ram usage:        6 bytes
  6986 ;; Hardware stack levels used:    1
  6987 ;; This function calls:
  6988 ;;		Nothing
  6989 ;; This function is called by:
  6990 ;;		_serviceSwitches
  6991 ;; This function uses a non-reentrant model
  6992 ;;
  6993                           
  6994                           	psect	text31
  6995  0015F6                     __ptext31:
  6996                           	opt stack 0
  6997  0015F6                     _updateLineLEDs:
  6998                           	opt stack 25
  6999                           
  7000                           ;hardware.c: 548: if (lineA == 1)
  7001                           
  7002                           ;incstack = 0
  7003  0015F6  0401               	decf	updateLineLEDs@lineA,w,c
  7004  0015F8  1002               	iorwf	updateLineLEDs@lineA+1,w,c
  7005  0015FA  A4D8               	btfss	status,2,c
  7006  0015FC  D002               	goto	i2l937
  7007                           
  7008                           ;hardware.c: 549: {
  7009                           ;hardware.c: 550: LATH7 = 1;
  7010  0015FE  8E90               	bsf	3984,7,c	;volatile
  7011  001600  D010               	goto	L1
  7012  001602                     i2l937:
  7013                           
  7014                           ;hardware.c: 553: else if (lineA == 2)
  7015  001602  0E02               	movlw	2
  7016  001604  1801               	xorwf	updateLineLEDs@lineA,w,c
  7017  001606  1002               	iorwf	updateLineLEDs@lineA+1,w,c
  7018  001608  A4D8               	btfss	status,2,c
  7019  00160A  D002               	goto	i2l939
  7020                           
  7021                           ;hardware.c: 554: {
  7022                           ;hardware.c: 555: LATH7 = 0;
  7023  00160C  9E90               	bcf	3984,7,c	;volatile
  7024  00160E  D006               	goto	L2
  7025  001610                     i2l939:
  7026                           
  7027                           ;hardware.c: 558: else if (lineA == 3)
  7028  001610  0E03               	movlw	3
  7029  001612  1801               	xorwf	updateLineLEDs@lineA,w,c
  7030  001614  1002               	iorwf	updateLineLEDs@lineA+1,w,c
  7031  001616  A4D8               	btfss	status,2,c
  7032  001618  D003               	goto	i2l941
  7033                           
  7034                           ;hardware.c: 559: {
  7035                           ;hardware.c: 560: LATH7 = 1;
  7036  00161A  8E90               	bsf	3984,7,c	;volatile
  7037  00161C                     L2:
  7038                           
  7039                           ;hardware.c: 561: LATF2 = 1;
  7040  00161C  848E               	bsf	3982,2,c	;volatile
  7041                           
  7042                           ;hardware.c: 562: }
  7043  00161E  D002               	goto	i2l942
  7044  001620                     i2l941:
  7045                           
  7046                           ;hardware.c: 563: else
  7047                           ;hardware.c: 564: {
  7048                           ;hardware.c: 565: LATH7 = 0;
  7049  001620  9E90               	bcf	3984,7,c	;volatile
  7050  001622                     L1:
  7051                           
  7052                           ;hardware.c: 566: LATF2 = 0;
  7053  001622  948E               	bcf	3982,2,c	;volatile
  7054  001624                     i2l942:
  7055                           
  7056                           ;hardware.c: 567: }
  7057                           ;hardware.c: 569: if (lineB == 1)
  7058  001624  0403               	decf	updateLineLEDs@lineB,w,c
  7059  001626  1004               	iorwf	updateLineLEDs@lineB+1,w,c
  7060  001628  A4D8               	btfss	status,2,c
  7061  00162A  D002               	goto	i2l943
  7062                           
  7063                           ;hardware.c: 570: {
  7064                           ;hardware.c: 571: LATF5 = 1;
  7065  00162C  8A8E               	bsf	3982,5,c	;volatile
  7066  00162E  D010               	goto	L3
  7067  001630                     i2l943:
  7068                           
  7069                           ;hardware.c: 574: else if (lineB == 2)
  7070  001630  0E02               	movlw	2
  7071  001632  1803               	xorwf	updateLineLEDs@lineB,w,c
  7072  001634  1004               	iorwf	updateLineLEDs@lineB+1,w,c
  7073  001636  A4D8               	btfss	status,2,c
  7074  001638  D002               	goto	i2l945
  7075                           
  7076                           ;hardware.c: 575: {
  7077                           ;hardware.c: 576: LATF5 = 0;
  7078  00163A  9A8E               	bcf	3982,5,c	;volatile
  7079  00163C  D006               	goto	L4
  7080  00163E                     i2l945:
  7081                           
  7082                           ;hardware.c: 579: else if (lineB == 3)
  7083  00163E  0E03               	movlw	3
  7084  001640  1803               	xorwf	updateLineLEDs@lineB,w,c
  7085  001642  1004               	iorwf	updateLineLEDs@lineB+1,w,c
  7086  001644  A4D8               	btfss	status,2,c
  7087  001646  D003               	goto	i2l947
  7088                           
  7089                           ;hardware.c: 580: {
  7090                           ;hardware.c: 581: LATF5 = 1;
  7091  001648  8A8E               	bsf	3982,5,c	;volatile
  7092  00164A                     L4:
  7093                           
  7094                           ;hardware.c: 582: LATF6 = 1;
  7095  00164A  8C8E               	bsf	3982,6,c	;volatile
  7096                           
  7097                           ;hardware.c: 583: }
  7098  00164C  D002               	goto	i2l948
  7099  00164E                     i2l947:
  7100                           
  7101                           ;hardware.c: 584: else
  7102                           ;hardware.c: 585: {
  7103                           ;hardware.c: 586: LATF5 = 0;
  7104  00164E  9A8E               	bcf	3982,5,c	;volatile
  7105  001650                     L3:
  7106                           
  7107                           ;hardware.c: 587: LATF6 = 0;
  7108  001650  9C8E               	bcf	3982,6,c	;volatile
  7109  001652                     i2l948:
  7110                           
  7111                           ;hardware.c: 588: }
  7112                           ;hardware.c: 590: if (lineC == 1)
  7113  001652  0405               	decf	updateLineLEDs@lineC,w,c
  7114  001654  1006               	iorwf	updateLineLEDs@lineC+1,w,c
  7115  001656  A4D8               	btfss	status,2,c
  7116  001658  D003               	goto	i2l949
  7117                           
  7118                           ;hardware.c: 591: {
  7119                           ;hardware.c: 592: LATG4 = 1;
  7120  00165A  888F               	bsf	3983,4,c	;volatile
  7121                           
  7122                           ;hardware.c: 593: LATH0 = 0;
  7123  00165C  9090               	bcf	3984,0,c	;volatile
  7124                           
  7125                           ;hardware.c: 594: }
  7126  00165E  0012               	return	
  7127  001660                     i2l949:
  7128                           
  7129                           ;hardware.c: 595: else if (lineC == 2)
  7130  001660  0E02               	movlw	2
  7131  001662  1805               	xorwf	updateLineLEDs@lineC,w,c
  7132  001664  1006               	iorwf	updateLineLEDs@lineC+1,w,c
  7133  001666  A4D8               	btfss	status,2,c
  7134  001668  D003               	goto	i2l951
  7135                           
  7136                           ;hardware.c: 596: {
  7137                           ;hardware.c: 597: LATG4 = 0;
  7138  00166A  988F               	bcf	3983,4,c	;volatile
  7139                           
  7140                           ;hardware.c: 598: LATH0 = 1;
  7141  00166C  8090               	bsf	3984,0,c	;volatile
  7142                           
  7143                           ;hardware.c: 599: }
  7144  00166E  0012               	return	
  7145  001670                     i2l951:
  7146                           
  7147                           ;hardware.c: 600: else if (lineC == 3)
  7148  001670  0E03               	movlw	3
  7149  001672  1805               	xorwf	updateLineLEDs@lineC,w,c
  7150  001674  1006               	iorwf	updateLineLEDs@lineC+1,w,c
  7151  001676  A4D8               	btfss	status,2,c
  7152  001678  D003               	goto	i2l953
  7153                           
  7154                           ;hardware.c: 601: {
  7155                           ;hardware.c: 602: LATG4 = 1;
  7156  00167A  888F               	bsf	3983,4,c	;volatile
  7157                           
  7158                           ;hardware.c: 603: LATH0 = 1;
  7159  00167C  8090               	bsf	3984,0,c	;volatile
  7160                           
  7161                           ;hardware.c: 604: }
  7162  00167E  0012               	return	
  7163  001680                     i2l953:
  7164                           
  7165                           ;hardware.c: 605: else
  7166                           ;hardware.c: 606: {
  7167                           ;hardware.c: 607: LATG4 = 0;
  7168  001680  988F               	bcf	3983,4,c	;volatile
  7169                           
  7170                           ;hardware.c: 608: LATH0 = 0;
  7171  001682  9090               	bcf	3984,0,c	;volatile
  7172  001684  0012               	return	
  7173  001686                     __end_of_updateLineLEDs:
  7174                           	opt stack 0
  7175                           pclatu	equ	0xFFB
  7176                           pclath	equ	0xFFA
  7177                           tblptru	equ	0xFF8
  7178                           tblptrh	equ	0xFF7
  7179                           tblptrl	equ	0xFF6
  7180                           tablat	equ	0xFF5
  7181                           prodh	equ	0xFF4
  7182                           prodl	equ	0xFF3
  7183                           intcon	equ	0xFF2
  7184                           postinc0	equ	0xFEE
  7185                           fsr0h	equ	0xFEA
  7186                           fsr0l	equ	0xFE9
  7187                           wreg	equ	0xFE8
  7188                           postinc1	equ	0xFE6
  7189                           postdec1	equ	0xFE5
  7190                           fsr1h	equ	0xFE2
  7191                           fsr1l	equ	0xFE1
  7192                           indf2	equ	0xFDF
  7193                           postinc2	equ	0xFDE
  7194                           postdec2	equ	0xFDD
  7195                           fsr2h	equ	0xFDA
  7196                           fsr2l	equ	0xFD9
  7197                           status	equ	0xFD8
  7198                           
  7199 ;; *************** function _processTaps *****************
  7200 ;; Defined at:
  7201 ;;		line 30 in file "hardware.c"
  7202 ;; Parameters:    Size  Location     Type
  7203 ;;		None
  7204 ;; Auto vars:     Size  Location     Type
  7205 ;;  tapDiff         2   29[COMRAM] int 
  7206 ;; Return value:  Size  Location     Type
  7207 ;;                  1    wreg      void 
  7208 ;; Registers used:
  7209 ;;		wreg, status,2, status,0, cstack
  7210 ;; Tracked objects:
  7211 ;;		On entry : 0/0
  7212 ;;		On exit  : 0/0
  7213 ;;		Unchanged: 0/0
  7214 ;; Data sizes:     COMRAM   BANK0   BANK1   BANK2   BANK3   BANK4   BANK5   BANK6   BANK7   BANK8   BANK9  BANK10  BANK1
      +1  BANK12  BANK13
  7215 ;;      Params:         0       0       0       0       0       0       0       0       0       0       0       0       
      +0       0       0
  7216 ;;      Locals:         2       0       0       0       0       0       0       0       0       0       0       0       
      +0       0       0
  7217 ;;      Temps:          2       0       0       0       0       0       0       0       0       0       0       0       
      +0       0       0
  7218 ;;      Totals:         4       0       0       0       0       0       0       0       0       0       0       0       
      +0       0       0
  7219 ;;Total ram usage:        4 bytes
  7220 ;; Hardware stack levels used:    1
  7221 ;; Hardware stack levels required when called:    2
  7222 ;; This function calls:
  7223 ;;		___awdiv
  7224 ;;		___awtoft
  7225 ;;		___ftmul
  7226 ;;		_maxTapCheck
  7227 ;;		i2_absVal
  7228 ;; This function is called by:
  7229 ;;		_serviceSwitches
  7230 ;; This function uses a non-reentrant model
  7231 ;;
  7232                           
  7233                           	psect	text32
  7234  000C56                     __ptext32:
  7235                           	opt stack 0
  7236  000C56                     _processTaps:
  7237                           	opt stack 23
  7238                           
  7239                           ;hardware.c: 32: int tapDiff = 0;
  7240                           
  7241                           ;incstack = 0
  7242  000C56  0E00               	movlw	0
  7243  000C58  6E1F               	movwf	processTaps@tapDiff+1,c
  7244  000C5A  0E00               	movlw	0
  7245  000C5C  6E1E               	movwf	processTaps@tapDiff,c
  7246                           
  7247                           ;hardware.c: 34: if (tap < 1)
  7248  000C5E  BE39               	btfsc	_tap+1,7,c
  7249  000C60  D005               	goto	i2u296_40
  7250  000C62  5039               	movf	_tap+1,w,c
  7251  000C64  E114               	bnz	i2l816
  7252  000C66  0438               	decf	_tap,w,c
  7253  000C68  B0D8               	btfsc	status,0,c
  7254  000C6A  D011               	goto	i2l816
  7255  000C6C                     i2u296_40:
  7256                           
  7257                           ;hardware.c: 35: {
  7258                           ;hardware.c: 36: T2CONbits.TMR2ON = 0x1;
  7259  000C6C  84CA               	bsf	4042,2,c	;volatile
  7260                           
  7261                           ;hardware.c: 37: tapAccum = 0;
  7262  000C6E  0E00               	movlw	0
  7263  000C70  0100               	movlb	0	; () banked
  7264  000C72  6F60               	movwf	_tapAccum& (0+255),b
  7265  000C74  0E00               	movlw	0
  7266  000C76  6F61               	movwf	(_tapAccum+1)& (0+255),b
  7267  000C78  0E00               	movlw	0
  7268  000C7A  6F62               	movwf	(_tapAccum+2)& (0+255),b
  7269  000C7C  0E00               	movlw	0
  7270  000C7E  6F63               	movwf	(_tapAccum+3)& (0+255),b
  7271                           
  7272                           ;hardware.c: 38: tapPrev = 0;
  7273  000C80  0E00               	movlw	0
  7274  000C82  6E3B               	movwf	_tapPrev+1,c
  7275  000C84  0E00               	movlw	0
  7276  000C86  6E3A               	movwf	_tapPrev,c
  7277                           
  7278                           ; BSR set to: 0
  7279                           ;hardware.c: 39: tap++;
  7280  000C88  4A38               	infsnz	_tap,f,c
  7281  000C8A  2A39               	incf	_tap+1,f,c
  7282                           
  7283                           ;hardware.c: 40: }
  7284  000C8C  D076               	goto	i2l817
  7285  000C8E                     i2l816:
  7286                           
  7287                           ;hardware.c: 41: else
  7288                           ;hardware.c: 42: {
  7289                           ;hardware.c: 43: T2CONbits.TMR2ON = 0;
  7290  000C8E  94CA               	bcf	4042,2,c	;volatile
  7291                           
  7292                           ;hardware.c: 44: tapFlash = 1;
  7293  000C90  0E00               	movlw	0
  7294  000C92  0100               	movlb	0	; () banked
  7295  000C94  6F98               	movwf	(_tapFlash+1)& (0+255),b
  7296  000C96  0E01               	movlw	1
  7297  000C98  6F97               	movwf	_tapFlash& (0+255),b
  7298                           
  7299                           ;hardware.c: 45: tapDispCount = 0;
  7300  000C9A  0E00               	movlw	0
  7301  000C9C  6E41               	movwf	_tapDispCount+1,c
  7302  000C9E  0E00               	movlw	0
  7303  000CA0  6E40               	movwf	_tapDispCount,c
  7304                           
  7305                           ; BSR set to: 0
  7306                           ;hardware.c: 46: LATE0 = 0x1;
  7307  000CA2  808D               	bsf	3981,0,c	;volatile
  7308                           
  7309                           ; BSR set to: 0
  7310                           ;hardware.c: 48: if (tap < 2)
  7311  000CA4  BE39               	btfsc	_tap+1,7,c
  7312  000CA6  D006               	goto	i2u297_40
  7313  000CA8  5039               	movf	_tap+1,w,c
  7314  000CAA  E111               	bnz	i2l3527
  7315  000CAC  0E02               	movlw	2
  7316  000CAE  5C38               	subwf	_tap,w,c
  7317  000CB0  B0D8               	btfsc	status,0,c
  7318  000CB2  D00D               	goto	i2l818
  7319  000CB4                     i2u297_40:
  7320                           
  7321                           ; BSR set to: 0
  7322                           ;hardware.c: 49: {
  7323                           ;hardware.c: 50: currentTapTime = tapTimeCount;
  7324  000CB4  C03C  F058         	movff	_tapTimeCount,_currentTapTime
  7325  000CB8  C03D  F059         	movff	_tapTimeCount+1,_currentTapTime+1
  7326                           
  7327                           ;hardware.c: 51: tapPrev = tapTimeCount;
  7328  000CBC  C03C  F03A         	movff	_tapTimeCount,_tapPrev
  7329  000CC0  C03D  F03B         	movff	_tapTimeCount+1,_tapPrev+1
  7330                           
  7331                           ; BSR set to: 0
  7332                           ;hardware.c: 52: tap++;
  7333  000CC4  4A38               	infsnz	_tap,f,c
  7334  000CC6  2A39               	incf	_tap+1,f,c
  7335                           
  7336                           ; BSR set to: 0
  7337                           ;hardware.c: 53: maxTapCheck();
  7338  000CC8  ECA2  F00C         	call	_maxTapCheck	;wreg free
  7339                           
  7340                           ;hardware.c: 54: }
  7341  000CCC  D03B               	goto	i2l821
  7342  000CCE                     i2l818:
  7343  000CCE                     i2l3527:
  7344                           
  7345                           ;hardware.c: 55: else
  7346                           ;hardware.c: 56: {
  7347                           ;hardware.c: 57: tapDiff = tapTimeCount - tapPrev;
  7348  000CCE  C03A  F01C         	movff	_tapPrev,??_processTaps
  7349  000CD2  C03B  F01D         	movff	_tapPrev+1,??_processTaps+1
  7350  000CD6  1E1C               	comf	??_processTaps,f,c
  7351  000CD8  1E1D               	comf	??_processTaps+1,f,c
  7352  000CDA  4A1C               	infsnz	??_processTaps,f,c
  7353  000CDC  2A1D               	incf	??_processTaps+1,f,c
  7354  000CDE  503C               	movf	_tapTimeCount,w,c
  7355  000CE0  241C               	addwf	??_processTaps,w,c
  7356  000CE2  6E1E               	movwf	processTaps@tapDiff,c
  7357  000CE4  503D               	movf	_tapTimeCount+1,w,c
  7358  000CE6  201D               	addwfc	??_processTaps+1,w,c
  7359  000CE8  6E1F               	movwf	processTaps@tapDiff+1,c
  7360                           
  7361                           ;hardware.c: 58: tapDiff = absVal(tapDiff);
  7362  000CEA  C01E  F001         	movff	processTaps@tapDiff,i2absVal@val
  7363  000CEE  C01F  F002         	movff	processTaps@tapDiff+1,i2absVal@val+1
  7364  000CF2  ECB0  F00D         	call	i2_absVal	;wreg free
  7365  000CF6  C001  F01E         	movff	?i2_absVal,processTaps@tapDiff
  7366  000CFA  C002  F01F         	movff	?i2_absVal+1,processTaps@tapDiff+1
  7367                           
  7368                           ;hardware.c: 59: if (tapDiff >= 500)
  7369  000CFE  BE1F               	btfsc	processTaps@tapDiff+1,7,c
  7370  000D00  D00B               	goto	i2l820
  7371  000D02  0EF4               	movlw	244
  7372  000D04  5C1E               	subwf	processTaps@tapDiff,w,c
  7373  000D06  0E01               	movlw	1
  7374  000D08  581F               	subwfb	processTaps@tapDiff+1,w,c
  7375  000D0A  A0D8               	btfss	status,0,c
  7376  000D0C  D005               	goto	i2l820
  7377                           
  7378                           ;hardware.c: 60: {
  7379                           ;hardware.c: 61: tap = 1;
  7380  000D0E  0E00               	movlw	0
  7381  000D10  6E39               	movwf	_tap+1,c
  7382  000D12  0E01               	movlw	1
  7383  000D14  6E38               	movwf	_tap,c
  7384                           
  7385                           ;hardware.c: 62: }
  7386  000D16  D016               	goto	i2l821
  7387  000D18                     i2l820:
  7388                           
  7389                           ;hardware.c: 63: else
  7390                           ;hardware.c: 64: {
  7391                           ;hardware.c: 65: currentTapTime = (tapTimeCount + tapPrev)/2;
  7392  000D18  503A               	movf	_tapPrev,w,c
  7393  000D1A  243C               	addwf	_tapTimeCount,w,c
  7394  000D1C  6E01               	movwf	___awdiv@dividend,c
  7395  000D1E  503B               	movf	_tapPrev+1,w,c
  7396  000D20  203D               	addwfc	_tapTimeCount+1,w,c
  7397  000D22  6E02               	movwf	___awdiv@dividend+1,c
  7398  000D24  0E00               	movlw	0
  7399  000D26  6E04               	movwf	___awdiv@divisor+1,c
  7400  000D28  0E02               	movlw	2
  7401  000D2A  6E03               	movwf	___awdiv@divisor,c
  7402  000D2C  ECCC  F00B         	call	___awdiv	;wreg free
  7403  000D30  C001  F058         	movff	?___awdiv,_currentTapTime
  7404  000D34  C002  F059         	movff	?___awdiv+1,_currentTapTime+1
  7405                           
  7406                           ;hardware.c: 66: tapPrev = tapTimeCount;
  7407  000D38  C03C  F03A         	movff	_tapTimeCount,_tapPrev
  7408  000D3C  C03D  F03B         	movff	_tapTimeCount+1,_tapPrev+1
  7409                           
  7410                           ;hardware.c: 67: tap++;
  7411  000D40  4A38               	infsnz	_tap,f,c
  7412  000D42  2A39               	incf	_tap+1,f,c
  7413  000D44                     i2l821:
  7414                           
  7415                           ;hardware.c: 68: }
  7416                           ;hardware.c: 69: }
  7417                           ;hardware.c: 70: masterTime.f = currentTapTime*1.024;
  7418  000D44  C058  F009         	movff	_currentTapTime,___awtoft@c
  7419  000D48  C059  F00A         	movff	_currentTapTime+1,___awtoft@c+1
  7420  000D4C  EC4B  F00D         	call	___awtoft	;wreg free
  7421  000D50  C009  F00D         	movff	?___awtoft,___ftmul@f1
  7422  000D54  C00A  F00E         	movff	?___awtoft+1,___ftmul@f1+1
  7423  000D58  C00B  F00F         	movff	?___awtoft+2,___ftmul@f1+2
  7424  000D5C  0E12               	movlw	18
  7425  000D5E  6E10               	movwf	___ftmul@f2,c
  7426  000D60  0E83               	movlw	131
  7427  000D62  6E11               	movwf	___ftmul@f2+1,c
  7428  000D64  0E3F               	movlw	63
  7429  000D66  6E12               	movwf	___ftmul@f2+2,c
  7430  000D68  EC58  F007         	call	___ftmul	;wreg free
  7431  000D6C  C00D  F064         	movff	?___ftmul,_masterTime
  7432  000D70  C00E  F065         	movff	?___ftmul+1,_masterTime+1
  7433  000D74  C00F  F066         	movff	?___ftmul+2,_masterTime+2
  7434                           
  7435                           ;hardware.c: 71: T2CONbits.TMR2ON = 1;
  7436  000D78  84CA               	bsf	4042,2,c	;volatile
  7437  000D7A                     i2l817:
  7438                           
  7439                           ;hardware.c: 72: }
  7440                           ;hardware.c: 73: tapTimeCount = 0;
  7441  000D7A  0E00               	movlw	0
  7442  000D7C  6E3D               	movwf	_tapTimeCount+1,c
  7443  000D7E  0E00               	movlw	0
  7444  000D80  6E3C               	movwf	_tapTimeCount,c
  7445  000D82  0012               	return		;funcret
  7446  000D84                     __end_of_processTaps:
  7447                           	opt stack 0
  7448                           pclatu	equ	0xFFB
  7449                           pclath	equ	0xFFA
  7450                           tblptru	equ	0xFF8
  7451                           tblptrh	equ	0xFF7
  7452                           tblptrl	equ	0xFF6
  7453                           tablat	equ	0xFF5
  7454                           prodh	equ	0xFF4
  7455                           prodl	equ	0xFF3
  7456                           intcon	equ	0xFF2
  7457                           postinc0	equ	0xFEE
  7458                           fsr0h	equ	0xFEA
  7459                           fsr0l	equ	0xFE9
  7460                           wreg	equ	0xFE8
  7461                           postinc1	equ	0xFE6
  7462                           postdec1	equ	0xFE5
  7463                           fsr1h	equ	0xFE2
  7464                           fsr1l	equ	0xFE1
  7465                           indf2	equ	0xFDF
  7466                           postinc2	equ	0xFDE
  7467                           postdec2	equ	0xFDD
  7468                           fsr2h	equ	0xFDA
  7469                           fsr2l	equ	0xFD9
  7470                           status	equ	0xFD8
  7471                           
  7472 ;; *************** function i2_absVal *****************
  7473 ;; Defined at:
  7474 ;;		line 175 in file "main.c"
  7475 ;; Parameters:    Size  Location     Type
  7476 ;;  val             2    0[COMRAM] int 
  7477 ;; Auto vars:     Size  Location     Type
  7478 ;;		None
  7479 ;; Return value:  Size  Location     Type
  7480 ;;                  2    0[COMRAM] int 
  7481 ;; Registers used:
  7482 ;;		wreg, status,2, status,0
  7483 ;; Tracked objects:
  7484 ;;		On entry : 0/0
  7485 ;;		On exit  : 0/0
  7486 ;;		Unchanged: 0/0
  7487 ;; Data sizes:     COMRAM   BANK0   BANK1   BANK2   BANK3   BANK4   BANK5   BANK6   BANK7   BANK8   BANK9  BANK10  BANK1
      +1  BANK12  BANK13
  7488 ;;      Params:         2       0       0       0       0       0       0       0       0       0       0       0       
      +0       0       0
  7489 ;;      Locals:         0       0       0       0       0       0       0       0       0       0       0       0       
      +0       0       0
  7490 ;;      Temps:          2       0       0       0       0       0       0       0       0       0       0       0       
      +0       0       0
  7491 ;;      Totals:         4       0       0       0       0       0       0       0       0       0       0       0       
      +0       0       0
  7492 ;;Total ram usage:        4 bytes
  7493 ;; Hardware stack levels used:    1
  7494 ;; This function calls:
  7495 ;;		Nothing
  7496 ;; This function is called by:
  7497 ;;		_processTaps
  7498 ;; This function uses a non-reentrant model
  7499 ;;
  7500                           
  7501                           	psect	text33
  7502  001B60                     __ptext33:
  7503                           	opt stack 0
  7504  001B60                     i2_absVal:
  7505                           	opt stack 24
  7506                           
  7507                           ;main.c: 177: if (val < 0)
  7508                           
  7509                           ;incstack = 0
  7510  001B60  AE02               	btfss	i2absVal@val+1,7,c
  7511  001B62  D00D               	goto	i2l176
  7512                           
  7513                           ;main.c: 178: return -val;
  7514  001B64  C001  F003         	movff	i2absVal@val,??i2_absVal
  7515  001B68  C002  F004         	movff	i2absVal@val+1,??i2_absVal+1
  7516  001B6C  1E03               	comf	??i2_absVal,f,c
  7517  001B6E  1E04               	comf	??i2_absVal+1,f,c
  7518  001B70  4A03               	infsnz	??i2_absVal,f,c
  7519  001B72  2A04               	incf	??i2_absVal+1,f,c
  7520  001B74  C003  F001         	movff	??i2_absVal,?i2_absVal
  7521  001B78  C004  F002         	movff	??i2_absVal+1,?i2_absVal+1
  7522  001B7C  0012               	return	
  7523  001B7E                     i2l176:
  7524                           
  7525                           ;main.c: 179: else return val;
  7526  001B7E  C001  F001         	movff	i2absVal@val,?i2_absVal
  7527  001B82  C002  F002         	movff	i2absVal@val+1,?i2_absVal+1
  7528  001B86  0012               	return	
  7529  001B88                     __end_ofi2_absVal:
  7530                           	opt stack 0
  7531                           pclatu	equ	0xFFB
  7532                           pclath	equ	0xFFA
  7533                           tblptru	equ	0xFF8
  7534                           tblptrh	equ	0xFF7
  7535                           tblptrl	equ	0xFF6
  7536                           tablat	equ	0xFF5
  7537                           prodh	equ	0xFF4
  7538                           prodl	equ	0xFF3
  7539                           intcon	equ	0xFF2
  7540                           postinc0	equ	0xFEE
  7541                           fsr0h	equ	0xFEA
  7542                           fsr0l	equ	0xFE9
  7543                           wreg	equ	0xFE8
  7544                           postinc1	equ	0xFE6
  7545                           postdec1	equ	0xFE5
  7546                           fsr1h	equ	0xFE2
  7547                           fsr1l	equ	0xFE1
  7548                           indf2	equ	0xFDF
  7549                           postinc2	equ	0xFDE
  7550                           postdec2	equ	0xFDD
  7551                           fsr2h	equ	0xFDA
  7552                           fsr2l	equ	0xFD9
  7553                           status	equ	0xFD8
  7554                           
  7555 ;; *************** function _maxTapCheck *****************
  7556 ;; Defined at:
  7557 ;;		line 15 in file "hardware.c"
  7558 ;; Parameters:    Size  Location     Type
  7559 ;;		None
  7560 ;; Auto vars:     Size  Location     Type
  7561 ;;		None
  7562 ;; Return value:  Size  Location     Type
  7563 ;;                  1    wreg      void 
  7564 ;; Registers used:
  7565 ;;		wreg, status,2, status,0
  7566 ;; Tracked objects:
  7567 ;;		On entry : 0/0
  7568 ;;		On exit  : 0/0
  7569 ;;		Unchanged: 0/0
  7570 ;; Data sizes:     COMRAM   BANK0   BANK1   BANK2   BANK3   BANK4   BANK5   BANK6   BANK7   BANK8   BANK9  BANK10  BANK1
      +1  BANK12  BANK13
  7571 ;;      Params:         0       0       0       0       0       0       0       0       0       0       0       0       
      +0       0       0
  7572 ;;      Locals:         0       0       0       0       0       0       0       0       0       0       0       0       
      +0       0       0
  7573 ;;      Temps:          0       0       0       0       0       0       0       0       0       0       0       0       
      +0       0       0
  7574 ;;      Totals:         0       0       0       0       0       0       0       0       0       0       0       0       
      +0       0       0
  7575 ;;Total ram usage:        0 bytes
  7576 ;; Hardware stack levels used:    1
  7577 ;; This function calls:
  7578 ;;		Nothing
  7579 ;; This function is called by:
  7580 ;;		_processTaps
  7581 ;; This function uses a non-reentrant model
  7582 ;;
  7583                           
  7584                           	psect	text34
  7585  001944                     __ptext34:
  7586                           	opt stack 0
  7587  001944                     _maxTapCheck:
  7588                           	opt stack 24
  7589                           
  7590                           ;hardware.c: 17: if (tapTimeCount > 3000)
  7591                           
  7592                           ;incstack = 0
  7593  001944  BE3D               	btfsc	_tapTimeCount+1,7,c
  7594  001946  D00F               	goto	i2l810
  7595  001948  0EB9               	movlw	185
  7596  00194A  5C3C               	subwf	_tapTimeCount,w,c
  7597  00194C  0E0B               	movlw	11
  7598  00194E  583D               	subwfb	_tapTimeCount+1,w,c
  7599  001950  A0D8               	btfss	status,0,c
  7600  001952  D009               	goto	i2l810
  7601                           
  7602                           ;hardware.c: 18: {
  7603                           ;hardware.c: 19: tapTimeCount = 0;
  7604  001954  0E00               	movlw	0
  7605  001956  6E3D               	movwf	_tapTimeCount+1,c
  7606  001958  0E00               	movlw	0
  7607  00195A  6E3C               	movwf	_tapTimeCount,c
  7608                           
  7609                           ;hardware.c: 20: tap = 0;
  7610  00195C  0E00               	movlw	0
  7611  00195E  6E39               	movwf	_tap+1,c
  7612  001960  0E00               	movlw	0
  7613  001962  6E38               	movwf	_tap,c
  7614                           
  7615                           ;hardware.c: 21: }
  7616  001964  0012               	return	
  7617  001966                     i2l810:
  7618                           
  7619                           ;hardware.c: 22: else if (tapTimeCount >= 1276)
  7620  001966  BE3D               	btfsc	_tapTimeCount+1,7,c
  7621  001968  0012               	return	
  7622  00196A  0EFC               	movlw	252
  7623  00196C  5C3C               	subwf	_tapTimeCount,w,c
  7624  00196E  0E04               	movlw	4
  7625  001970  583D               	subwfb	_tapTimeCount+1,w,c
  7626  001972  A0D8               	btfss	status,0,c
  7627  001974  0012               	return	
  7628                           
  7629                           ;hardware.c: 23: {
  7630                           ;hardware.c: 24: newTempo = 1;
  7631  001976  0E00               	movlw	0
  7632  001978  0100               	movlb	0	; () banked
  7633  00197A  6F70               	movwf	(_newTempo+1)& (0+255),b
  7634  00197C  0E01               	movlw	1
  7635  00197E  6F6F               	movwf	_newTempo& (0+255),b
  7636                           
  7637                           ;hardware.c: 25: tap = 0;
  7638  001980  0E00               	movlw	0
  7639  001982  6E39               	movwf	_tap+1,c
  7640  001984  0E00               	movlw	0
  7641  001986  6E38               	movwf	_tap,c
  7642                           
  7643                           ;hardware.c: 26: currentTapTime = 1276;
  7644  001988  0E04               	movlw	4
  7645  00198A  6E59               	movwf	_currentTapTime+1,c
  7646  00198C  0EFC               	movlw	252
  7647  00198E  6E58               	movwf	_currentTapTime,c
  7648                           
  7649                           ; BSR set to: 0
  7650  001990  0012               	return	
  7651  001992                     __end_of_maxTapCheck:
  7652                           	opt stack 0
  7653                           pclatu	equ	0xFFB
  7654                           pclath	equ	0xFFA
  7655                           tblptru	equ	0xFF8
  7656                           tblptrh	equ	0xFF7
  7657                           tblptrl	equ	0xFF6
  7658                           tablat	equ	0xFF5
  7659                           prodh	equ	0xFF4
  7660                           prodl	equ	0xFF3
  7661                           intcon	equ	0xFF2
  7662                           postinc0	equ	0xFEE
  7663                           fsr0h	equ	0xFEA
  7664                           fsr0l	equ	0xFE9
  7665                           wreg	equ	0xFE8
  7666                           postinc1	equ	0xFE6
  7667                           postdec1	equ	0xFE5
  7668                           fsr1h	equ	0xFE2
  7669                           fsr1l	equ	0xFE1
  7670                           indf2	equ	0xFDF
  7671                           postinc2	equ	0xFDE
  7672                           postdec2	equ	0xFDD
  7673                           fsr2h	equ	0xFDA
  7674                           fsr2l	equ	0xFD9
  7675                           status	equ	0xFD8
  7676                           
  7677 ;; *************** function ___ftmul *****************
  7678 ;; Defined at:
  7679 ;;		line 62 in file "/Applications/microchip/xc8/v1.43/sources/common/ftmul.c"
  7680 ;; Parameters:    Size  Location     Type
  7681 ;;  f1              3   12[COMRAM] float 
  7682 ;;  f2              3   15[COMRAM] float 
  7683 ;; Auto vars:     Size  Location     Type
  7684 ;;  f3_as_produc    3   22[COMRAM] unsigned um
  7685 ;;  sign            1   26[COMRAM] unsigned char 
  7686 ;;  cntr            1   25[COMRAM] unsigned char 
  7687 ;;  exp             1   21[COMRAM] unsigned char 
  7688 ;; Return value:  Size  Location     Type
  7689 ;;                  3   12[COMRAM] float 
  7690 ;; Registers used:
  7691 ;;		wreg, status,2, status,0, cstack
  7692 ;; Tracked objects:
  7693 ;;		On entry : 0/0
  7694 ;;		On exit  : 0/0
  7695 ;;		Unchanged: 0/0
  7696 ;; Data sizes:     COMRAM   BANK0   BANK1   BANK2   BANK3   BANK4   BANK5   BANK6   BANK7   BANK8   BANK9  BANK10  BANK1
      +1  BANK12  BANK13
  7697 ;;      Params:         6       0       0       0       0       0       0       0       0       0       0       0       
      +0       0       0
  7698 ;;      Locals:         6       0       0       0       0       0       0       0       0       0       0       0       
      +0       0       0
  7699 ;;      Temps:          3       0       0       0       0       0       0       0       0       0       0       0       
      +0       0       0
  7700 ;;      Totals:        15       0       0       0       0       0       0       0       0       0       0       0       
      +0       0       0
  7701 ;;Total ram usage:       15 bytes
  7702 ;; Hardware stack levels used:    1
  7703 ;; Hardware stack levels required when called:    1
  7704 ;; This function calls:
  7705 ;;		___ftpack
  7706 ;; This function is called by:
  7707 ;;		_processTaps
  7708 ;; This function uses a non-reentrant model
  7709 ;;
  7710                           
  7711                           	psect	text35
  7712  000EB0                     __ptext35:
  7713                           	opt stack 0
  7714  000EB0                     ___ftmul:
  7715                           	opt stack 23
  7716                           
  7717                           ;incstack = 0
  7718  000EB0  C00F  F013         	movff	___ftmul@f1+2,??___ftmul
  7719  000EB4  6A14               	clrf	(??___ftmul+1)& (0+255),c
  7720  000EB6  6A15               	clrf	(??___ftmul+2)& (0+255),c
  7721  000EB8  340E               	rlcf	___ftmul@f1+1,w,c
  7722  000EBA  3613               	rlcf	??___ftmul& (0+255),f,c
  7723  000EBC  E301               	bnc	u250_41
  7724  000EBE  8014               	bsf	(??___ftmul+1)& (0+255),0,c
  7725  000EC0                     u250_41:
  7726  000EC0  5013               	movf	??___ftmul,w,c
  7727  000EC2  6E16               	movwf	___ftmul@exp,c
  7728  000EC4  5016               	movf	___ftmul@exp,w,c
  7729  000EC6  A4D8               	btfss	status,2,c
  7730  000EC8  D007               	goto	i2l1597
  7731  000ECA  0E00               	movlw	0
  7732  000ECC  6E0D               	movwf	?___ftmul,c
  7733  000ECE  0E00               	movlw	0
  7734  000ED0  6E0E               	movwf	?___ftmul+1,c
  7735  000ED2  0E00               	movlw	0
  7736  000ED4  6E0F               	movwf	?___ftmul+2,c
  7737  000ED6  0012               	return	
  7738  000ED8                     i2l1597:
  7739  000ED8  C012  F013         	movff	___ftmul@f2+2,??___ftmul
  7740  000EDC  6A14               	clrf	(??___ftmul+1)& (0+255),c
  7741  000EDE  6A15               	clrf	(??___ftmul+2)& (0+255),c
  7742  000EE0  3411               	rlcf	___ftmul@f2+1,w,c
  7743  000EE2  3613               	rlcf	??___ftmul& (0+255),f,c
  7744  000EE4  E301               	bnc	u252_41
  7745  000EE6  8014               	bsf	(??___ftmul+1)& (0+255),0,c
  7746  000EE8                     u252_41:
  7747  000EE8  5013               	movf	??___ftmul,w,c
  7748  000EEA  6E1B               	movwf	___ftmul@sign,c
  7749  000EEC  501B               	movf	___ftmul@sign,w,c
  7750  000EEE  A4D8               	btfss	status,2,c
  7751  000EF0  D007               	goto	i2l1599
  7752  000EF2  0E00               	movlw	0
  7753  000EF4  6E0D               	movwf	?___ftmul,c
  7754  000EF6  0E00               	movlw	0
  7755  000EF8  6E0E               	movwf	?___ftmul+1,c
  7756  000EFA  0E00               	movlw	0
  7757  000EFC  6E0F               	movwf	?___ftmul+2,c
  7758  000EFE  0012               	return	
  7759  000F00                     i2l1599:
  7760  000F00  501B               	movf	___ftmul@sign,w,c
  7761  000F02  0F7B               	addlw	123
  7762  000F04  2616               	addwf	___ftmul@exp,f,c
  7763  000F06  C00F  F01B         	movff	___ftmul@f1+2,___ftmul@sign
  7764  000F0A  5012               	movf	___ftmul@f2+2,w,c
  7765  000F0C  1A1B               	xorwf	___ftmul@sign,f,c
  7766  000F0E  0E80               	movlw	128
  7767  000F10  161B               	andwf	___ftmul@sign,f,c
  7768  000F12  8E0E               	bsf	___ftmul@f1+1,7,c
  7769  000F14  8E11               	bsf	___ftmul@f2+1,7,c
  7770  000F16  0EFF               	movlw	255
  7771  000F18  1610               	andwf	___ftmul@f2,f,c
  7772  000F1A  0EFF               	movlw	255
  7773  000F1C  1611               	andwf	___ftmul@f2+1,f,c
  7774  000F1E  0E00               	movlw	0
  7775  000F20  1612               	andwf	___ftmul@f2+2,f,c
  7776  000F22  0E00               	movlw	0
  7777  000F24  6E17               	movwf	___ftmul@f3_as_product,c
  7778  000F26  0E00               	movlw	0
  7779  000F28  6E18               	movwf	___ftmul@f3_as_product+1,c
  7780  000F2A  0E00               	movlw	0
  7781  000F2C  6E19               	movwf	___ftmul@f3_as_product+2,c
  7782  000F2E  0E07               	movlw	7
  7783  000F30  6E1A               	movwf	___ftmul@cntr,c
  7784  000F32  A00D               	btfss	___ftmul@f1,0,c
  7785  000F34  D006               	goto	i2l1601
  7786  000F36  5010               	movf	___ftmul@f2,w,c
  7787  000F38  2617               	addwf	___ftmul@f3_as_product,f,c
  7788  000F3A  5011               	movf	___ftmul@f2+1,w,c
  7789  000F3C  2218               	addwfc	___ftmul@f3_as_product+1,f,c
  7790  000F3E  5012               	movf	___ftmul@f2+2,w,c
  7791  000F40  2219               	addwfc	___ftmul@f3_as_product+2,f,c
  7792  000F42                     i2l1601:
  7793  000F42  90D8               	bcf	status,0,c
  7794  000F44  320F               	rrcf	___ftmul@f1+2,f,c
  7795  000F46  320E               	rrcf	___ftmul@f1+1,f,c
  7796  000F48  320D               	rrcf	___ftmul@f1,f,c
  7797  000F4A  90D8               	bcf	status,0,c
  7798  000F4C  3610               	rlcf	___ftmul@f2,f,c
  7799  000F4E  3611               	rlcf	___ftmul@f2+1,f,c
  7800  000F50  3612               	rlcf	___ftmul@f2+2,f,c
  7801  000F52  2E1A               	decfsz	___ftmul@cntr,f,c
  7802  000F54  D7EE               	goto	i2l1600
  7803  000F56  0E09               	movlw	9
  7804  000F58  6E1A               	movwf	___ftmul@cntr,c
  7805  000F5A  A00D               	btfss	___ftmul@f1,0,c
  7806  000F5C  D006               	goto	i2l1604
  7807  000F5E  5010               	movf	___ftmul@f2,w,c
  7808  000F60  2617               	addwf	___ftmul@f3_as_product,f,c
  7809  000F62  5011               	movf	___ftmul@f2+1,w,c
  7810  000F64  2218               	addwfc	___ftmul@f3_as_product+1,f,c
  7811  000F66  5012               	movf	___ftmul@f2+2,w,c
  7812  000F68  2219               	addwfc	___ftmul@f3_as_product+2,f,c
  7813  000F6A                     i2l1604:
  7814  000F6A  90D8               	bcf	status,0,c
  7815  000F6C  320F               	rrcf	___ftmul@f1+2,f,c
  7816  000F6E  320E               	rrcf	___ftmul@f1+1,f,c
  7817  000F70  320D               	rrcf	___ftmul@f1,f,c
  7818  000F72  90D8               	bcf	status,0,c
  7819  000F74  3219               	rrcf	___ftmul@f3_as_product+2,f,c
  7820  000F76  3218               	rrcf	___ftmul@f3_as_product+1,f,c
  7821  000F78  3217               	rrcf	___ftmul@f3_as_product,f,c
  7822  000F7A  2E1A               	decfsz	___ftmul@cntr,f,c
  7823  000F7C  D7EE               	goto	i2l1603
  7824  000F7E  C017  F001         	movff	___ftmul@f3_as_product,___ftpack@arg
  7825  000F82  C018  F002         	movff	___ftmul@f3_as_product+1,___ftpack@arg+1
  7826  000F86  C019  F003         	movff	___ftmul@f3_as_product+2,___ftpack@arg+2
  7827  000F8A  C016  F004         	movff	___ftmul@exp,___ftpack@exp
  7828  000F8E  C01B  F005         	movff	___ftmul@sign,___ftpack@sign
  7829  000F92  EC95  F008         	call	___ftpack	;wreg free
  7830  000F96  C001  F00D         	movff	?___ftpack,?___ftmul
  7831  000F9A  C002  F00E         	movff	?___ftpack+1,?___ftmul+1
  7832  000F9E  C003  F00F         	movff	?___ftpack+2,?___ftmul+2
  7833  000FA2  0012               	return	
  7834  000FA4                     __end_of___ftmul:
  7835                           	opt stack 0
  7836                           pclatu	equ	0xFFB
  7837                           pclath	equ	0xFFA
  7838                           tblptru	equ	0xFF8
  7839                           tblptrh	equ	0xFF7
  7840                           tblptrl	equ	0xFF6
  7841                           tablat	equ	0xFF5
  7842                           prodh	equ	0xFF4
  7843                           prodl	equ	0xFF3
  7844                           intcon	equ	0xFF2
  7845                           postinc0	equ	0xFEE
  7846                           fsr0h	equ	0xFEA
  7847                           fsr0l	equ	0xFE9
  7848                           wreg	equ	0xFE8
  7849                           postinc1	equ	0xFE6
  7850                           postdec1	equ	0xFE5
  7851                           fsr1h	equ	0xFE2
  7852                           fsr1l	equ	0xFE1
  7853                           indf2	equ	0xFDF
  7854                           postinc2	equ	0xFDE
  7855                           postdec2	equ	0xFDD
  7856                           fsr2h	equ	0xFDA
  7857                           fsr2l	equ	0xFD9
  7858                           status	equ	0xFD8
  7859                           
  7860 ;; *************** function ___awtoft *****************
  7861 ;; Defined at:
  7862 ;;		line 32 in file "/Applications/microchip/xc8/v1.43/sources/common/awtoft.c"
  7863 ;; Parameters:    Size  Location     Type
  7864 ;;  c               2    8[COMRAM] int 
  7865 ;; Auto vars:     Size  Location     Type
  7866 ;;  sign            1   11[COMRAM] unsigned char 
  7867 ;; Return value:  Size  Location     Type
  7868 ;;                  3    8[COMRAM] float 
  7869 ;; Registers used:
  7870 ;;		wreg, status,2, status,0, cstack
  7871 ;; Tracked objects:
  7872 ;;		On entry : 0/0
  7873 ;;		On exit  : 0/0
  7874 ;;		Unchanged: 0/0
  7875 ;; Data sizes:     COMRAM   BANK0   BANK1   BANK2   BANK3   BANK4   BANK5   BANK6   BANK7   BANK8   BANK9  BANK10  BANK1
      +1  BANK12  BANK13
  7876 ;;      Params:         3       0       0       0       0       0       0       0       0       0       0       0       
      +0       0       0
  7877 ;;      Locals:         1       0       0       0       0       0       0       0       0       0       0       0       
      +0       0       0
  7878 ;;      Temps:          0       0       0       0       0       0       0       0       0       0       0       0       
      +0       0       0
  7879 ;;      Totals:         4       0       0       0       0       0       0       0       0       0       0       0       
      +0       0       0
  7880 ;;Total ram usage:        4 bytes
  7881 ;; Hardware stack levels used:    1
  7882 ;; Hardware stack levels required when called:    1
  7883 ;; This function calls:
  7884 ;;		___ftpack
  7885 ;; This function is called by:
  7886 ;;		_processTaps
  7887 ;; This function uses a non-reentrant model
  7888 ;;
  7889                           
  7890                           	psect	text36
  7891  001A96                     __ptext36:
  7892                           	opt stack 0
  7893  001A96                     ___awtoft:
  7894                           	opt stack 23
  7895                           
  7896                           ;incstack = 0
  7897  001A96  0E00               	movlw	0
  7898  001A98  6E0C               	movwf	___awtoft@sign,c
  7899  001A9A  AE0A               	btfss	___awtoft@c+1,7,c
  7900  001A9C  D006               	goto	i2l1499
  7901  001A9E  6C09               	negf	___awtoft@c,c
  7902  001AA0  1E0A               	comf	___awtoft@c+1,f,c
  7903  001AA2  B0D8               	btfsc	status,0,c
  7904  001AA4  2A0A               	incf	___awtoft@c+1,f,c
  7905  001AA6  0E01               	movlw	1
  7906  001AA8  6E0C               	movwf	___awtoft@sign,c
  7907  001AAA                     i2l1499:
  7908  001AAA  C009  F001         	movff	___awtoft@c,___ftpack@arg
  7909  001AAE  C00A  F002         	movff	___awtoft@c+1,___ftpack@arg+1
  7910  001AB2  6A03               	clrf	___ftpack@arg+2,c
  7911  001AB4  0E8E               	movlw	142
  7912  001AB6  6E04               	movwf	___ftpack@exp,c
  7913  001AB8  C00C  F005         	movff	___awtoft@sign,___ftpack@sign
  7914  001ABC  EC95  F008         	call	___ftpack	;wreg free
  7915  001AC0  C001  F009         	movff	?___ftpack,?___awtoft
  7916  001AC4  C002  F00A         	movff	?___ftpack+1,?___awtoft+1
  7917  001AC8  C003  F00B         	movff	?___ftpack+2,?___awtoft+2
  7918  001ACC  0012               	return	
  7919  001ACE                     __end_of___awtoft:
  7920                           	opt stack 0
  7921                           pclatu	equ	0xFFB
  7922                           pclath	equ	0xFFA
  7923                           tblptru	equ	0xFF8
  7924                           tblptrh	equ	0xFF7
  7925                           tblptrl	equ	0xFF6
  7926                           tablat	equ	0xFF5
  7927                           prodh	equ	0xFF4
  7928                           prodl	equ	0xFF3
  7929                           intcon	equ	0xFF2
  7930                           postinc0	equ	0xFEE
  7931                           fsr0h	equ	0xFEA
  7932                           fsr0l	equ	0xFE9
  7933                           wreg	equ	0xFE8
  7934                           postinc1	equ	0xFE6
  7935                           postdec1	equ	0xFE5
  7936                           fsr1h	equ	0xFE2
  7937                           fsr1l	equ	0xFE1
  7938                           indf2	equ	0xFDF
  7939                           postinc2	equ	0xFDE
  7940                           postdec2	equ	0xFDD
  7941                           fsr2h	equ	0xFDA
  7942                           fsr2l	equ	0xFD9
  7943                           status	equ	0xFD8
  7944                           
  7945 ;; *************** function ___ftpack *****************
  7946 ;; Defined at:
  7947 ;;		line 62 in file "/Applications/microchip/xc8/v1.43/sources/common/float.c"
  7948 ;; Parameters:    Size  Location     Type
  7949 ;;  arg             3    0[COMRAM] unsigned um
  7950 ;;  exp             1    3[COMRAM] unsigned char 
  7951 ;;  sign            1    4[COMRAM] unsigned char 
  7952 ;; Auto vars:     Size  Location     Type
  7953 ;;		None
  7954 ;; Return value:  Size  Location     Type
  7955 ;;                  3    0[COMRAM] float 
  7956 ;; Registers used:
  7957 ;;		wreg, status,2, status,0
  7958 ;; Tracked objects:
  7959 ;;		On entry : 0/0
  7960 ;;		On exit  : 0/0
  7961 ;;		Unchanged: 0/0
  7962 ;; Data sizes:     COMRAM   BANK0   BANK1   BANK2   BANK3   BANK4   BANK5   BANK6   BANK7   BANK8   BANK9  BANK10  BANK1
      +1  BANK12  BANK13
  7963 ;;      Params:         5       0       0       0       0       0       0       0       0       0       0       0       
      +0       0       0
  7964 ;;      Locals:         0       0       0       0       0       0       0       0       0       0       0       0       
      +0       0       0
  7965 ;;      Temps:          3       0       0       0       0       0       0       0       0       0       0       0       
      +0       0       0
  7966 ;;      Totals:         8       0       0       0       0       0       0       0       0       0       0       0       
      +0       0       0
  7967 ;;Total ram usage:        8 bytes
  7968 ;; Hardware stack levels used:    1
  7969 ;; This function calls:
  7970 ;;		Nothing
  7971 ;; This function is called by:
  7972 ;;		___awtoft
  7973 ;;		___ftmul
  7974 ;; This function uses a non-reentrant model
  7975 ;;
  7976                           
  7977                           	psect	text37
  7978  00112A                     __ptext37:
  7979                           	opt stack 0
  7980  00112A                     ___ftpack:
  7981                           	opt stack 23
  7982                           
  7983                           ;incstack = 0
  7984  00112A  5004               	movf	___ftpack@exp,w,c
  7985  00112C  B4D8               	btfsc	status,2,c
  7986  00112E  D005               	goto	i2u241_40
  7987  001130  5001               	movf	___ftpack@arg,w,c
  7988  001132  1002               	iorwf	___ftpack@arg+1,w,c
  7989  001134  1003               	iorwf	___ftpack@arg+2,w,c
  7990  001136  A4D8               	btfss	status,2,c
  7991  001138  D00C               	goto	i2l1518
  7992  00113A                     i2u241_40:
  7993  00113A  0E00               	movlw	0
  7994  00113C  6E01               	movwf	?___ftpack,c
  7995  00113E  0E00               	movlw	0
  7996  001140  6E02               	movwf	?___ftpack+1,c
  7997  001142  0E00               	movlw	0
  7998  001144  6E03               	movwf	?___ftpack+2,c
  7999  001146  0012               	return	
  8000  001148  2A04               	incf	___ftpack@exp,f,c
  8001  00114A  90D8               	bcf	status,0,c
  8002  00114C  3203               	rrcf	___ftpack@arg+2,f,c
  8003  00114E  3202               	rrcf	___ftpack@arg+1,f,c
  8004  001150  3201               	rrcf	___ftpack@arg,f,c
  8005  001152                     i2l1518:
  8006  001152  0E00               	movlw	0
  8007  001154  1401               	andwf	___ftpack@arg,w,c
  8008  001156  6E06               	movwf	??___ftpack& (0+255),c
  8009  001158  0E00               	movlw	0
  8010  00115A  1402               	andwf	___ftpack@arg+1,w,c
  8011  00115C  6E07               	movwf	(??___ftpack+1)& (0+255),c
  8012  00115E  0EFE               	movlw	254
  8013  001160  1403               	andwf	___ftpack@arg+2,w,c
  8014  001162  6E08               	movwf	(??___ftpack+2)& (0+255),c
  8015  001164  5006               	movf	??___ftpack,w,c
  8016  001166  1007               	iorwf	??___ftpack+1,w,c
  8017  001168  1008               	iorwf	??___ftpack+2,w,c
  8018  00116A  B4D8               	btfsc	status,2,c
  8019  00116C  D00C               	goto	i2l1521
  8020  00116E  D7EC               	goto	i2l1519
  8021  001170  2A04               	incf	___ftpack@exp,f,c
  8022  001172  0E01               	movlw	1
  8023  001174  2601               	addwf	___ftpack@arg,f,c
  8024  001176  0E00               	movlw	0
  8025  001178  2202               	addwfc	___ftpack@arg+1,f,c
  8026  00117A  0E00               	movlw	0
  8027  00117C  2203               	addwfc	___ftpack@arg+2,f,c
  8028  00117E  90D8               	bcf	status,0,c
  8029  001180  3203               	rrcf	___ftpack@arg+2,f,c
  8030  001182  3202               	rrcf	___ftpack@arg+1,f,c
  8031  001184  3201               	rrcf	___ftpack@arg,f,c
  8032  001186                     i2l1521:
  8033  001186  0E00               	movlw	0
  8034  001188  1401               	andwf	___ftpack@arg,w,c
  8035  00118A  6E06               	movwf	??___ftpack& (0+255),c
  8036  00118C  0E00               	movlw	0
  8037  00118E  1402               	andwf	___ftpack@arg+1,w,c
  8038  001190  6E07               	movwf	(??___ftpack+1)& (0+255),c
  8039  001192  0EFF               	movlw	255
  8040  001194  1403               	andwf	___ftpack@arg+2,w,c
  8041  001196  6E08               	movwf	(??___ftpack+2)& (0+255),c
  8042  001198  5006               	movf	??___ftpack,w,c
  8043  00119A  1007               	iorwf	??___ftpack+1,w,c
  8044  00119C  1008               	iorwf	??___ftpack+2,w,c
  8045  00119E  B4D8               	btfsc	status,2,c
  8046  0011A0  D006               	goto	i2l1524
  8047  0011A2  D7E6               	goto	i2l1522
  8048  0011A4  0604               	decf	___ftpack@exp,f,c
  8049  0011A6  90D8               	bcf	status,0,c
  8050  0011A8  3601               	rlcf	___ftpack@arg,f,c
  8051  0011AA  3602               	rlcf	___ftpack@arg+1,f,c
  8052  0011AC  3603               	rlcf	___ftpack@arg+2,f,c
  8053  0011AE                     i2l1524:
  8054  0011AE  BE02               	btfsc	___ftpack@arg+1,7,c
  8055  0011B0  D003               	goto	i2u245_40
  8056  0011B2  0E02               	movlw	2
  8057  0011B4  6004               	cpfslt	___ftpack@exp,c
  8058  0011B6  D7F6               	goto	i2l1525
  8059  0011B8                     i2u245_40:
  8060  0011B8  A004               	btfss	___ftpack@exp,0,c
  8061  0011BA  9E02               	bcf	___ftpack@arg+1,7,c
  8062  0011BC  90D8               	bcf	status,0,c
  8063  0011BE  3204               	rrcf	___ftpack@exp,f,c
  8064  0011C0  5004               	movf	___ftpack@exp,w,c
  8065  0011C2  1203               	iorwf	___ftpack@arg+2,f,c
  8066  0011C4  5005               	movf	___ftpack@sign,w,c
  8067  0011C6  A4D8               	btfss	status,2,c
  8068  0011C8  8E03               	bsf	___ftpack@arg+2,7,c
  8069  0011CA  C001  F001         	movff	___ftpack@arg,?___ftpack
  8070  0011CE  C002  F002         	movff	___ftpack@arg+1,?___ftpack+1
  8071  0011D2  C003  F003         	movff	___ftpack@arg+2,?___ftpack+2
  8072  0011D6  0012               	return	
  8073  0011D8                     __end_of___ftpack:
  8074                           	opt stack 0
  8075                           pclatu	equ	0xFFB
  8076                           pclath	equ	0xFFA
  8077                           tblptru	equ	0xFF8
  8078                           tblptrh	equ	0xFF7
  8079                           tblptrl	equ	0xFF6
  8080                           tablat	equ	0xFF5
  8081                           prodh	equ	0xFF4
  8082                           prodl	equ	0xFF3
  8083                           intcon	equ	0xFF2
  8084                           postinc0	equ	0xFEE
  8085                           fsr0h	equ	0xFEA
  8086                           fsr0l	equ	0xFE9
  8087                           wreg	equ	0xFE8
  8088                           postinc1	equ	0xFE6
  8089                           postdec1	equ	0xFE5
  8090                           fsr1h	equ	0xFE2
  8091                           fsr1l	equ	0xFE1
  8092                           indf2	equ	0xFDF
  8093                           postinc2	equ	0xFDE
  8094                           postdec2	equ	0xFDD
  8095                           fsr2h	equ	0xFDA
  8096                           fsr2l	equ	0xFD9
  8097                           status	equ	0xFD8
  8098                           
  8099 ;; *************** function ___awdiv *****************
  8100 ;; Defined at:
  8101 ;;		line 8 in file "/Applications/microchip/xc8/v1.43/sources/common/awdiv.c"
  8102 ;; Parameters:    Size  Location     Type
  8103 ;;  dividend        2    0[COMRAM] int 
  8104 ;;  divisor         2    2[COMRAM] int 
  8105 ;; Auto vars:     Size  Location     Type
  8106 ;;  quotient        2    6[COMRAM] int 
  8107 ;;  sign            1    5[COMRAM] unsigned char 
  8108 ;;  counter         1    4[COMRAM] unsigned char 
  8109 ;; Return value:  Size  Location     Type
  8110 ;;                  2    0[COMRAM] int 
  8111 ;; Registers used:
  8112 ;;		wreg, status,2, status,0
  8113 ;; Tracked objects:
  8114 ;;		On entry : 0/0
  8115 ;;		On exit  : 0/0
  8116 ;;		Unchanged: 0/0
  8117 ;; Data sizes:     COMRAM   BANK0   BANK1   BANK2   BANK3   BANK4   BANK5   BANK6   BANK7   BANK8   BANK9  BANK10  BANK1
      +1  BANK12  BANK13
  8118 ;;      Params:         4       0       0       0       0       0       0       0       0       0       0       0       
      +0       0       0
  8119 ;;      Locals:         4       0       0       0       0       0       0       0       0       0       0       0       
      +0       0       0
  8120 ;;      Temps:          0       0       0       0       0       0       0       0       0       0       0       0       
      +0       0       0
  8121 ;;      Totals:         8       0       0       0       0       0       0       0       0       0       0       0       
      +0       0       0
  8122 ;;Total ram usage:        8 bytes
  8123 ;; Hardware stack levels used:    1
  8124 ;; This function calls:
  8125 ;;		Nothing
  8126 ;; This function is called by:
  8127 ;;		_processTaps
  8128 ;; This function uses a non-reentrant model
  8129 ;;
  8130                           
  8131                           	psect	text38
  8132  001798                     __ptext38:
  8133                           	opt stack 0
  8134  001798                     ___awdiv:
  8135                           	opt stack 24
  8136                           
  8137                           ;incstack = 0
  8138  001798  0E00               	movlw	0
  8139  00179A  6E06               	movwf	___awdiv@sign,c
  8140  00179C  AE04               	btfss	___awdiv@divisor+1,7,c
  8141  00179E  D006               	goto	i2l1471
  8142  0017A0  6C03               	negf	___awdiv@divisor,c
  8143  0017A2  1E04               	comf	___awdiv@divisor+1,f,c
  8144  0017A4  B0D8               	btfsc	status,0,c
  8145  0017A6  2A04               	incf	___awdiv@divisor+1,f,c
  8146  0017A8  0E01               	movlw	1
  8147  0017AA  6E06               	movwf	___awdiv@sign,c
  8148  0017AC                     i2l1471:
  8149  0017AC  AE02               	btfss	___awdiv@dividend+1,7,c
  8150  0017AE  D006               	goto	i2l1472
  8151  0017B0  6C01               	negf	___awdiv@dividend,c
  8152  0017B2  1E02               	comf	___awdiv@dividend+1,f,c
  8153  0017B4  B0D8               	btfsc	status,0,c
  8154  0017B6  2A02               	incf	___awdiv@dividend+1,f,c
  8155  0017B8  0E01               	movlw	1
  8156  0017BA  1A06               	xorwf	___awdiv@sign,f,c
  8157  0017BC                     i2l1472:
  8158  0017BC  0E00               	movlw	0
  8159  0017BE  6E08               	movwf	___awdiv@quotient+1,c
  8160  0017C0  0E00               	movlw	0
  8161  0017C2  6E07               	movwf	___awdiv@quotient,c
  8162  0017C4  5003               	movf	___awdiv@divisor,w,c
  8163  0017C6  1004               	iorwf	___awdiv@divisor+1,w,c
  8164  0017C8  B4D8               	btfsc	status,2,c
  8165  0017CA  D01C               	goto	i2l1479
  8166  0017CC  0E01               	movlw	1
  8167  0017CE  6E05               	movwf	___awdiv@counter,c
  8168  0017D0  D004               	goto	i2l1474
  8169  0017D2  90D8               	bcf	status,0,c
  8170  0017D4  3603               	rlcf	___awdiv@divisor,f,c
  8171  0017D6  3604               	rlcf	___awdiv@divisor+1,f,c
  8172  0017D8  2A05               	incf	___awdiv@counter,f,c
  8173  0017DA                     i2l1474:
  8174  0017DA  AE04               	btfss	___awdiv@divisor+1,7,c
  8175  0017DC  D7FA               	goto	i2l1475
  8176  0017DE                     i2u259_40:
  8177  0017DE  90D8               	bcf	status,0,c
  8178  0017E0  3607               	rlcf	___awdiv@quotient,f,c
  8179  0017E2  3608               	rlcf	___awdiv@quotient+1,f,c
  8180  0017E4  5003               	movf	___awdiv@divisor,w,c
  8181  0017E6  5C01               	subwf	___awdiv@dividend,w,c
  8182  0017E8  5004               	movf	___awdiv@divisor+1,w,c
  8183  0017EA  5802               	subwfb	___awdiv@dividend+1,w,c
  8184  0017EC  A0D8               	btfss	status,0,c
  8185  0017EE  D005               	goto	i2l1478
  8186  0017F0  5003               	movf	___awdiv@divisor,w,c
  8187  0017F2  5E01               	subwf	___awdiv@dividend,f,c
  8188  0017F4  5004               	movf	___awdiv@divisor+1,w,c
  8189  0017F6  5A02               	subwfb	___awdiv@dividend+1,f,c
  8190  0017F8  8007               	bsf	___awdiv@quotient,0,c
  8191  0017FA                     i2l1478:
  8192  0017FA  90D8               	bcf	status,0,c
  8193  0017FC  3204               	rrcf	___awdiv@divisor+1,f,c
  8194  0017FE  3203               	rrcf	___awdiv@divisor,f,c
  8195  001800  2E05               	decfsz	___awdiv@counter,f,c
  8196  001802  D7ED               	goto	i2u259_40
  8197  001804                     i2l1479:
  8198  001804  5006               	movf	___awdiv@sign,w,c
  8199  001806  B4D8               	btfsc	status,2,c
  8200  001808  D004               	goto	i2l1480
  8201  00180A  6C07               	negf	___awdiv@quotient,c
  8202  00180C  1E08               	comf	___awdiv@quotient+1,f,c
  8203  00180E  B0D8               	btfsc	status,0,c
  8204  001810  2A08               	incf	___awdiv@quotient+1,f,c
  8205  001812                     i2l1480:
  8206  001812  C007  F001         	movff	___awdiv@quotient,?___awdiv
  8207  001816  C008  F002         	movff	___awdiv@quotient+1,?___awdiv+1
  8208  00181A  0012               	return	
  8209  00181C                     __end_of___awdiv:
  8210                           	opt stack 0
  8211                           pclatu	equ	0xFFB
  8212                           pclath	equ	0xFFA
  8213                           tblptru	equ	0xFF8
  8214                           tblptrh	equ	0xFF7
  8215                           tblptrl	equ	0xFF6
  8216                           tablat	equ	0xFF5
  8217                           prodh	equ	0xFF4
  8218                           prodl	equ	0xFF3
  8219                           intcon	equ	0xFF2
  8220                           postinc0	equ	0xFEE
  8221                           fsr0h	equ	0xFEA
  8222                           fsr0l	equ	0xFE9
  8223                           wreg	equ	0xFE8
  8224                           postinc1	equ	0xFE6
  8225                           postdec1	equ	0xFE5
  8226                           fsr1h	equ	0xFE2
  8227                           fsr1l	equ	0xFE1
  8228                           indf2	equ	0xFDF
  8229                           postinc2	equ	0xFDE
  8230                           postdec2	equ	0xFDD
  8231                           fsr2h	equ	0xFDA
  8232                           fsr2l	equ	0xFD9
  8233                           status	equ	0xFD8
  8234                           
  8235 ;; *************** function _sendParam *****************
  8236 ;; Defined at:
  8237 ;;		line 261 in file "serial.c"
  8238 ;; Parameters:    Size  Location     Type
  8239 ;;		None
  8240 ;; Auto vars:     Size  Location     Type
  8241 ;;  n               2    2[COMRAM] int 
  8242 ;; Return value:  Size  Location     Type
  8243 ;;                  1    wreg      void 
  8244 ;; Registers used:
  8245 ;;		wreg, fsr2l, fsr2h, status,2, status,0
  8246 ;; Tracked objects:
  8247 ;;		On entry : 0/0
  8248 ;;		On exit  : 0/0
  8249 ;;		Unchanged: 0/0
  8250 ;; Data sizes:     COMRAM   BANK0   BANK1   BANK2   BANK3   BANK4   BANK5   BANK6   BANK7   BANK8   BANK9  BANK10  BANK1
      +1  BANK12  BANK13
  8251 ;;      Params:         0       0       0       0       0       0       0       0       0       0       0       0       
      +0       0       0
  8252 ;;      Locals:         2       0       0       0       0       0       0       0       0       0       0       0       
      +0       0       0
  8253 ;;      Temps:          2       0       0       0       0       0       0       0       0       0       0       0       
      +0       0       0
  8254 ;;      Totals:         4       0       0       0       0       0       0       0       0       0       0       0       
      +0       0       0
  8255 ;;Total ram usage:        4 bytes
  8256 ;; Hardware stack levels used:    1
  8257 ;; This function calls:
  8258 ;;		Nothing
  8259 ;; This function is called by:
  8260 ;;		_highPriorityISR
  8261 ;; This function uses a non-reentrant model
  8262 ;;
  8263                           
  8264                           	psect	text39
  8265  001316                     __ptext39:
  8266                           	opt stack 0
  8267  001316                     _sendParam:
  8268                           	opt stack 26
  8269                           
  8270                           ;serial.c: 263: int n = 0;
  8271                           
  8272                           ;incstack = 0
  8273  001316  0E00               	movlw	0
  8274  001318  6E04               	movwf	sendParam@n+1,c
  8275  00131A  0E00               	movlw	0
  8276  00131C  6E03               	movwf	sendParam@n,c
  8277                           
  8278                           ;serial.c: 265: dataTarget = SSP2BUF;
  8279  00131E  CF03 F087          	movff	3843,_dataTarget	;volatile
  8280  001322  0100               	movlb	0	; () banked
  8281  001324  6B88               	clrf	(_dataTarget+1)& (0+255),b
  8282                           
  8283                           ;serial.c: 267: for (n = 0; n < 15; n++)
  8284  001326  0E00               	movlw	0
  8285  001328  6E04               	movwf	sendParam@n+1,c
  8286  00132A  0E00               	movlw	0
  8287  00132C  6E03               	movwf	sendParam@n,c
  8288                           
  8289                           ; BSR set to: 0
  8290  00132E  BE04               	btfsc	sendParam@n+1,7,c
  8291  001330  D003               	goto	i2l1298
  8292  001332  5004               	movf	sendParam@n+1,w,c
  8293  001334  E135               	bnz	i2l1299
  8294  001336  D030               	goto	L5
  8295  001338                     i2l1298:
  8296                           
  8297                           ; BSR set to: 0
  8298                           ;serial.c: 268: {
  8299                           ;serial.c: 269: if (dataTarget == paramAddress[n])
  8300                           
  8301                           ; BSR set to: 0
  8302  001338  90D8               	bcf	status,0,c
  8303  00133A  3403               	rlcf	sendParam@n,w,c
  8304  00133C  6ED9               	movwf	fsr2l,c
  8305  00133E  3404               	rlcf	sendParam@n+1,w,c
  8306  001340  6EDA               	movwf	fsr2h,c
  8307  001342  0E90               	movlw	low _paramAddress
  8308  001344  26D9               	addwf	fsr2l,f,c
  8309  001346  0E01               	movlw	high _paramAddress
  8310  001348  22DA               	addwfc	fsr2h,f,c
  8311  00134A  0100               	movlb	0	; () banked
  8312  00134C  5187               	movf	_dataTarget& (0+255),w,b
  8313  00134E  18DE               	xorwf	postinc2,w,c
  8314  001350  E11D               	bnz	i2l3637
  8315  001352  0100               	movlb	0	; () banked
  8316  001354  5188               	movf	(_dataTarget+1)& (0+255),w,b
  8317  001356  18DE               	xorwf	postinc2,w,c
  8318  001358  A4D8               	btfss	status,2,c
  8319  00135A  D018               	goto	i2l1300
  8320                           
  8321                           ; BSR set to: 0
  8322                           ;serial.c: 270: {
  8323                           ;serial.c: 271: if (n == 15)
  8324  00135C  0E0F               	movlw	15
  8325  00135E  1803               	xorwf	sendParam@n,w,c
  8326  001360  1004               	iorwf	sendParam@n+1,w,c
  8327  001362  A4D8               	btfss	status,2,c
  8328  001364  D005               	goto	i2l1301
  8329                           
  8330                           ; BSR set to: 0
  8331                           ;serial.c: 272: {
  8332                           ;serial.c: 273: dataPtr = setupComplete;
  8333  001366  C069  F085         	movff	_setupComplete,_dataPtr
  8334  00136A  C06A  F086         	movff	_setupComplete+1,_dataPtr+1
  8335                           
  8336                           ;serial.c: 274: }
  8337  00136E  D018               	goto	i2u319_40
  8338  001370                     i2l1301:
  8339                           
  8340                           ; BSR set to: 0
  8341                           ;serial.c: 275: else dataPtr = parameter[n];
  8342                           
  8343                           ; BSR set to: 0
  8344  001370  90D8               	bcf	status,0,c
  8345  001372  3403               	rlcf	sendParam@n,w,c
  8346  001374  6ED9               	movwf	fsr2l,c
  8347  001376  3404               	rlcf	sendParam@n+1,w,c
  8348  001378  6EDA               	movwf	fsr2h,c
  8349  00137A  0EAD               	movlw	low _parameter
  8350  00137C  26D9               	addwf	fsr2l,f,c
  8351  00137E  0E00               	movlw	high _parameter
  8352  001380  22DA               	addwfc	fsr2h,f,c
  8353  001382  CFDE F085          	movff	postinc2,_dataPtr
  8354  001386  CFDD F086          	movff	postdec2,_dataPtr+1
  8355                           
  8356                           ; BSR set to: 0
  8357                           ;serial.c: 276: break;
  8358  00138A  D00A               	goto	i2u319_40
  8359  00138C                     i2l1300:
  8360  00138C                     i2l3637:
  8361                           
  8362                           ; BSR set to: 0
  8363  00138C  4A03               	infsnz	sendParam@n,f,c
  8364  00138E  2A04               	incf	sendParam@n+1,f,c
  8365                           
  8366                           ; BSR set to: 0
  8367  001390  BE04               	btfsc	sendParam@n+1,7,c
  8368  001392  D7D2               	goto	i2l1298
  8369  001394  5004               	movf	sendParam@n+1,w,c
  8370  001396  E104               	bnz	i2u319_40
  8371  001398                     L5:
  8372  001398  0E0F               	movlw	15
  8373  00139A  5C03               	subwf	sendParam@n,w,c
  8374  00139C  A0D8               	btfss	status,0,c
  8375  00139E  D7CC               	goto	i2l1298
  8376  0013A0                     i2u319_40:
  8377  0013A0                     i2l1299:
  8378                           
  8379                           ; BSR set to: 0
  8380                           ;serial.c: 277: }
  8381                           ;serial.c: 278: }
  8382                           ;serial.c: 280: SSP2BUF = dataPtr;
  8383  0013A0  C085  FF03         	movff	_dataPtr,3843	;volatile
  8384                           
  8385                           ;serial.c: 281: SSP2CON1bits.CKP = 0x1;
  8386  0013A4  010F               	movlb	15	; () banked
  8387  0013A6  8919               	bsf	25,4,b	;volatile
  8388                           
  8389                           ;serial.c: 282: PIR2bits.SSP2IF = 0x0;
  8390  0013A8  9CA1               	bcf	4001,6,c	;volatile
  8391                           
  8392                           ; BSR set to: 15
  8393  0013AA  0012               	return		;funcret
  8394  0013AC                     __end_of_sendParam:
  8395                           	opt stack 0
  8396                           pclatu	equ	0xFFB
  8397                           pclath	equ	0xFFA
  8398                           tblptru	equ	0xFF8
  8399                           tblptrh	equ	0xFF7
  8400                           tblptrl	equ	0xFF6
  8401                           tablat	equ	0xFF5
  8402                           prodh	equ	0xFF4
  8403                           prodl	equ	0xFF3
  8404                           intcon	equ	0xFF2
  8405                           postinc0	equ	0xFEE
  8406                           fsr0h	equ	0xFEA
  8407                           fsr0l	equ	0xFE9
  8408                           wreg	equ	0xFE8
  8409                           postinc1	equ	0xFE6
  8410                           postdec1	equ	0xFE5
  8411                           fsr1h	equ	0xFE2
  8412                           fsr1l	equ	0xFE1
  8413                           indf2	equ	0xFDF
  8414                           postinc2	equ	0xFDE
  8415                           postdec2	equ	0xFDD
  8416                           fsr2h	equ	0xFDA
  8417                           fsr2l	equ	0xFD9
  8418                           status	equ	0xFD8
  8419                           
  8420 ;; *************** function _flashLED *****************
  8421 ;; Defined at:
  8422 ;;		line 104 in file "hardware.c"
  8423 ;; Parameters:    Size  Location     Type
  8424 ;;		None
  8425 ;; Auto vars:     Size  Location     Type
  8426 ;;		None
  8427 ;; Return value:  Size  Location     Type
  8428 ;;                  1    wreg      void 
  8429 ;; Registers used:
  8430 ;;		wreg, status,2, status,0, cstack
  8431 ;; Tracked objects:
  8432 ;;		On entry : 0/0
  8433 ;;		On exit  : 0/0
  8434 ;;		Unchanged: 0/0
  8435 ;; Data sizes:     COMRAM   BANK0   BANK1   BANK2   BANK3   BANK4   BANK5   BANK6   BANK7   BANK8   BANK9  BANK10  BANK1
      +1  BANK12  BANK13
  8436 ;;      Params:         0       0       0       0       0       0       0       0       0       0       0       0       
      +0       0       0
  8437 ;;      Locals:         0       0       0       0       0       0       0       0       0       0       0       0       
      +0       0       0
  8438 ;;      Temps:          0       0       0       0       0       0       0       0       0       0       0       0       
      +0       0       0
  8439 ;;      Totals:         0       0       0       0       0       0       0       0       0       0       0       0       
      +0       0       0
  8440 ;;Total ram usage:        0 bytes
  8441 ;; Hardware stack levels used:    1
  8442 ;; Hardware stack levels required when called:    1
  8443 ;; This function calls:
  8444 ;;		_updatePresetLEDs
  8445 ;; This function is called by:
  8446 ;;		_highPriorityISR
  8447 ;; This function uses a non-reentrant model
  8448 ;;
  8449                           
  8450                           	psect	text40
  8451  001894                     __ptext40:
  8452                           	opt stack 0
  8453  001894                     _flashLED:
  8454                           	opt stack 25
  8455                           
  8456                           ;hardware.c: 106: if (presetPend)
  8457                           
  8458                           ; BSR set to: 15
  8459                           ;incstack = 0
  8460  001894  5042               	movf	_presetPend,w,c
  8461  001896  1043               	iorwf	_presetPend+1,w,c
  8462  001898  B4D8               	btfsc	status,2,c
  8463  00189A  0012               	return	
  8464                           
  8465                           ;hardware.c: 107: {
  8466                           ;hardware.c: 108: pFlashCount++;
  8467  00189C  0100               	movlb	0	; () banked
  8468  00189E  4B9B               	infsnz	_pFlashCount& (0+255),f,b
  8469  0018A0  2B9C               	incf	(_pFlashCount+1)& (0+255),f,b
  8470                           
  8471                           ; BSR set to: 0
  8472                           ;hardware.c: 109: if (pFlashCount > 150)
  8473  0018A2  0100               	movlb	0	; () banked
  8474  0018A4  BF9C               	btfsc	(_pFlashCount+1)& (0+255),7,b
  8475  0018A6  0012               	return	
  8476  0018A8  0100               	movlb	0	; () banked
  8477  0018AA  519C               	movf	(_pFlashCount+1)& (0+255),w,b
  8478  0018AC  E105               	bnz	i2u325_40
  8479  0018AE  0E97               	movlw	151
  8480  0018B0  0100               	movlb	0	; () banked
  8481  0018B2  5D9B               	subwf	_pFlashCount& (0+255),w,b
  8482  0018B4  A0D8               	btfss	status,0,c
  8483  0018B6  0012               	return	
  8484  0018B8                     i2u325_40:
  8485                           
  8486                           ; BSR set to: 0
  8487                           ;hardware.c: 110: {
  8488                           ;hardware.c: 111: if (pFlash)
  8489  0018B8  0100               	movlb	0	; () banked
  8490  0018BA  5199               	movf	_pFlash& (0+255),w,b
  8491  0018BC  0100               	movlb	0	; () banked
  8492  0018BE  119A               	iorwf	(_pFlash+1)& (0+255),w,b
  8493  0018C0  B4D8               	btfsc	status,2,c
  8494  0018C2  D007               	goto	i2l836
  8495                           
  8496                           ; BSR set to: 0
  8497                           ;hardware.c: 112: {
  8498                           ;hardware.c: 113: updatePresetLEDs(targPreset);
  8499  0018C4  C044  F001         	movff	_targPreset,updatePresetLEDs@psNum
  8500  0018C8  C045  F002         	movff	_targPreset+1,updatePresetLEDs@psNum+1
  8501  0018CC  EC0E  F00C         	call	_updatePresetLEDs	;wreg free
  8502                           
  8503                           ;hardware.c: 114: }
  8504  0018D0  D006               	goto	i2l837
  8505  0018D2                     i2l836:
  8506                           
  8507                           ;hardware.c: 115: else
  8508                           ;hardware.c: 116: {
  8509                           ;hardware.c: 117: updatePresetLEDs(0);
  8510  0018D2  0E00               	movlw	0
  8511  0018D4  6E02               	movwf	updatePresetLEDs@psNum+1,c
  8512  0018D6  0E00               	movlw	0
  8513  0018D8  6E01               	movwf	updatePresetLEDs@psNum,c
  8514  0018DA  EC0E  F00C         	call	_updatePresetLEDs	;wreg free
  8515  0018DE                     i2l837:
  8516                           
  8517                           ;hardware.c: 118: }
  8518                           ;hardware.c: 119: pFlash ^= 1;
  8519  0018DE  0E01               	movlw	1
  8520  0018E0  0100               	movlb	0	; () banked
  8521  0018E2  1B99               	xorwf	_pFlash& (0+255),f,b
  8522                           
  8523                           ; BSR set to: 0
  8524                           ;hardware.c: 120: pFlashCount = 0;
  8525  0018E4  0E00               	movlw	0
  8526  0018E6  0100               	movlb	0	; () banked
  8527  0018E8  6F9C               	movwf	(_pFlashCount+1)& (0+255),b
  8528  0018EA  0E00               	movlw	0
  8529  0018EC  6F9B               	movwf	_pFlashCount& (0+255),b
  8530                           
  8531                           ; BSR set to: 0
  8532  0018EE  0012               	return	
  8533  0018F0                     __end_of_flashLED:
  8534                           	opt stack 0
  8535                           pclatu	equ	0xFFB
  8536                           pclath	equ	0xFFA
  8537                           tblptru	equ	0xFF8
  8538                           tblptrh	equ	0xFF7
  8539                           tblptrl	equ	0xFF6
  8540                           tablat	equ	0xFF5
  8541                           prodh	equ	0xFF4
  8542                           prodl	equ	0xFF3
  8543                           intcon	equ	0xFF2
  8544                           postinc0	equ	0xFEE
  8545                           fsr0h	equ	0xFEA
  8546                           fsr0l	equ	0xFE9
  8547                           wreg	equ	0xFE8
  8548                           postinc1	equ	0xFE6
  8549                           postdec1	equ	0xFE5
  8550                           fsr1h	equ	0xFE2
  8551                           fsr1l	equ	0xFE1
  8552                           indf2	equ	0xFDF
  8553                           postinc2	equ	0xFDE
  8554                           postdec2	equ	0xFDD
  8555                           fsr2h	equ	0xFDA
  8556                           fsr2l	equ	0xFD9
  8557                           status	equ	0xFD8
  8558                           
  8559 ;; *************** function _updatePresetLEDs *****************
  8560 ;; Defined at:
  8561 ;;		line 612 in file "hardware.c"
  8562 ;; Parameters:    Size  Location     Type
  8563 ;;  psNum           2    0[COMRAM] int 
  8564 ;; Auto vars:     Size  Location     Type
  8565 ;;		None
  8566 ;; Return value:  Size  Location     Type
  8567 ;;                  1    wreg      void 
  8568 ;; Registers used:
  8569 ;;		wreg, status,2, status,0
  8570 ;; Tracked objects:
  8571 ;;		On entry : 0/0
  8572 ;;		On exit  : 0/0
  8573 ;;		Unchanged: 0/0
  8574 ;; Data sizes:     COMRAM   BANK0   BANK1   BANK2   BANK3   BANK4   BANK5   BANK6   BANK7   BANK8   BANK9  BANK10  BANK1
      +1  BANK12  BANK13
  8575 ;;      Params:         2       0       0       0       0       0       0       0       0       0       0       0       
      +0       0       0
  8576 ;;      Locals:         0       0       0       0       0       0       0       0       0       0       0       0       
      +0       0       0
  8577 ;;      Temps:          0       0       0       0       0       0       0       0       0       0       0       0       
      +0       0       0
  8578 ;;      Totals:         2       0       0       0       0       0       0       0       0       0       0       0       
      +0       0       0
  8579 ;;Total ram usage:        2 bytes
  8580 ;; Hardware stack levels used:    1
  8581 ;; This function calls:
  8582 ;;		Nothing
  8583 ;; This function is called by:
  8584 ;;		_flashLED
  8585 ;;		_serviceSwitches
  8586 ;; This function uses a non-reentrant model
  8587 ;;
  8588                           
  8589                           	psect	text41
  8590  00181C                     __ptext41:
  8591                           	opt stack 0
  8592  00181C                     _updatePresetLEDs:
  8593                           	opt stack 25
  8594                           
  8595                           ;hardware.c: 614: if (psNum == 1)
  8596                           
  8597                           ;incstack = 0
  8598  00181C  0401               	decf	updatePresetLEDs@psNum,w,c
  8599  00181E  1002               	iorwf	updatePresetLEDs@psNum+1,w,c
  8600  001820  A4D8               	btfss	status,2,c
  8601  001822  D006               	goto	i2l958
  8602                           
  8603                           ;hardware.c: 615: {
  8604                           ;hardware.c: 616: LATD0 = 1;
  8605  001824  808C               	bsf	3980,0,c	;volatile
  8606                           
  8607                           ;hardware.c: 617: LATE7 = 0;
  8608  001826  9E8D               	bcf	3981,7,c	;volatile
  8609                           
  8610                           ;hardware.c: 618: LATE5 = 0;
  8611  001828  9A8D               	bcf	3981,5,c	;volatile
  8612                           
  8613                           ;hardware.c: 619: LATE4 = 0;
  8614  00182A  988D               	bcf	3981,4,c	;volatile
  8615                           
  8616                           ;hardware.c: 620: LATH2 = 0;
  8617  00182C  9490               	bcf	3984,2,c	;volatile
  8618                           
  8619                           ;hardware.c: 621: }
  8620  00182E  0012               	return	
  8621  001830                     i2l958:
  8622                           
  8623                           ;hardware.c: 622: else if (psNum == 2)
  8624  001830  0E02               	movlw	2
  8625  001832  1801               	xorwf	updatePresetLEDs@psNum,w,c
  8626  001834  1002               	iorwf	updatePresetLEDs@psNum+1,w,c
  8627  001836  A4D8               	btfss	status,2,c
  8628  001838  D006               	goto	i2l960
  8629                           
  8630                           ;hardware.c: 623: {
  8631                           ;hardware.c: 624: LATD0 = 0;
  8632  00183A  908C               	bcf	3980,0,c	;volatile
  8633                           
  8634                           ;hardware.c: 625: LATE7 = 1;
  8635  00183C  8E8D               	bsf	3981,7,c	;volatile
  8636                           
  8637                           ;hardware.c: 626: LATE5 = 0;
  8638  00183E  9A8D               	bcf	3981,5,c	;volatile
  8639                           
  8640                           ;hardware.c: 627: LATE4 = 0;
  8641  001840  988D               	bcf	3981,4,c	;volatile
  8642                           
  8643                           ;hardware.c: 628: LATH2 = 0;
  8644  001842  9490               	bcf	3984,2,c	;volatile
  8645                           
  8646                           ;hardware.c: 629: }
  8647  001844  0012               	return	
  8648  001846                     i2l960:
  8649                           
  8650                           ;hardware.c: 630: else if (psNum == 3)
  8651  001846  0E03               	movlw	3
  8652  001848  1801               	xorwf	updatePresetLEDs@psNum,w,c
  8653  00184A  1002               	iorwf	updatePresetLEDs@psNum+1,w,c
  8654  00184C  A4D8               	btfss	status,2,c
  8655  00184E  D006               	goto	i2l962
  8656                           
  8657                           ;hardware.c: 631: {
  8658                           ;hardware.c: 632: LATD0 = 0;
  8659  001850  908C               	bcf	3980,0,c	;volatile
  8660                           
  8661                           ;hardware.c: 633: LATE7 = 0;
  8662  001852  9E8D               	bcf	3981,7,c	;volatile
  8663                           
  8664                           ;hardware.c: 634: LATE5 = 1;
  8665  001854  8A8D               	bsf	3981,5,c	;volatile
  8666                           
  8667                           ;hardware.c: 635: LATE4 = 0;
  8668  001856  988D               	bcf	3981,4,c	;volatile
  8669                           
  8670                           ;hardware.c: 636: LATH2 = 0;
  8671  001858  9490               	bcf	3984,2,c	;volatile
  8672                           
  8673                           ;hardware.c: 637: }
  8674  00185A  0012               	return	
  8675  00185C                     i2l962:
  8676                           
  8677                           ;hardware.c: 638: else if (psNum == 4)
  8678  00185C  0E04               	movlw	4
  8679  00185E  1801               	xorwf	updatePresetLEDs@psNum,w,c
  8680  001860  1002               	iorwf	updatePresetLEDs@psNum+1,w,c
  8681  001862  A4D8               	btfss	status,2,c
  8682  001864  D006               	goto	i2l964
  8683                           
  8684                           ;hardware.c: 639: {
  8685                           ;hardware.c: 640: LATD0 = 0;
  8686  001866  908C               	bcf	3980,0,c	;volatile
  8687                           
  8688                           ;hardware.c: 641: LATE7 = 0;
  8689  001868  9E8D               	bcf	3981,7,c	;volatile
  8690                           
  8691                           ;hardware.c: 642: LATE5 = 0;
  8692  00186A  9A8D               	bcf	3981,5,c	;volatile
  8693                           
  8694                           ;hardware.c: 643: LATE4 = 1;
  8695  00186C  888D               	bsf	3981,4,c	;volatile
  8696                           
  8697                           ;hardware.c: 644: LATH2 = 0;
  8698  00186E  9490               	bcf	3984,2,c	;volatile
  8699                           
  8700                           ;hardware.c: 645: }
  8701  001870  0012               	return	
  8702  001872                     i2l964:
  8703                           
  8704                           ;hardware.c: 646: else if (psNum == 5)
  8705  001872  0E05               	movlw	5
  8706  001874  1801               	xorwf	updatePresetLEDs@psNum,w,c
  8707  001876  1002               	iorwf	updatePresetLEDs@psNum+1,w,c
  8708  001878  A4D8               	btfss	status,2,c
  8709  00187A  D006               	goto	i2l966
  8710                           
  8711                           ;hardware.c: 647: {
  8712                           ;hardware.c: 648: LATD0 = 0;
  8713  00187C  908C               	bcf	3980,0,c	;volatile
  8714                           
  8715                           ;hardware.c: 649: LATE7 = 0;
  8716  00187E  9E8D               	bcf	3981,7,c	;volatile
  8717                           
  8718                           ;hardware.c: 650: LATE5 = 0;
  8719  001880  9A8D               	bcf	3981,5,c	;volatile
  8720                           
  8721                           ;hardware.c: 651: LATE4 = 0;
  8722  001882  988D               	bcf	3981,4,c	;volatile
  8723                           
  8724                           ;hardware.c: 652: LATH2 = 1;
  8725  001884  8490               	bsf	3984,2,c	;volatile
  8726                           
  8727                           ;hardware.c: 653: }
  8728  001886  0012               	return	
  8729  001888                     i2l966:
  8730                           
  8731                           ;hardware.c: 654: else
  8732                           ;hardware.c: 655: {
  8733                           ;hardware.c: 656: LATD0 = 0;
  8734  001888  908C               	bcf	3980,0,c	;volatile
  8735                           
  8736                           ;hardware.c: 657: LATE7 = 0;
  8737  00188A  9E8D               	bcf	3981,7,c	;volatile
  8738                           
  8739                           ;hardware.c: 658: LATE5 = 0;
  8740  00188C  9A8D               	bcf	3981,5,c	;volatile
  8741                           
  8742                           ;hardware.c: 659: LATE4 = 0;
  8743  00188E  988D               	bcf	3981,4,c	;volatile
  8744                           
  8745                           ;hardware.c: 660: LATH2 = 0;
  8746  001890  9490               	bcf	3984,2,c	;volatile
  8747  001892  0012               	return	
  8748  001894                     __end_of_updatePresetLEDs:
  8749                           	opt stack 0
  8750                           pclatu	equ	0xFFB
  8751                           pclath	equ	0xFFA
  8752                           tblptru	equ	0xFF8
  8753                           tblptrh	equ	0xFF7
  8754                           tblptrl	equ	0xFF6
  8755                           tablat	equ	0xFF5
  8756                           prodh	equ	0xFF4
  8757                           prodl	equ	0xFF3
  8758                           intcon	equ	0xFF2
  8759                           postinc0	equ	0xFEE
  8760                           fsr0h	equ	0xFEA
  8761                           fsr0l	equ	0xFE9
  8762                           wreg	equ	0xFE8
  8763                           postinc1	equ	0xFE6
  8764                           postdec1	equ	0xFE5
  8765                           fsr1h	equ	0xFE2
  8766                           fsr1l	equ	0xFE1
  8767                           indf2	equ	0xFDF
  8768                           postinc2	equ	0xFDE
  8769                           postdec2	equ	0xFDD
  8770                           fsr2h	equ	0xFDA
  8771                           fsr2l	equ	0xFD9
  8772                           status	equ	0xFD8
  8773                           
  8774 ;; *************** function _checkSwitches *****************
  8775 ;; Defined at:
  8776 ;;		line 140 in file "hardware.c"
  8777 ;; Parameters:    Size  Location     Type
  8778 ;;		None
  8779 ;; Auto vars:     Size  Location     Type
  8780 ;;  flag            1    0[COMRAM] unsigned char 
  8781 ;; Return value:  Size  Location     Type
  8782 ;;                  1    wreg      void 
  8783 ;; Registers used:
  8784 ;;		wreg, status,2
  8785 ;; Tracked objects:
  8786 ;;		On entry : 0/0
  8787 ;;		On exit  : 0/0
  8788 ;;		Unchanged: 0/0
  8789 ;; Data sizes:     COMRAM   BANK0   BANK1   BANK2   BANK3   BANK4   BANK5   BANK6   BANK7   BANK8   BANK9  BANK10  BANK1
      +1  BANK12  BANK13
  8790 ;;      Params:         0       0       0       0       0       0       0       0       0       0       0       0       
      +0       0       0
  8791 ;;      Locals:         1       0       0       0       0       0       0       0       0       0       0       0       
      +0       0       0
  8792 ;;      Temps:          0       0       0       0       0       0       0       0       0       0       0       0       
      +0       0       0
  8793 ;;      Totals:         1       0       0       0       0       0       0       0       0       0       0       0       
      +0       0       0
  8794 ;;Total ram usage:        1 bytes
  8795 ;; Hardware stack levels used:    1
  8796 ;; This function calls:
  8797 ;;		Nothing
  8798 ;; This function is called by:
  8799 ;;		_highPriorityISR
  8800 ;; This function uses a non-reentrant model
  8801 ;;
  8802                           
  8803                           	psect	text42
  8804  0014D4                     __ptext42:
  8805                           	opt stack 0
  8806  0014D4                     _checkSwitches:
  8807                           	opt stack 26
  8808                           
  8809                           ;hardware.c: 142: char flag = 0;
  8810                           
  8811                           ;incstack = 0
  8812  0014D4  0E00               	movlw	0
  8813  0014D6  6E01               	movwf	checkSwitches@flag,c
  8814                           
  8815                           ;hardware.c: 144: if(IOCF1)
  8816  0014D8  A2D1               	btfss	4049,1,c	;volatile
  8817  0014DA  D007               	goto	i2l841
  8818                           
  8819                           ;hardware.c: 145: {
  8820                           ;hardware.c: 146: switch4 = 1;
  8821  0014DC  0E00               	movlw	0
  8822  0014DE  6E49               	movwf	_switch4+1,c
  8823  0014E0  0E01               	movlw	1
  8824  0014E2  6E48               	movwf	_switch4,c
  8825                           
  8826                           ;hardware.c: 147: flag = 1;
  8827  0014E4  0E01               	movlw	1
  8828  0014E6  6E01               	movwf	checkSwitches@flag,c
  8829                           
  8830                           ;hardware.c: 148: IOCFbits.IOCF1 = 0;
  8831  0014E8  92D1               	bcf	4049,1,c	;volatile
  8832  0014EA                     i2l841:
  8833                           
  8834                           ;hardware.c: 149: }
  8835                           ;hardware.c: 151: if (IOCF2)
  8836  0014EA  A4D1               	btfss	4049,2,c	;volatile
  8837  0014EC  D007               	goto	i2l842
  8838                           
  8839                           ;hardware.c: 152: {
  8840                           ;hardware.c: 153: switch2 = 1;
  8841  0014EE  0E00               	movlw	0
  8842  0014F0  6E4D               	movwf	_switch2+1,c
  8843  0014F2  0E01               	movlw	1
  8844  0014F4  6E4C               	movwf	_switch2,c
  8845                           
  8846                           ;hardware.c: 154: flag = 1;
  8847  0014F6  0E01               	movlw	1
  8848  0014F8  6E01               	movwf	checkSwitches@flag,c
  8849                           
  8850                           ;hardware.c: 155: IOCFbits.IOCF2 = 0;
  8851  0014FA  94D1               	bcf	4049,2,c	;volatile
  8852  0014FC                     i2l842:
  8853                           
  8854                           ;hardware.c: 156: }
  8855                           ;hardware.c: 158: if (IOCF3)
  8856  0014FC  A6D1               	btfss	4049,3,c	;volatile
  8857  0014FE  D007               	goto	i2l843
  8858                           
  8859                           ;hardware.c: 159: {
  8860                           ;hardware.c: 160: switch1 = 1;
  8861  001500  0E00               	movlw	0
  8862  001502  6E4F               	movwf	_switch1+1,c
  8863  001504  0E01               	movlw	1
  8864  001506  6E4E               	movwf	_switch1,c
  8865                           
  8866                           ;hardware.c: 161: flag = 1;
  8867  001508  0E01               	movlw	1
  8868  00150A  6E01               	movwf	checkSwitches@flag,c
  8869                           
  8870                           ;hardware.c: 162: IOCFbits.IOCF3 = 0;
  8871  00150C  96D1               	bcf	4049,3,c	;volatile
  8872  00150E                     i2l843:
  8873                           
  8874                           ;hardware.c: 163: }
  8875                           ;hardware.c: 165: if (IOCF4)
  8876  00150E  A8D1               	btfss	4049,4,c	;volatile
  8877  001510  D008               	goto	i2l844
  8878                           
  8879                           ;hardware.c: 166: {
  8880                           ;hardware.c: 167: fsw1 = 1;
  8881  001512  0E00               	movlw	0
  8882  001514  0100               	movlb	0	; () banked
  8883  001516  6FAA               	movwf	(_fsw1+1)& (0+255),b
  8884  001518  0E01               	movlw	1
  8885  00151A  6FA9               	movwf	_fsw1& (0+255),b
  8886                           
  8887                           ;hardware.c: 168: flag = 1;
  8888  00151C  0E01               	movlw	1
  8889  00151E  6E01               	movwf	checkSwitches@flag,c
  8890                           
  8891                           ; BSR set to: 0
  8892                           ;hardware.c: 169: IOCFbits.IOCF4 = 0;
  8893  001520  98D1               	bcf	4049,4,c	;volatile
  8894  001522                     i2l844:
  8895                           
  8896                           ;hardware.c: 170: }
  8897                           ;hardware.c: 172: if (IOCF5)
  8898                           
  8899                           ; BSR set to: 0
  8900  001522  AAD1               	btfss	4049,5,c	;volatile
  8901  001524  D008               	goto	i2l845
  8902                           
  8903                           ;hardware.c: 173: {
  8904                           ;hardware.c: 174: fsw2 = 1;
  8905  001526  0E00               	movlw	0
  8906  001528  0100               	movlb	0	; () banked
  8907  00152A  6FA8               	movwf	(_fsw2+1)& (0+255),b
  8908  00152C  0E01               	movlw	1
  8909  00152E  6FA7               	movwf	_fsw2& (0+255),b
  8910                           
  8911                           ;hardware.c: 175: flag = 1;
  8912  001530  0E01               	movlw	1
  8913  001532  6E01               	movwf	checkSwitches@flag,c
  8914                           
  8915                           ; BSR set to: 0
  8916                           ;hardware.c: 176: IOCFbits.IOCF5 = 0;
  8917  001534  9AD1               	bcf	4049,5,c	;volatile
  8918  001536                     i2l845:
  8919                           
  8920                           ;hardware.c: 177: }
  8921                           ;hardware.c: 179: if (IOCF6)
  8922                           
  8923                           ; BSR set to: 0
  8924  001536  ACD1               	btfss	4049,6,c	;volatile
  8925  001538  D007               	goto	i2l846
  8926                           
  8927                           ;hardware.c: 180: {
  8928                           ;hardware.c: 181: switch3 = 1;
  8929  00153A  0E00               	movlw	0
  8930  00153C  6E4B               	movwf	_switch3+1,c
  8931  00153E  0E01               	movlw	1
  8932  001540  6E4A               	movwf	_switch3,c
  8933                           
  8934                           ;hardware.c: 182: flag = 1;
  8935  001542  0E01               	movlw	1
  8936  001544  6E01               	movwf	checkSwitches@flag,c
  8937                           
  8938                           ;hardware.c: 183: IOCFbits.IOCF6 = 0;
  8939  001546  9CD1               	bcf	4049,6,c	;volatile
  8940  001548                     i2l846:
  8941                           
  8942                           ;hardware.c: 184: }
  8943                           ;hardware.c: 186: if (IOCF7)
  8944  001548  AED1               	btfss	4049,7,c	;volatile
  8945  00154A  D008               	goto	i2l847
  8946                           
  8947                           ;hardware.c: 187: {
  8948                           ;hardware.c: 188: switch5 = 1;
  8949  00154C  0E00               	movlw	0
  8950  00154E  0100               	movlb	0	; () banked
  8951  001550  6FAC               	movwf	(_switch5+1)& (0+255),b
  8952  001552  0E01               	movlw	1
  8953  001554  6FAB               	movwf	_switch5& (0+255),b
  8954                           
  8955                           ;hardware.c: 189: flag = 1;
  8956  001556  0E01               	movlw	1
  8957  001558  6E01               	movwf	checkSwitches@flag,c
  8958                           
  8959                           ; BSR set to: 0
  8960                           ;hardware.c: 190: IOCFbits.IOCF7 = 0;
  8961  00155A  9ED1               	bcf	4049,7,c	;volatile
  8962  00155C                     i2l847:
  8963                           
  8964                           ;hardware.c: 191: }
  8965                           ;hardware.c: 193: if (flag)
  8966  00155C  5001               	movf	checkSwitches@flag,w,c
  8967  00155E  B4D8               	btfsc	status,2,c
  8968  001560  0012               	return	
  8969                           
  8970                           ;hardware.c: 194: {
  8971                           ;hardware.c: 195: T0CONbits.TMR0ON = 0x1;
  8972  001562  8ED5               	bsf	4053,7,c	;volatile
  8973  001564  0012               	return	
  8974  001566                     __end_of_checkSwitches:
  8975                           	opt stack 0
  8976  0000                     pclatu	equ	0xFFB
  8977                           pclath	equ	0xFFA
  8978                           tblptru	equ	0xFF8
  8979                           tblptrh	equ	0xFF7
  8980                           tblptrl	equ	0xFF6
  8981                           tablat	equ	0xFF5
  8982                           prodh	equ	0xFF4
  8983                           prodl	equ	0xFF3
  8984                           intcon	equ	0xFF2
  8985                           postinc0	equ	0xFEE
  8986                           fsr0h	equ	0xFEA
  8987                           fsr0l	equ	0xFE9
  8988                           wreg	equ	0xFE8
  8989                           postinc1	equ	0xFE6
  8990                           postdec1	equ	0xFE5
  8991                           fsr1h	equ	0xFE2
  8992                           fsr1l	equ	0xFE1
  8993                           indf2	equ	0xFDF
  8994                           postinc2	equ	0xFDE
  8995                           postdec2	equ	0xFDD
  8996                           fsr2h	equ	0xFDA
  8997                           fsr2l	equ	0xFD9
  8998                           status	equ	0xFD8
  8999                           pclatu	equ	0xFFB
  9000                           pclath	equ	0xFFA
  9001                           tblptru	equ	0xFF8
  9002                           tblptrh	equ	0xFF7
  9003                           tblptrl	equ	0xFF6
  9004                           tablat	equ	0xFF5
  9005                           prodh	equ	0xFF4
  9006                           prodl	equ	0xFF3
  9007                           intcon	equ	0xFF2
  9008                           postinc0	equ	0xFEE
  9009                           fsr0h	equ	0xFEA
  9010                           fsr0l	equ	0xFE9
  9011                           wreg	equ	0xFE8
  9012                           postinc1	equ	0xFE6
  9013                           postdec1	equ	0xFE5
  9014                           fsr1h	equ	0xFE2
  9015                           fsr1l	equ	0xFE1
  9016                           indf2	equ	0xFDF
  9017                           postinc2	equ	0xFDE
  9018                           postdec2	equ	0xFDD
  9019                           fsr2h	equ	0xFDA
  9020                           fsr2l	equ	0xFD9
  9021                           status	equ	0xFD8
  9022                           
  9023                           	psect	rparam
  9024  0000                     pclatu	equ	0xFFB
  9025                           pclath	equ	0xFFA
  9026                           tblptru	equ	0xFF8
  9027                           tblptrh	equ	0xFF7
  9028                           tblptrl	equ	0xFF6
  9029                           tablat	equ	0xFF5
  9030                           prodh	equ	0xFF4
  9031                           prodl	equ	0xFF3
  9032                           intcon	equ	0xFF2
  9033                           postinc0	equ	0xFEE
  9034                           fsr0h	equ	0xFEA
  9035                           fsr0l	equ	0xFE9
  9036                           wreg	equ	0xFE8
  9037                           postinc1	equ	0xFE6
  9038                           postdec1	equ	0xFE5
  9039                           fsr1h	equ	0xFE2
  9040                           fsr1l	equ	0xFE1
  9041                           indf2	equ	0xFDF
  9042                           postinc2	equ	0xFDE
  9043                           postdec2	equ	0xFDD
  9044                           fsr2h	equ	0xFDA
  9045                           fsr2l	equ	0xFD9
  9046                           status	equ	0xFD8
  9047                           
  9048                           	psect	temp
  9049  00005E                     btemp:
  9050                           	opt stack 0
  9051  00005E                     	ds	1
  9052  0000                     int$flags	set	btemp
  9053  0000                     wtemp6	set	btemp+1
  9054                           pclatu	equ	0xFFB
  9055                           pclath	equ	0xFFA
  9056                           tblptru	equ	0xFF8
  9057                           tblptrh	equ	0xFF7
  9058                           tblptrl	equ	0xFF6
  9059                           tablat	equ	0xFF5
  9060                           prodh	equ	0xFF4
  9061                           prodl	equ	0xFF3
  9062                           intcon	equ	0xFF2
  9063                           postinc0	equ	0xFEE
  9064                           fsr0h	equ	0xFEA
  9065                           fsr0l	equ	0xFE9
  9066                           wreg	equ	0xFE8
  9067                           postinc1	equ	0xFE6
  9068                           postdec1	equ	0xFE5
  9069                           fsr1h	equ	0xFE2
  9070                           fsr1l	equ	0xFE1
  9071                           indf2	equ	0xFDF
  9072                           postinc2	equ	0xFDE
  9073                           postdec2	equ	0xFDD
  9074                           fsr2h	equ	0xFDA
  9075                           fsr2l	equ	0xFD9
  9076                           status	equ	0xFD8


Data Sizes:
    Strings     0
    Constant    0
    Data        74
    BSS         283
    Persistent  0
    Stack       0

Auto Spaces:
    Space          Size  Autos    Used
    COMRAM           94     55      93
    BANK0           160     29     148
    BANK1           256      0     200
    BANK2           256      0       0
    BANK3           256      0       0
    BANK4           256      0       0
    BANK5           256      0       0
    BANK6           256      0       0
    BANK7           256      0       0
    BANK8           256      0       0
    BANK9           256      0       0
    BANK10          256      0       0
    BANK11          256      0       0
    BANK12          256      0       0
    BANK13          250      0       0

Pointer List with Targets:

    dataPtr	PTR int  size(2) Largest target is 3577
		 -> NULL(NULL[0]), RAM(DATA[3577]), 

    I2C1_Block_Read_EERPOM@data	PTR PTR int  size(2) Largest target is 24
		 -> presetRead(BANK1[24]), 

    I2C1_Page_Write_EEPROM@data	PTR PTR int  size(2) Largest target is 30
		 -> parameter(BANK0[30]), 

    updatePreset@data	PTR int  size(2) Largest target is 30
		 -> presetRead(BANK1[24]), parameter(BANK0[30]), 


Critical Paths under _main in COMRAM

    None.

Critical Paths under _highPriorityISR in COMRAM

    _highPriorityISR->_serviceSwitches
    _serviceSwitches->_processTaps
    _processTaps->___ftmul
    ___ftmul->___awtoft
    ___awtoft->___ftpack
    _flashLED->_updatePresetLEDs

Critical Paths under _main in BANK0

    _main->_fetchPreset
    _updateParams->___wmul
    _systemInit->_startupSequence
    _readControls->___ftge
    _fetchPreset->_updatePreset
    _updatePreset->___wmul

Critical Paths under _highPriorityISR in BANK0

    None.

Critical Paths under _main in BANK1

    None.

Critical Paths under _highPriorityISR in BANK1

    None.

Critical Paths under _main in BANK2

    None.

Critical Paths under _highPriorityISR in BANK2

    None.

Critical Paths under _main in BANK3

    None.

Critical Paths under _highPriorityISR in BANK3

    None.

Critical Paths under _main in BANK4

    None.

Critical Paths under _highPriorityISR in BANK4

    None.

Critical Paths under _main in BANK5

    None.

Critical Paths under _highPriorityISR in BANK5

    None.

Critical Paths under _main in BANK6

    None.

Critical Paths under _highPriorityISR in BANK6

    None.

Critical Paths under _main in BANK7

    None.

Critical Paths under _highPriorityISR in BANK7

    None.

Critical Paths under _main in BANK8

    None.

Critical Paths under _highPriorityISR in BANK8

    None.

Critical Paths under _main in BANK9

    None.

Critical Paths under _highPriorityISR in BANK9

    None.

Critical Paths under _main in BANK10

    None.

Critical Paths under _highPriorityISR in BANK10

    None.

Critical Paths under _main in BANK11

    None.

Critical Paths under _highPriorityISR in BANK11

    None.

Critical Paths under _main in BANK12

    None.

Critical Paths under _highPriorityISR in BANK12

    None.

Critical Paths under _main in BANK13

    None.

Critical Paths under _highPriorityISR in BANK13

    None.

Call Graph Tables:

 ---------------------------------------------------------------------------------
 (Depth) Function   	        Calls       Base Space   Used Autos Params    Refs
 ---------------------------------------------------------------------------------
 (0) _main                                                 9     9      0    7111
                                             20 BANK0      9     9      0
                           _ADC_Read
             _I2C1_Page_Write_EEPROM
                 _I2C1_Write_DigiPot
                             _absVal
                        _fetchPreset
                       _readControls
                         _systemInit
                       _updateParams
                       _updatePreset
 ---------------------------------------------------------------------------------
 (1) _updateParams                                         6     4      2     951
                                              6 BANK0      6     4      2
                             ___wmul
 ---------------------------------------------------------------------------------
 (1) _systemInit                                           0     0      0       0
                        _bypassSetup
                        _clockSwitch
                         _defaultLED
                      _interfaceInit
                      _interruptInit
                           _killLEDs
                  _mapPeripheralPins
                           _setupADC
                          _setupI2C1
                          _setupI2C2
                          _setupTMR0
                          _setupTMR1
                          _setupTMR2
                          _setupTMR4
                    _startupSequence
 ---------------------------------------------------------------------------------
 (2) _startupSequence                                      2     2      0       0
                                              0 BANK0      2     2      0
 ---------------------------------------------------------------------------------
 (2) _setupTMR4                                            0     0      0       0
 ---------------------------------------------------------------------------------
 (2) _setupTMR2                                            0     0      0       0
 ---------------------------------------------------------------------------------
 (2) _setupTMR1                                            0     0      0       0
 ---------------------------------------------------------------------------------
 (2) _setupTMR0                                            0     0      0       0
 ---------------------------------------------------------------------------------
 (2) _setupI2C2                                            0     0      0       0
 ---------------------------------------------------------------------------------
 (2) _setupI2C1                                            0     0      0       0
 ---------------------------------------------------------------------------------
 (2) _setupADC                                             0     0      0       0
 ---------------------------------------------------------------------------------
 (2) _mapPeripheralPins                                    0     0      0       0
 ---------------------------------------------------------------------------------
 (2) _killLEDs                                             0     0      0       0
 ---------------------------------------------------------------------------------
 (2) _interruptInit                                        0     0      0       0
 ---------------------------------------------------------------------------------
 (2) _interfaceInit                                        0     0      0       0
 ---------------------------------------------------------------------------------
 (2) _defaultLED                                           0     0      0       0
 ---------------------------------------------------------------------------------
 (2) _clockSwitch                                          0     0      0       0
 ---------------------------------------------------------------------------------
 (2) _bypassSetup                                          0     0      0       0
 ---------------------------------------------------------------------------------
 (1) _readControls                                         6     6      0    1323
                                              9 BANK0      6     6      0
                           _ADC_Read
                             ___ftge
 ---------------------------------------------------------------------------------
 (2) ___ftge                                               9     3      6     288
                                              0 BANK0      9     3      6
 ---------------------------------------------------------------------------------
 (2) _ADC_Read                                             4     2      2    1035
                                              0 BANK0      4     2      2
 ---------------------------------------------------------------------------------
 (1) _fetchPreset                                          4     4      0    1792
                                             16 BANK0      4     4      0
             _I2C1_Block_Read_EERPOM
                       _updatePreset
 ---------------------------------------------------------------------------------
 (1) _updatePreset                                        10     6      4    1224
                                              6 BANK0     10     6      4
                             ___wmul
 ---------------------------------------------------------------------------------
 (2) ___wmul                                               6     2      4     763
                                              0 BANK0      6     2      4
 ---------------------------------------------------------------------------------
 (2) _I2C1_Block_Read_EERPOM                              13     7      6     476
                                              0 BANK0     13     7      6
 ---------------------------------------------------------------------------------
 (1) _absVal                                               4     2      2     192
                                              0 BANK0      4     2      2
 ---------------------------------------------------------------------------------
 (1) _I2C1_Write_DigiPot                                   2     2      0      45
                                              0 BANK0      2     2      0
 ---------------------------------------------------------------------------------
 (1) _I2C1_Page_Write_EEPROM                              11     5      6     387
                                              0 BANK0     11     5      6
 ---------------------------------------------------------------------------------
 Estimated maximum stack depth 2
 ---------------------------------------------------------------------------------
 (Depth) Function   	        Calls       Base Space   Used Autos Params    Refs
 ---------------------------------------------------------------------------------
 (4) _highPriorityISR                                     18    18      0    7607
                                             37 COMRAM    18    18      0
                      _checkSwitches
                           _flashLED
                          _sendParam
                    _serviceSwitches
                             _tapLED
 ---------------------------------------------------------------------------------
 (5) _tapLED                                               3     3      0       0
                                              0 COMRAM     3     3      0
 ---------------------------------------------------------------------------------
 (5) _serviceSwitches                                      6     6      0    7050
                                             31 COMRAM     6     6      0
                        _processTaps
                     _updateLineLEDs
                   _updatePresetLEDs
 ---------------------------------------------------------------------------------
 (6) _updateLineLEDs                                       6     0      6     426
                                              0 COMRAM     6     0      6
 ---------------------------------------------------------------------------------
 (6) _processTaps                                          4     4      0    6138
                                             27 COMRAM     4     4      0
                            ___awdiv
                           ___awtoft
                            ___ftmul
                        _maxTapCheck
                           i2_absVal
 ---------------------------------------------------------------------------------
 (7) i2_absVal                                             4     2      2      92
                                              0 COMRAM     4     2      2
 ---------------------------------------------------------------------------------
 (7) _maxTapCheck                                          0     0      0       0
 ---------------------------------------------------------------------------------
 (7) ___ftmul                                             15     9      6    2992
                                             12 COMRAM    15     9      6
                           ___awtoft (ARG)
                           ___ftpack
 ---------------------------------------------------------------------------------
 (7) ___awtoft                                             4     1      3    2555
                                              8 COMRAM     4     1      3
                           ___ftpack
 ---------------------------------------------------------------------------------
 (8) ___ftpack                                             8     3      5    2388
                                              0 COMRAM     8     3      5
 ---------------------------------------------------------------------------------
 (7) ___awdiv                                              8     4      4     452
                                              0 COMRAM     8     4      4
 ---------------------------------------------------------------------------------
 (5) _sendParam                                            4     4      0     113
                                              0 COMRAM     4     4      0
 ---------------------------------------------------------------------------------
 (5) _flashLED                                             0     0      0     414
                   _updatePresetLEDs
 ---------------------------------------------------------------------------------
 (6) _updatePresetLEDs                                     2     0      2     414
                                              0 COMRAM     2     0      2
 ---------------------------------------------------------------------------------
 (5) _checkSwitches                                        1     1      0      30
                                              0 COMRAM     1     1      0
 ---------------------------------------------------------------------------------
 Estimated maximum stack depth 8
 ---------------------------------------------------------------------------------

 Call Graph Graphs:

 _main (ROOT)
   _ADC_Read
   _I2C1_Page_Write_EEPROM
   _I2C1_Write_DigiPot
   _absVal
   _fetchPreset
     _I2C1_Block_Read_EERPOM
     _updatePreset
       ___wmul
   _readControls
     _ADC_Read
     ___ftge
   _systemInit
     _bypassSetup
     _clockSwitch
     _defaultLED
     _interfaceInit
     _interruptInit
     _killLEDs
     _mapPeripheralPins
     _setupADC
     _setupI2C1
     _setupI2C2
     _setupTMR0
     _setupTMR1
     _setupTMR2
     _setupTMR4
     _startupSequence
   _updateParams
     ___wmul
   _updatePreset
     ___wmul

 _highPriorityISR (ROOT)
   _checkSwitches
   _flashLED
     _updatePresetLEDs
   _sendParam
   _serviceSwitches
     _processTaps
       ___awdiv
       ___awtoft
         ___ftpack
       ___ftmul
         ___awtoft (ARG)
           ___ftpack
         ___ftpack (ARG)
       _maxTapCheck
       i2_absVal
     _updateLineLEDs
     _updatePresetLEDs
   _tapLED

 Address spaces:
Name               Size   Autos  Total    Cost      Usage
BIGRAM             DF9      0       0      33        0.0%
BITBANK12          100      0       0      29        0.0%
BANK12             100      0       0      30        0.0%
BITBANK11          100      0       0      27        0.0%
BANK11             100      0       0      28        0.0%
BITBANK10          100      0       0      25        0.0%
BANK10             100      0       0      26        0.0%
BITBANK9           100      0       0      23        0.0%
BANK9              100      0       0      24        0.0%
BITBANK8           100      0       0      21        0.0%
BANK8              100      0       0      22        0.0%
BITBANK7           100      0       0      19        0.0%
BANK7              100      0       0      20        0.0%
BITBANK6           100      0       0      17        0.0%
BANK6              100      0       0      18        0.0%
BITBANK5           100      0       0      15        0.0%
BANK5              100      0       0      16        0.0%
BITBANK4           100      0       0      13        0.0%
BANK4              100      0       0      14        0.0%
BITBANK3           100      0       0      11        0.0%
BANK3              100      0       0      12        0.0%
BITBANK2           100      0       0       9        0.0%
BANK2              100      0       0      10        0.0%
BITBANK1           100      0       0       6        0.0%
BANK1              100      0      C8       7       78.1%
BITBANK13           FA      0       0      31        0.0%
BANK13              FA      0       0      32        0.0%
BITBANK0            A0      0       0       4        0.0%
BANK0               A0     1D      94       5       92.5%
BITCOMRAM           5E      0       0       0        0.0%
COMRAM              5E     37      5D       1       98.9%
BITSFR_3             0      0       0     200        0.0%
SFR_3                0      0       0     200        0.0%
BITSFR_2             0      0       0     200        0.0%
SFR_2                0      0       0     200        0.0%
BITSFR_1             0      0       0     200        0.0%
SFR_1                0      0       0     200        0.0%
BITSFR               0      0       0     200        0.0%
SFR                  0      0       0     200        0.0%
STACK                0      0       0       2        0.0%
NULL                 0      0       0       0        0.0%
ABS                  0      0     1B9       8        0.0%
DATA                 0      0     1B9       3        0.0%
CODE                 0      0       0       0        0.0%


Microchip Technology PIC18 Macro Assembler V1.43 build -156212558 
Symbol Table                                                                                   Mon Oct 15 12:20:46 2018

                      __CFG_BW$16 000000                __end_of_systemInit 19D8  
           __end_of_interruptInit 1B34                      ___awdiv@sign 0006  
  I2C1_Page_Write_EEPROM@memValue 00D3               ___wmul@multiplicand 00CD  
                     __CFG_BORV$1 000000                      __CFG_CP0$OFF 000000  
          _I2C1_Page_Write_EEPROM 106C                               l203 09E4  
                             l204 0A40                               l205 0A62  
                             l207 0B04                               l181 046A  
                             l182 0474                               l191 13CC  
                             l176 1B56                               l521 1B9C  
                             l193 143E                               l186 11F8  
                             l188 1276                               l196 1748  
                             l198 1796                               l910 0E0C  
                             l902 0DAA                               l920 0E84  
                             l912 0E24                               l904 0DC6  
                             l922 0E9C                               l914 0E3C  
                             l906 0DDC                               l923 0EA6  
                             l916 0E54                               l908 0DF4  
                             l918 0E6C                               _RC0 007C10  
                             _RC1 007C11                               _RD1 007C19  
                             _RD4 007C1C                               _RC6 007C16  
                             _RE3 007C23                               _RC7 007C17  
                             _RD7 007C1F                               _RG1 007C31  
                             _RF3 007C2B                               _RG2 007C32  
                             _RE6 007C26                               _RG3 007C33  
                             _RH4 007C3C                               _RJ0 007C40  
                             _RH5 007C3D                               _RJ1 007C41  
                             _RJ4 007C44                               _RJ5 007C45  
                             _PR2 000FCB                               _tap 0038  
                             _swX 005C                               wreg 000FE8  
          __end_of_updateLineLEDs 1686             __end_of_checkSwitches 1566  
 __size_of_I2C1_Block_Read_EERPOM 013A                     __CFG_ABW$XM16 000000  
                    ?_maxTapCheck 0001                              l1210 0C20  
                            l1211 0BDC                              l1213 0BE0  
                            l1205 0B9E                              l1150 10AE  
                            l1223 0C44                              l1216 0BE8  
                            l1226 0C4C                              l1171 1120  
                            l1155 10F6                              l1147 10A4  
                            l1156 10C8                              l1182 0B6E  
                            l1281 1A3C                              l1193 0B84  
                            l1177 0B5E                              l1187 0B78  
                            l1293 1A54                              l1278 1A32  
                            l1287 1A4A                              l1199 0B92  
                            l3055 1068                              l1590 0FE4  
                            l1591 1024                              l3279 11E2  
                            l3937 13B6                              l3949 1732  
                            u4020 10B2                              u4040 10CC  
                            u4060 1116                              u4070 111A  
                            u2800 0B7C                              u4250 0A54  
                            u4307 074C                              u2820 0B88  
                            u4317 076A                              u4270 0AF4  
                            u4407 0878                              u4327 0788  
                            u2840 0B96                              u3800 0462  
                            u4417 0896                              u4337 07A6  
                            u4265 0A8A                              u2770 0B62  
                            u4507 09A4                              u4427 08B4  
                            u4347 07C4                              u2860 0BA2  
                            u2940 1BA6                              u4517 0D96  
                            u4437 08D2                              u4357 07E2  
                            u4527 0DA2                              u3815 0494  
                            u4447 08F0                              u4367 0800  
                            u4537 0B56                              u3905 06EE  
                            u3825 04AA                              u4457 090E  
                            u4377 081E                              u4297 072E  
                            u2890 0BEC                              u4547 1A2A  
                            u3835 0518                              u4467 092C  
                            u4387 083C                              u4557 109C  
                            u3845 0552                              u4477 094A  
                            u4397 085A                              u3790 0460  
                            u3855 0588                              u4487 0968  
                            u3960 1A40                              u3865 05E6  
                            u4497 0986                              u3875 0620  
                            u3980 1A4E                              u3885 0656  
                            u3895 06B4                              _fbkA 0083  
                            _fbkB 007D                              _fbkC 0077  
                            _armA 008F                              _armB 008D  
                            _armC 008B                              _fsw1 00A9  
                            _fsw2 00A7                              _intA 0056  
                            _intB 0054                              _intC 0052  
                            _main 09B4                      ___ftpack@arg 0001  
                            _lock 006B                              _lvlA 0081  
                            _lvlB 007B                              _lvlC 0075  
                    ___ftpack@exp 0004                              fsr0h 000FEA  
                            fsr1h 000FE2                              fsr2h 000FDA  
                            fsr0l 000FE9                              indf2 000FDF  
                            fsr1l 000FE1                              fsr2l 000FD9  
                     main@prevDry 00E2                              btemp 005E  
                            _sync 0067                  __end_of_ADC_Read 0EB0  
                            prodh 000FF4                              prodl 000FF3  
              __CFG_WDTWIN$PS25_0 000000                              start 011C  
        __size_of_serviceSwitches 0310   I2C1_Page_Write_EEPROM@wrDevAddr 00D2  
                   __CFG_IESO$OFF 000000                __CFG_LS48MHZ$SYSX2 000000  
                    ___ftmul@cntr 001A                      ___param_bank 000000  
                    ___ftmul@sign 001B                       i2absVal@val 0001  
                    ?_bypassSetup 0001                     __CFG_WAIT$OFF 000000  
                           ?_main 0001                   __end_of___awdiv 181C  
                    main@dryLevel 00E6           I2C1_Block_Read_EERPOM@n 00D6  
                 __end_of___ftmul 0FA4                   ___awdiv@divisor 0003  
                           _T2CON 000FCA                             _LATD0 007C60  
                           _LATB5 007C55                             _IOCF1 007E89  
                           _LATD2 007C62                             _LATE0 007C68  
                           _IOCF2 007E8A                             _LATD3 007C63  
                           _LATE1 007C69                             _IOCF3 007E8B  
                           _IOCF4 007E8C                             _IOCF5 007E8D  
                           _LATF2 007C72                             _LATE4 007C6C  
                           _IOCF6 007E8E                             _LATE5 007C6D  
                           _IOCF7 007E8F                             _LATH0 007C80  
                           _LATF5 007C75                             _LATE7 007C6F  
                           _LATH1 007C81                             _LATF6 007C76  
                           _LATG4 007C7C                             _LATH2 007C82  
                           _LATH7 007C87                             i2l171 00C0  
                           i2l172 00D0                             i2l165 005C  
                           i2l166 006E                             i2l176 1B7E  
                           i2l168 0094                             i2l169 0096  
                           i2l810 1966                             i2l820 0D18  
                           i2l821 0D44                             i2l816 0C8E  
                           i2l841 14EA                             i2l817 0D7A  
                           i2l825 1454                             i2l842 14FC  
                           i2l818 0CCE                             i2l843 150E  
                           i2l827 148E                             i2l844 1522  
                           i2l836 18D2                             i2l860 01C8  
                           i2l845 1536                             i2l837 18DE  
                           i2l941 1620                             i2l846 1548  
                           i2l942 1624                             i2l870 0258  
                           i2l862 01D6                             i2l854 0160  
                           i2l847 155C                             i2l951 1670  
                           i2l943 1630                             i2l960 1846  
                           i2l872 0266                             i2l953 1680  
                           i2l945 163E                             i2l937 1602  
                           i2l881 032C                             i2l873 027C  
                           i2l865 0210                             i2l857 018E  
                           i2l962 185C                             i2l890 03B0  
                           i2l882 031E                             i2l874 0284  
                           i2l947 164E                             i2l939 1610  
                           i2l875 029A                             i2l867 021E  
                           i2l964 1872                             i2l948 1652  
                           i2l884 0360                             i2l876 02A2  
                 ___awdiv@counter 0005                             i2l949 1660  
                           i2l885 034C                             i2l877 02B8  
                           i2l966 1888                             i2l958 1830  
                           i2l894 03EC                             i2l878 02C0  
                           i2l895 03E6                             i2l888 037C  
                   __CFG_WPSA$128 000000                   ?_updateLineLEDs 0001  
                  __CFG_EASHFT$ON 000000                     ___awtoft@sign 000C  
                           _timeA 007F                             _timeB 0079  
                           _timeC 0073                             _shift 003E  
                   ___ftpack@sign 0005                    __CFG_BOREN$OFF 000000  
                           pclath 000FFA                             tablat 000FF5  
                __end_ofi2_absVal 1B88                  updatePreset@data 00D3  
                           status 000FD8                  updatePreset@temp 00D7  
                updatePreset@slot 00D1                             wtemp6 005F  
      __size_of_mapPeripheralPins 0054            _I2C1_Block_Read_EERPOM 0B1C  
                 __initialization 1686                      __end_of_main 0B1C  
     __size_of_I2C1_Write_DigiPot 0042                            ??_main 00DF  
                   ?_readControls 0001                     __activetblptr 000000  
             __CFG_WPEND$WPENDMEM 000000                    __CFG_RETEN$OFF 000000  
                          _CCPR4H 000F12                            _CCPR4L 000F11  
                ___awdiv@dividend 0001                  __end_of___awtoft 1ACE  
        __size_of_startupSequence 0296                  __end_of___ftpack 11D8  
            __size_of_clockSwitch 0024                            _LCDSE0 000ECE  
                          _LCDSE1 000ECF                            _LCDSE2 000ED0  
                          _LCDSE3 000ED1                            _LCDSE4 000ED2  
                          _LCDSE5 000ED3                            _LCDSE6 000ED4  
                          _LCDSE7 000ED5          __size_of_highPriorityISR 0114  
                          i2l1300 138C                            i2l1301 1370  
                          i2l1600 0F32                            i2l1521 1186  
                          i2l1601 0F42                            i2l1522 1170  
                          i2l1603 0F5A                            i2l1524 11AE  
                          i2l1604 0F6A                            i2l1525 11A4  
                          i2l1518 1152                            i2l1471 17AC  
                          i2l1519 1148                            i2l1480 1812  
                          i2l1472 17BC                            i2l1298 1338  
                          i2l1474 17DA                            i2l1299 13A0  
                          i2l1475 17D2                            i2l1478 17FA  
                  __CFG_WDTEN$OFF 000000                            i2l1479 1804  
                          i2l4073 00C0                            i2l1499 1AAA  
                          i2l1597 0ED8                            i2l1599 0F00  
                          i2l3527 0CCE                            i2l3637 138C  
                          u250_41 0EC0                            u252_41 0EE8  
                          _OSCCON 000FD3              __size_of_fetchPreset 0084  
                          _TMR0IF 007F92                            _TMR2IF 007CF1  
                          _TMR4IF 007DC0                            _TMR2ON 007E52  
                          _SSP2IF 007D0E                    __CFG_XINST$OFF 000000  
                __end_of_flashLED 18F0                      _CCPTMRS1bits 000F35  
                          ___ftge 0FA4                            _absVal 1B34  
                __end_of_killLEDs 1BCC                            _pFlash 0099  
                          ___wmul 1ACE                         ??___awdiv 0005  
                       ??___ftmul 0013          __end_of_updatePresetLEDs 1894  
               ??_serviceSwitches 0020                   ADC_Read@channel 00CB  
                          _tapLED 1440                            _bypass 0046  
                          _muxADC 00A3                            clear_0 16EC  
                          clear_1 16F8                            clear_2 1704  
                ___awdiv@quotient 0007                    _RPINR20_21bits 000E34  
                 __CFG_CLKOEN$OFF 000000                            _preset 00A1  
                  ??_readControls 00D4                    _RPINR22_23bits 000E35  
           ___ftmul@f3_as_product 0017                      __pdataCOMRAM 0058  
                  _RPINR24_25bits 000E36                  __end_of_setupADC 15F6  
                       ?_ADC_Read 00CB                    _RPINR18_19bits 000E33  
              processTaps@tapDiff 001E                            tblptrh 000FF7  
                          tblptrl 000FF6                            tblptru 000FF8  
                  _armFlashToggle 0091                      ?_processTaps 0001  
                   updateParams@i 00D5              __size_of_maxTapCheck 004E  
                      __accesstop 0060           __end_of__initialization 170A  
              __CFG_DSWDTOSC$LPRC 000000                        ___ftge@ff1 00CB  
                      ___ftge@ff2 00CE                     ___rparam_used 000001  
                 __CFG_T5GSEL$T5G 000000                   __CFG_IOL1WAY$ON 000000  
                      ___awtoft@c 0009                     updatePreset@i 00D9  
                      ___ftmul@f1 000D                        ___ftmul@f2 0010  
                  __pcstackCOMRAM 0001                      __pidataBANK0 1C4A  
                    __pidataBANK1 1A5E           ?_I2C1_Page_Write_EEPROM 00CB  
      I2C1_Page_Write_EEPROM@data 00CD        I2C1_Page_Write_EEPROM@slot 00CB  
            __size_of_bypassSetup 000C                         ?i2_absVal 0001  
               __CFG_PLLDIV$PLL8X 000000                        ??_ADC_Read 00CD  
                      _dataTarget 0087                        __pbssBANK0 0060  
                      __pbssBANK1 0100                        _defaultLED 1BFE  
          __size_of_interfaceInit 009E                 ??_startupSequence 00CB  
               ??_highPriorityISR 0026    __end_of_I2C1_Page_Write_EEPROM 112A  
                         ?___ftge 00CB                           ?_absVal 00CB  
                         ?___wmul 00CB                __size_of_sendParam 0096  
                         _ADCBUF0 000FC2                           _ADCBUF1 000E48  
                         _ADCBUF2 000E4A                           _ADCBUF3 000E4C  
                         _ADCBUF4 000E4E                           _ADCBUF5 000E50  
                         _ADCBUF6 000E52                           _ADCBUF8 000E56  
                         _ADCBUF9 000E58                           ?_tapLED 0001  
                 __CFG_VBTBOR$OFF 000000                         ?___awtoft 0009  
                       ?___ftpack 0001                  ??_updateLineLEDs 0007  
                      ??i2_absVal 0003                __size_of_setupI2C1 001A  
              __size_of_setupI2C2 0044                __size_of_setupTMR0 0018  
              __size_of_setupTMR1 000E                __size_of_setupTMR2 0010  
              __size_of_setupTMR4 0016                   __CFG_WDTCLK$FRC 000000  
                         _SSP1ADD 000FC8                           _SSP2ADD 000F02  
                         _SSP1BUF 000FC9                           _SSP2BUF 000F03  
                       ?_flashLED 0001                           _SSP2MSK 000F17  
                       ?_killLEDs 0001            __size_of_interruptInit 0030  
         ?_I2C1_Block_Read_EERPOM 00CB              __end_of_readControls 071E  
                         __Hparam 0000                           __Lparam 0000  
                       ?_setupADC 0001            __size_of_checkSwitches 0092  
                 __size_of___ftge 00C8                           ___awdiv 1798  
                 __size_of_absVal 002C                   __size_of___wmul 0036  
                         ___ftmul 0EB0                        _linesArmed 0089  
                 __CFG_STVREN$OFF 000000                           _dataPtr 0085  
                 __size_of_tapLED 0094                           __pcinit 1686  
                      ??___awtoft 000C                        ??___ftpack 0006  
                      _masterTime 0064                           __ramtop 0E00  
                         __ptext0 09B4                           __ptext1 13AC  
                         __ptext2 1992                           __ptext3 071E  
                         __ptext4 1C16                           __ptext5 1C2C  
                         __ptext6 1C3C                           __ptext7 1BE6  
                         __ptext8 19D8                           __ptext9 1BCC  
                   _interfaceInit 1278                         _T0CONbits 000FD5  
                         _bypMode 00F2                         _T1CONbits 000FCD  
                       _T2CONbits 000FCA                         _T3CONbits 000FB1  
                         _tapTime 0071                           _tapPrev 003A  
                       _T4CONbits 000F04                         _T5CONbits 000F14  
                      ??_flashLED 0003                           _switch1 004E  
                         _switch2 004C                           _switch3 004A  
                         _switch4 0048                           _switch5 00AB  
               __end_of_sendParam 13AC              end_of_initialization 170A  
                      ??_killLEDs 00CB    __end_of_I2C1_Block_Read_EERPOM 0C56  
               checkSwitches@flag 0001                       ?_defaultLED 0001  
                      _targPreset 0044               updateLineLEDs@lineA 0001  
             updateLineLEDs@lineB 0003               updateLineLEDs@lineC 0005  
            __size_of_processTaps 012E                   _serviceSwitches 0120  
               __end_of_setupI2C1 1BE6                 __end_of_setupI2C2 1A1C  
               __end_of_setupTMR0 1BFE                 __end_of_setupTMR1 1C4A  
               __end_of_setupTMR2 1C3C                 __end_of_setupTMR4 1C2C  
                      ??_setupADC 00CB                           postdec1 000FE5  
                         postdec2 000FDD                           postinc0 000FEE  
                         postinc1 000FE6                           postinc2 000FDE  
      __end_of_I2C1_Write_DigiPot 1A5E                  __CFG_FSCM$CSECMD 000000  
                __CFG_DSBITEN$OFF 000000                     _interruptInit 1B04  
               ?_updatePresetLEDs 0001                        _presetRead 0178  
                      _presetPend 0042                    ?_interfaceInit 0001  
                __CFG_DSBOREN$OFF 000000                       _ADCHS0Lbits 000E86  
              ??_updatePresetLEDs 0003                  __CFG_FOSC$FRCDIV 000000  
                     _ADCON1Hbits 000FC1                       _ADCON2Hbits 000E8D  
                     _ADCON1Lbits 000FC0                       _ADCON3Hbits 000E8B  
                       _TRISAbits 000F92                         _TRISBbits 000F93  
                       _TRISCbits 000F94                     ??_clockSwitch 00CB  
                       _TRISDbits 000F95                       _ADCON3Lbits 000E8A  
                     _ADCON5Hbits 000E89                         _TRISEbits 000F96  
                       _TRISFbits 000F97                         _TRISGbits 000F98  
                       _TRISHbits 000F99                         _TRISJbits 000F9A  
                   _checkSwitches 14D4                 __size_of_ADC_Read 012C  
                   ??_fetchPreset 00DB              __CFG_CINASEL$DEFAULT 000000  
                      _userParams 0100                       _CCP4CONbits 000F10  
                   ?_updateParams 00D1                     ?_updatePreset 00D1  
    I2C1_Block_Read_EERPOM@rdAddr 00D3                       ___ftmul@exp 0016  
               __CFG_WPFP$WPFP255 000000                    ?_interruptInit 0001  
                  __end_of___ftge 106C                    __end_of_absVal 1B60  
                  __end_of___wmul 1B04                     __pidataCOMRAM 1C62  
                  __end_of_tapLED 14D4       I2C1_Page_Write_EEPROM@bytes 00CF  
             __size_of_defaultLED 0018                  __CFG_DSWDTEN$OFF 000000  
             start_initialization 1686                 __size_ofi2_absVal 0028  
                      _systemInit 1992                    ?_checkSwitches 0001  
                 _startupSequence 071E                     ??_maxTapCheck 0001  
         __end_of_serviceSwitches 0430                   _highPriorityISR 0008  
           __size_of_readControls 02EE               __end_of_clockSwitch 1BAC  
         I2C1_Write_DigiPot@value 00CB                    ??_updateParams 00D3  
             __end_of_fetchPreset 1798                       _pFlashCount 009B  
                  ??_updatePreset 00D5                          ??___ftge 00D1  
                        ??_absVal 00CD                          ??___wmul 00CF  
                  _currentTapTime 0058                     ??_bypassSetup 00CB  
                 ??_interfaceInit 00CB                       __pdataBANK0 00E8  
                     __pdataBANK1 0190                          ??_tapLED 0001  
                   _armFlashCount 0095                      _readControls 0430  
               __size_of___awtoft 0038                 __size_of___ftpack 00AE  
                     __pbssCOMRAM 0038                     __pcstackBANK0 00CB  
         I2C1_Page_Write_EEPROM@n 00D4                 __size_of_flashLED 005C  
                    _paramAddress 0190                 __size_of_killLEDs 0020  
           updatePresetLEDs@psNum 0001               __end_of_maxTapCheck 1992  
                 ??_interruptInit 00CB                         __pintcode 0008  
                      sendParam@n 0003                         absVal@val 00CB  
                        ?___awdiv 0001                          ?___ftmul 000D  
               __size_of_setupADC 0090                          _ADCBUF14 000E62  
                    _tapDispCount 0040           __end_of_startupSequence 09B4  
         __end_of_highPriorityISR 011C                  __CFG_POSCMD$NONE 000000  
                 ??_checkSwitches 0001               __end_of_bypassSetup 1C62  
                        _ADC_Read 0D84                       ?_systemInit 0001  
                     _PADCFG1bits 000F54                       _clockSwitch 1B88  
                ?_serviceSwitches 0001                       _fetchPreset 1714  
                       _parameter 00AD                         _tapOnTime 005A  
                    ??_defaultLED 00CB                    ___wmul@product 00CF  
                        _IOCFbits 000FD1                         _sendParam 1316  
                        _IOCNbits 000F55                          _IOCPbits 000F56  
                        _PIE1bits 000F9D                          _PIE2bits 000FA0  
                        _PIE5bits 000FB7    I2C1_Block_Read_EERPOM@memValue 00D4  
                        i2u241_40 113A                          i2u340_41 015C  
                        i2u325_40 18B8                          i2u245_40 11B8  
                        i2u319_40 13A0                          i2u351_40 01BE  
                        i2u423_40 00BC                          i2u343_45 0168  
                        i2u344_40 0170                          _PIR1bits 000F9E  
                        i2u345_45 0172                          i2u370_40 0374  
                        i2u338_40 0156                          i2u259_40 17DE  
                        i2u355_40 0206                          _PIR2bits 000FA1  
                        i2u339_45 0158                          i2u366_40 0314  
                        i2u359_40 024E                          i2u296_40 0C6C  
                        i2u297_40 0CB4                         _setupI2C1 1BCC  
                       _setupI2C2 19D8                  __CFG_WDTPS$32768 000000  
                       _presetAdd 00E8                         _setupTMR0 1BE6  
                       _setupTMR1 1C3C                         _setupTMR2 1C2C  
                       _setupTMR4 1C16                          _UCONbits 000F75  
                    _tapTimeCount 003C                   fetchPreset@test 00DB  
                     _bounceCount 00A5                 ___wmul@multiplier 00CB  
                __CFG_SOSCSEL$DIG 000000       I2C1_Write_DigiPot@wrCommand 00CC  
                        i2_absVal 1B60                __end_of_defaultLED 1C16  
            __end_of_updateParams 1440              __end_of_updatePreset 1278  
                      _CM1CONbits 000F53                _I2C1_Write_DigiPot 1A1C  
                      _CM2CONbits 000F38       I2C1_Block_Read_EERPOM@bytes 00CF  
                      _CM3CONbits 000F37                  __CFG_WPDIS$WPDIS 000000  
         __size_of_updateLineLEDs 0090                       _maxTapCheck 1944  
                       copy_data0 169A                         copy_data1 16BA  
                       copy_data2 16DA                     ??_processTaps 001C  
       __size_of_updatePresetLEDs 0078               ?_I2C1_Write_DigiPot 0001  
        ??_I2C1_Page_Write_EEPROM 00D1                        ?_sendParam 0001  
                      _ANCON1bits 000E47                        _ANCON2bits 000E46  
                      _ANCON3bits 000E45                          __Hrparam 0000  
                        __Lrparam 0000                        ?_setupI2C1 0001  
                      ?_setupI2C2 0001               __size_of_systemInit 0046  
                      ?_setupTMR0 0001                        ?_setupTMR1 0001  
                      ?_setupTMR2 0001                        ?_setupTMR4 0001  
                   ADC_Read@value 00CD                       _bypassSetup 1C56  
                __size_of___awdiv 0084                  __size_of___ftmul 00F4  
            ??_I2C1_Write_DigiPot 00CB                          ___awtoft 1A96  
                        ___ftpack 112A                  ?_startupSequence 0001  
                ?_highPriorityISR 0001                          _armFlash 0093  
                        __ptext10 1566                          __ptext11 18F0  
                        __ptext20 0D84                          __ptext12 1BAC  
                        __ptext21 1714                          __ptext13 1B04  
                        __ptext30 0120                          __ptext22 11D8  
                        __ptext14 1278                          __ptext31 15F6  
                        __ptext23 1ACE                          __ptext15 1BFE  
                        __ptext40 1894                          __ptext32 0C56  
                        __ptext24 0B1C                          __ptext16 1B88  
                        __ptext41 181C                          __ptext33 1B60  
                        __ptext25 1B34                          __ptext17 1C56  
                        __ptext42 14D4                          __ptext34 1944  
                        __ptext26 1A1C                          __ptext18 0430  
                        __ptext35 0EB0                          __ptext27 106C  
                        __ptext19 0FA4                          __ptext36 1A96  
                        __ptext37 112A                          __ptext29 1440  
                        __ptext38 1798                          __ptext39 1316  
                        _flashLED 1894                      _SSP1CON1bits 000FC6  
                    _SSP1CON2bits 000FC5                        _LCDCONbits 000ED9  
                    _SSP2CON1bits 000F19                      _SSP2CON2bits 000F18  
                    _SSP2CON3bits 000F39                          _killLEDs 1BAC  
                     _OSCCON2bits 000F66                       _OSCCON3bits 000F65  
                     _OSCCON4bits 000F64                     __size_of_main 0168  
                        _tapAccum 0060                          _newTempo 006F  
                        _tapFlash 0097                __CFG_MSSPMSK1$MSK7 000000  
              __CFG_MSSPMSK2$MSK7 000000                          _savePend 009F  
             __end_of_processTaps 0D84                          _setupADC 1566  
                   _setupComplete 0069                          int$flags 005E  
                        _slotUsed 009D                        _MEMCONbits 000EE3  
                        main@diff 00E4                      _SSP1STATbits 000FC7  
      I2C1_Block_Read_EERPOM@data 00CD        I2C1_Block_Read_EERPOM@slot 00CB  
                      _INTCONbits 000FF2          ??_I2C1_Block_Read_EERPOM 00D1  
                        intlevel2 0000                       _shiftAction 0050  
                     ??_sendParam 0001   __size_of_I2C1_Page_Write_EEPROM 00BE  
                    _presetParams 01B0                        _OSCCONbits 000FD3  
                     ??_setupI2C1 00CB                       ??_setupI2C2 00CB  
I2C1_Block_Read_EERPOM@dummyWrite 00D5                       ??_setupTMR0 00CB  
                     ??_setupTMR1 00CB                       ??_setupTMR2 00CB  
                     ??_setupTMR4 00CB                 _mapPeripheralPins 18F0  
           __size_of_updateParams 0094                ?_mapPeripheralPins 0001  
           __size_of_updatePreset 00A0             __end_of_interfaceInit 1316  
                    _timeoutCount 006D               ??_mapPeripheralPins 00CB  
                    ??_systemInit 00CD                      fetchPreset@i 00DD  
                    ?_clockSwitch 0001                    _updateLineLEDs 15F6  
                    ?_fetchPreset 0001                  _updatePresetLEDs 181C  
             __CFG_WPCFG$WPCFGDIS 000000                       _processTaps 0C56  
                serviceSwitches@a 0020                  serviceSwitches@b 0022  
                serviceSwitches@c 0024                __CFG_WINDIS$WDTSTD 000000  
                    _updateParams 13AC            __CFG_DSWDTPS$DSWDTPS1F 000000  
       __end_of_mapPeripheralPins 1944                      _updatePreset 11D8  
                updateParams@slot 00D1  
